ARM GAS  C:\Temp\ccAfawe4.s 			page 1


   1              		.cpu cortex-m4
   2              		.arch armv7e-m
   3              		.fpu fpv4-sp-d16
   4              		.eabi_attribute 27, 1
   5              		.eabi_attribute 28, 1
   6              		.eabi_attribute 20, 1
   7              		.eabi_attribute 21, 1
   8              		.eabi_attribute 23, 3
   9              		.eabi_attribute 24, 1
  10              		.eabi_attribute 25, 1
  11              		.eabi_attribute 26, 1
  12              		.eabi_attribute 30, 1
  13              		.eabi_attribute 34, 1
  14              		.eabi_attribute 18, 4
  15              		.file	"stm32l4xx_hal_msp.c"
  16              		.text
  17              	.Ltext0:
  18              		.cfi_sections	.debug_frame
  19              		.file 1 "Core/Src/stm32l4xx_hal_msp.c"
  20              		.section	.text.HAL_MspInit,"ax",%progbits
  21              		.align	1
  22              		.global	HAL_MspInit
  23              		.syntax unified
  24              		.thumb
  25              		.thumb_func
  27              	HAL_MspInit:
  28              	.LFB905:
   1:Core/Src/stm32l4xx_hal_msp.c **** /* USER CODE BEGIN Header */
   2:Core/Src/stm32l4xx_hal_msp.c **** /**
   3:Core/Src/stm32l4xx_hal_msp.c ****   ******************************************************************************
   4:Core/Src/stm32l4xx_hal_msp.c ****   * @file         stm32l4xx_hal_msp.c
   5:Core/Src/stm32l4xx_hal_msp.c ****   * @brief        This file provides code for the MSP Initialization
   6:Core/Src/stm32l4xx_hal_msp.c ****   *               and de-Initialization codes.
   7:Core/Src/stm32l4xx_hal_msp.c ****   ******************************************************************************
   8:Core/Src/stm32l4xx_hal_msp.c ****   * @attention
   9:Core/Src/stm32l4xx_hal_msp.c ****   *
  10:Core/Src/stm32l4xx_hal_msp.c ****   * Copyright (c) 2023 STMicroelectronics.
  11:Core/Src/stm32l4xx_hal_msp.c ****   * All rights reserved.
  12:Core/Src/stm32l4xx_hal_msp.c ****   *
  13:Core/Src/stm32l4xx_hal_msp.c ****   * This software is licensed under terms that can be found in the LICENSE file
  14:Core/Src/stm32l4xx_hal_msp.c ****   * in the root directory of this software component.
  15:Core/Src/stm32l4xx_hal_msp.c ****   * If no LICENSE file comes with this software, it is provided AS-IS.
  16:Core/Src/stm32l4xx_hal_msp.c ****   *
  17:Core/Src/stm32l4xx_hal_msp.c ****   ******************************************************************************
  18:Core/Src/stm32l4xx_hal_msp.c ****   */
  19:Core/Src/stm32l4xx_hal_msp.c **** /* USER CODE END Header */
  20:Core/Src/stm32l4xx_hal_msp.c **** 
  21:Core/Src/stm32l4xx_hal_msp.c **** /* Includes ------------------------------------------------------------------*/
  22:Core/Src/stm32l4xx_hal_msp.c **** #include "main.h"
  23:Core/Src/stm32l4xx_hal_msp.c **** 
  24:Core/Src/stm32l4xx_hal_msp.c **** /* USER CODE BEGIN Includes */
  25:Core/Src/stm32l4xx_hal_msp.c **** 
  26:Core/Src/stm32l4xx_hal_msp.c **** /* USER CODE END Includes */
  27:Core/Src/stm32l4xx_hal_msp.c **** 
  28:Core/Src/stm32l4xx_hal_msp.c **** /* Private typedef -----------------------------------------------------------*/
  29:Core/Src/stm32l4xx_hal_msp.c **** /* USER CODE BEGIN TD */
  30:Core/Src/stm32l4xx_hal_msp.c **** 
ARM GAS  C:\Temp\ccAfawe4.s 			page 2


  31:Core/Src/stm32l4xx_hal_msp.c **** /* USER CODE END TD */
  32:Core/Src/stm32l4xx_hal_msp.c **** 
  33:Core/Src/stm32l4xx_hal_msp.c **** /* Private define ------------------------------------------------------------*/
  34:Core/Src/stm32l4xx_hal_msp.c **** /* USER CODE BEGIN Define */
  35:Core/Src/stm32l4xx_hal_msp.c **** 
  36:Core/Src/stm32l4xx_hal_msp.c **** /* USER CODE END Define */
  37:Core/Src/stm32l4xx_hal_msp.c **** 
  38:Core/Src/stm32l4xx_hal_msp.c **** /* Private macro -------------------------------------------------------------*/
  39:Core/Src/stm32l4xx_hal_msp.c **** /* USER CODE BEGIN Macro */
  40:Core/Src/stm32l4xx_hal_msp.c **** 
  41:Core/Src/stm32l4xx_hal_msp.c **** /* USER CODE END Macro */
  42:Core/Src/stm32l4xx_hal_msp.c **** 
  43:Core/Src/stm32l4xx_hal_msp.c **** /* Private variables ---------------------------------------------------------*/
  44:Core/Src/stm32l4xx_hal_msp.c **** /* USER CODE BEGIN PV */
  45:Core/Src/stm32l4xx_hal_msp.c **** 
  46:Core/Src/stm32l4xx_hal_msp.c **** /* USER CODE END PV */
  47:Core/Src/stm32l4xx_hal_msp.c **** 
  48:Core/Src/stm32l4xx_hal_msp.c **** /* Private function prototypes -----------------------------------------------*/
  49:Core/Src/stm32l4xx_hal_msp.c **** /* USER CODE BEGIN PFP */
  50:Core/Src/stm32l4xx_hal_msp.c **** 
  51:Core/Src/stm32l4xx_hal_msp.c **** /* USER CODE END PFP */
  52:Core/Src/stm32l4xx_hal_msp.c **** 
  53:Core/Src/stm32l4xx_hal_msp.c **** /* External functions --------------------------------------------------------*/
  54:Core/Src/stm32l4xx_hal_msp.c **** /* USER CODE BEGIN ExternalFunctions */
  55:Core/Src/stm32l4xx_hal_msp.c **** 
  56:Core/Src/stm32l4xx_hal_msp.c **** /* USER CODE END ExternalFunctions */
  57:Core/Src/stm32l4xx_hal_msp.c **** 
  58:Core/Src/stm32l4xx_hal_msp.c **** /* USER CODE BEGIN 0 */
  59:Core/Src/stm32l4xx_hal_msp.c **** 
  60:Core/Src/stm32l4xx_hal_msp.c **** /* USER CODE END 0 */
  61:Core/Src/stm32l4xx_hal_msp.c **** 
  62:Core/Src/stm32l4xx_hal_msp.c **** void HAL_TIM_MspPostInit(TIM_HandleTypeDef *htim);
  63:Core/Src/stm32l4xx_hal_msp.c ****                     /**
  64:Core/Src/stm32l4xx_hal_msp.c ****   * Initializes the Global MSP.
  65:Core/Src/stm32l4xx_hal_msp.c ****   */
  66:Core/Src/stm32l4xx_hal_msp.c **** void HAL_MspInit(void)
  67:Core/Src/stm32l4xx_hal_msp.c **** {
  29              		.loc 1 67 1 view -0
  30              		.cfi_startproc
  31              		@ args = 0, pretend = 0, frame = 8
  32              		@ frame_needed = 0, uses_anonymous_args = 0
  33              		@ link register save eliminated.
  34 0000 82B0     		sub	sp, sp, #8
  35              		.cfi_def_cfa_offset 8
  68:Core/Src/stm32l4xx_hal_msp.c ****   /* USER CODE BEGIN MspInit 0 */
  69:Core/Src/stm32l4xx_hal_msp.c **** 
  70:Core/Src/stm32l4xx_hal_msp.c ****   /* USER CODE END MspInit 0 */
  71:Core/Src/stm32l4xx_hal_msp.c **** 
  72:Core/Src/stm32l4xx_hal_msp.c ****   __HAL_RCC_SYSCFG_CLK_ENABLE();
  36              		.loc 1 72 3 view .LVU1
  37              	.LBB6:
  38              		.loc 1 72 3 view .LVU2
  39              		.loc 1 72 3 view .LVU3
  40 0002 0A4B     		ldr	r3, .L3
  41 0004 1A6E     		ldr	r2, [r3, #96]
  42 0006 42F00102 		orr	r2, r2, #1
  43 000a 1A66     		str	r2, [r3, #96]
ARM GAS  C:\Temp\ccAfawe4.s 			page 3


  44              		.loc 1 72 3 view .LVU4
  45 000c 1A6E     		ldr	r2, [r3, #96]
  46 000e 02F00102 		and	r2, r2, #1
  47 0012 0092     		str	r2, [sp]
  48              		.loc 1 72 3 view .LVU5
  49 0014 009A     		ldr	r2, [sp]
  50              	.LBE6:
  51              		.loc 1 72 3 view .LVU6
  73:Core/Src/stm32l4xx_hal_msp.c ****   __HAL_RCC_PWR_CLK_ENABLE();
  52              		.loc 1 73 3 view .LVU7
  53              	.LBB7:
  54              		.loc 1 73 3 view .LVU8
  55              		.loc 1 73 3 view .LVU9
  56 0016 9A6D     		ldr	r2, [r3, #88]
  57 0018 42F08052 		orr	r2, r2, #268435456
  58 001c 9A65     		str	r2, [r3, #88]
  59              		.loc 1 73 3 view .LVU10
  60 001e 9B6D     		ldr	r3, [r3, #88]
  61 0020 03F08053 		and	r3, r3, #268435456
  62 0024 0193     		str	r3, [sp, #4]
  63              		.loc 1 73 3 view .LVU11
  64 0026 019B     		ldr	r3, [sp, #4]
  65              	.LBE7:
  66              		.loc 1 73 3 view .LVU12
  74:Core/Src/stm32l4xx_hal_msp.c **** 
  75:Core/Src/stm32l4xx_hal_msp.c ****   /* System interrupt init*/
  76:Core/Src/stm32l4xx_hal_msp.c **** 
  77:Core/Src/stm32l4xx_hal_msp.c ****   /* USER CODE BEGIN MspInit 1 */
  78:Core/Src/stm32l4xx_hal_msp.c **** 
  79:Core/Src/stm32l4xx_hal_msp.c ****   /* USER CODE END MspInit 1 */
  80:Core/Src/stm32l4xx_hal_msp.c **** }
  67              		.loc 1 80 1 is_stmt 0 view .LVU13
  68 0028 02B0     		add	sp, sp, #8
  69              		.cfi_def_cfa_offset 0
  70              		@ sp needed
  71 002a 7047     		bx	lr
  72              	.L4:
  73              		.align	2
  74              	.L3:
  75 002c 00100240 		.word	1073876992
  76              		.cfi_endproc
  77              	.LFE905:
  79              		.section	.text.HAL_I2C_MspInit,"ax",%progbits
  80              		.align	1
  81              		.global	HAL_I2C_MspInit
  82              		.syntax unified
  83              		.thumb
  84              		.thumb_func
  86              	HAL_I2C_MspInit:
  87              	.LVL0:
  88              	.LFB906:
  81:Core/Src/stm32l4xx_hal_msp.c **** 
  82:Core/Src/stm32l4xx_hal_msp.c **** /**
  83:Core/Src/stm32l4xx_hal_msp.c **** * @brief I2C MSP Initialization
  84:Core/Src/stm32l4xx_hal_msp.c **** * This function configures the hardware resources used in this example
  85:Core/Src/stm32l4xx_hal_msp.c **** * @param hi2c: I2C handle pointer
  86:Core/Src/stm32l4xx_hal_msp.c **** * @retval None
ARM GAS  C:\Temp\ccAfawe4.s 			page 4


  87:Core/Src/stm32l4xx_hal_msp.c **** */
  88:Core/Src/stm32l4xx_hal_msp.c **** void HAL_I2C_MspInit(I2C_HandleTypeDef* hi2c)
  89:Core/Src/stm32l4xx_hal_msp.c **** {
  89              		.loc 1 89 1 is_stmt 1 view -0
  90              		.cfi_startproc
  91              		@ args = 0, pretend = 0, frame = 32
  92              		@ frame_needed = 0, uses_anonymous_args = 0
  93              		.loc 1 89 1 is_stmt 0 view .LVU15
  94 0000 10B5     		push	{r4, lr}
  95              		.cfi_def_cfa_offset 8
  96              		.cfi_offset 4, -8
  97              		.cfi_offset 14, -4
  98 0002 88B0     		sub	sp, sp, #32
  99              		.cfi_def_cfa_offset 40
  90:Core/Src/stm32l4xx_hal_msp.c ****   GPIO_InitTypeDef GPIO_InitStruct = {0};
 100              		.loc 1 90 3 is_stmt 1 view .LVU16
 101              		.loc 1 90 20 is_stmt 0 view .LVU17
 102 0004 0023     		movs	r3, #0
 103 0006 0393     		str	r3, [sp, #12]
 104 0008 0493     		str	r3, [sp, #16]
 105 000a 0593     		str	r3, [sp, #20]
 106 000c 0693     		str	r3, [sp, #24]
 107 000e 0793     		str	r3, [sp, #28]
  91:Core/Src/stm32l4xx_hal_msp.c ****   if(hi2c->Instance==I2C2)
 108              		.loc 1 91 3 is_stmt 1 view .LVU18
 109              		.loc 1 91 10 is_stmt 0 view .LVU19
 110 0010 0268     		ldr	r2, [r0]
 111              		.loc 1 91 5 view .LVU20
 112 0012 174B     		ldr	r3, .L9
 113 0014 9A42     		cmp	r2, r3
 114 0016 01D0     		beq	.L8
 115              	.LVL1:
 116              	.L5:
  92:Core/Src/stm32l4xx_hal_msp.c ****   {
  93:Core/Src/stm32l4xx_hal_msp.c ****   /* USER CODE BEGIN I2C2_MspInit 0 */
  94:Core/Src/stm32l4xx_hal_msp.c **** 
  95:Core/Src/stm32l4xx_hal_msp.c ****   /* USER CODE END I2C2_MspInit 0 */
  96:Core/Src/stm32l4xx_hal_msp.c ****     LL_RCC_SetI2CClockSource(LL_RCC_I2C2_CLKSOURCE_PCLK1);
  97:Core/Src/stm32l4xx_hal_msp.c **** 
  98:Core/Src/stm32l4xx_hal_msp.c ****     __HAL_RCC_GPIOB_CLK_ENABLE();
  99:Core/Src/stm32l4xx_hal_msp.c ****     /**I2C2 GPIO Configuration
 100:Core/Src/stm32l4xx_hal_msp.c ****     PB10     ------> I2C2_SCL
 101:Core/Src/stm32l4xx_hal_msp.c ****     PB11     ------> I2C2_SDA
 102:Core/Src/stm32l4xx_hal_msp.c ****     */
 103:Core/Src/stm32l4xx_hal_msp.c ****     GPIO_InitStruct.Pin = GPIO_PIN_10|GPIO_PIN_11;
 104:Core/Src/stm32l4xx_hal_msp.c ****     GPIO_InitStruct.Mode = GPIO_MODE_AF_OD;
 105:Core/Src/stm32l4xx_hal_msp.c ****     GPIO_InitStruct.Pull = GPIO_NOPULL;
 106:Core/Src/stm32l4xx_hal_msp.c ****     GPIO_InitStruct.Speed = GPIO_SPEED_FREQ_VERY_HIGH;
 107:Core/Src/stm32l4xx_hal_msp.c ****     GPIO_InitStruct.Alternate = GPIO_AF4_I2C2;
 108:Core/Src/stm32l4xx_hal_msp.c ****     HAL_GPIO_Init(GPIOB, &GPIO_InitStruct);
 109:Core/Src/stm32l4xx_hal_msp.c **** 
 110:Core/Src/stm32l4xx_hal_msp.c ****     /* Peripheral clock enable */
 111:Core/Src/stm32l4xx_hal_msp.c ****     __HAL_RCC_I2C2_CLK_ENABLE();
 112:Core/Src/stm32l4xx_hal_msp.c ****   /* USER CODE BEGIN I2C2_MspInit 1 */
 113:Core/Src/stm32l4xx_hal_msp.c **** 
 114:Core/Src/stm32l4xx_hal_msp.c ****   /* USER CODE END I2C2_MspInit 1 */
 115:Core/Src/stm32l4xx_hal_msp.c ****   }
ARM GAS  C:\Temp\ccAfawe4.s 			page 5


 116:Core/Src/stm32l4xx_hal_msp.c **** 
 117:Core/Src/stm32l4xx_hal_msp.c **** }
 117              		.loc 1 117 1 view .LVU21
 118 0018 08B0     		add	sp, sp, #32
 119              		.cfi_remember_state
 120              		.cfi_def_cfa_offset 8
 121              		@ sp needed
 122 001a 10BD     		pop	{r4, pc}
 123              	.LVL2:
 124              	.L8:
 125              		.cfi_restore_state
  96:Core/Src/stm32l4xx_hal_msp.c **** 
 126              		.loc 1 96 5 is_stmt 1 view .LVU22
 127              	.LBB8:
 128              	.LBI8:
 129              		.file 2 "Drivers/STM32L4xx_HAL_Driver/Inc/stm32l4xx_ll_rcc.h"
   1:Drivers/STM32L4xx_HAL_Driver/Inc/stm32l4xx_ll_rcc.h **** /**
   2:Drivers/STM32L4xx_HAL_Driver/Inc/stm32l4xx_ll_rcc.h ****   ******************************************************************************
   3:Drivers/STM32L4xx_HAL_Driver/Inc/stm32l4xx_ll_rcc.h ****   * @file    stm32l4xx_ll_rcc.h
   4:Drivers/STM32L4xx_HAL_Driver/Inc/stm32l4xx_ll_rcc.h ****   * @author  MCD Application Team
   5:Drivers/STM32L4xx_HAL_Driver/Inc/stm32l4xx_ll_rcc.h ****   * @brief   Header file of RCC LL module.
   6:Drivers/STM32L4xx_HAL_Driver/Inc/stm32l4xx_ll_rcc.h ****   ******************************************************************************
   7:Drivers/STM32L4xx_HAL_Driver/Inc/stm32l4xx_ll_rcc.h ****   * @attention
   8:Drivers/STM32L4xx_HAL_Driver/Inc/stm32l4xx_ll_rcc.h ****   *
   9:Drivers/STM32L4xx_HAL_Driver/Inc/stm32l4xx_ll_rcc.h ****   * Copyright (c) 2017 STMicroelectronics.
  10:Drivers/STM32L4xx_HAL_Driver/Inc/stm32l4xx_ll_rcc.h ****   * All rights reserved.
  11:Drivers/STM32L4xx_HAL_Driver/Inc/stm32l4xx_ll_rcc.h ****   *
  12:Drivers/STM32L4xx_HAL_Driver/Inc/stm32l4xx_ll_rcc.h ****   * This software is licensed under terms that can be found in the LICENSE file in
  13:Drivers/STM32L4xx_HAL_Driver/Inc/stm32l4xx_ll_rcc.h ****   * the root directory of this software component.
  14:Drivers/STM32L4xx_HAL_Driver/Inc/stm32l4xx_ll_rcc.h ****   * If no LICENSE file comes with this software, it is provided AS-IS.
  15:Drivers/STM32L4xx_HAL_Driver/Inc/stm32l4xx_ll_rcc.h ****   ******************************************************************************
  16:Drivers/STM32L4xx_HAL_Driver/Inc/stm32l4xx_ll_rcc.h ****   */
  17:Drivers/STM32L4xx_HAL_Driver/Inc/stm32l4xx_ll_rcc.h **** 
  18:Drivers/STM32L4xx_HAL_Driver/Inc/stm32l4xx_ll_rcc.h **** /* Define to prevent recursive inclusion -------------------------------------*/
  19:Drivers/STM32L4xx_HAL_Driver/Inc/stm32l4xx_ll_rcc.h **** #ifndef STM32L4xx_LL_RCC_H
  20:Drivers/STM32L4xx_HAL_Driver/Inc/stm32l4xx_ll_rcc.h **** #define STM32L4xx_LL_RCC_H
  21:Drivers/STM32L4xx_HAL_Driver/Inc/stm32l4xx_ll_rcc.h **** 
  22:Drivers/STM32L4xx_HAL_Driver/Inc/stm32l4xx_ll_rcc.h **** #ifdef __cplusplus
  23:Drivers/STM32L4xx_HAL_Driver/Inc/stm32l4xx_ll_rcc.h **** extern "C" {
  24:Drivers/STM32L4xx_HAL_Driver/Inc/stm32l4xx_ll_rcc.h **** #endif
  25:Drivers/STM32L4xx_HAL_Driver/Inc/stm32l4xx_ll_rcc.h **** 
  26:Drivers/STM32L4xx_HAL_Driver/Inc/stm32l4xx_ll_rcc.h **** /* Includes ------------------------------------------------------------------*/
  27:Drivers/STM32L4xx_HAL_Driver/Inc/stm32l4xx_ll_rcc.h **** #include "stm32l4xx.h"
  28:Drivers/STM32L4xx_HAL_Driver/Inc/stm32l4xx_ll_rcc.h **** 
  29:Drivers/STM32L4xx_HAL_Driver/Inc/stm32l4xx_ll_rcc.h **** /** @addtogroup STM32L4xx_LL_Driver
  30:Drivers/STM32L4xx_HAL_Driver/Inc/stm32l4xx_ll_rcc.h ****   * @{
  31:Drivers/STM32L4xx_HAL_Driver/Inc/stm32l4xx_ll_rcc.h ****   */
  32:Drivers/STM32L4xx_HAL_Driver/Inc/stm32l4xx_ll_rcc.h **** 
  33:Drivers/STM32L4xx_HAL_Driver/Inc/stm32l4xx_ll_rcc.h **** #if defined(RCC)
  34:Drivers/STM32L4xx_HAL_Driver/Inc/stm32l4xx_ll_rcc.h **** 
  35:Drivers/STM32L4xx_HAL_Driver/Inc/stm32l4xx_ll_rcc.h **** /** @defgroup RCC_LL RCC
  36:Drivers/STM32L4xx_HAL_Driver/Inc/stm32l4xx_ll_rcc.h ****   * @{
  37:Drivers/STM32L4xx_HAL_Driver/Inc/stm32l4xx_ll_rcc.h ****   */
  38:Drivers/STM32L4xx_HAL_Driver/Inc/stm32l4xx_ll_rcc.h **** 
  39:Drivers/STM32L4xx_HAL_Driver/Inc/stm32l4xx_ll_rcc.h **** /* Private types -------------------------------------------------------------*/
  40:Drivers/STM32L4xx_HAL_Driver/Inc/stm32l4xx_ll_rcc.h **** /* Private variables ---------------------------------------------------------*/
  41:Drivers/STM32L4xx_HAL_Driver/Inc/stm32l4xx_ll_rcc.h **** /* Private constants ---------------------------------------------------------*/
ARM GAS  C:\Temp\ccAfawe4.s 			page 6


  42:Drivers/STM32L4xx_HAL_Driver/Inc/stm32l4xx_ll_rcc.h **** /** @defgroup RCC_LL_Private_Constants RCC Private Constants
  43:Drivers/STM32L4xx_HAL_Driver/Inc/stm32l4xx_ll_rcc.h ****   * @{
  44:Drivers/STM32L4xx_HAL_Driver/Inc/stm32l4xx_ll_rcc.h ****   */
  45:Drivers/STM32L4xx_HAL_Driver/Inc/stm32l4xx_ll_rcc.h **** /* Defines used to perform offsets*/
  46:Drivers/STM32L4xx_HAL_Driver/Inc/stm32l4xx_ll_rcc.h **** /* Offset used to access to RCC_CCIPR and RCC_CCIPR2 registers */
  47:Drivers/STM32L4xx_HAL_Driver/Inc/stm32l4xx_ll_rcc.h **** #define RCC_OFFSET_CCIPR        0U
  48:Drivers/STM32L4xx_HAL_Driver/Inc/stm32l4xx_ll_rcc.h **** #define RCC_OFFSET_CCIPR2       0x14U
  49:Drivers/STM32L4xx_HAL_Driver/Inc/stm32l4xx_ll_rcc.h **** 
  50:Drivers/STM32L4xx_HAL_Driver/Inc/stm32l4xx_ll_rcc.h **** /**
  51:Drivers/STM32L4xx_HAL_Driver/Inc/stm32l4xx_ll_rcc.h ****   * @}
  52:Drivers/STM32L4xx_HAL_Driver/Inc/stm32l4xx_ll_rcc.h ****   */
  53:Drivers/STM32L4xx_HAL_Driver/Inc/stm32l4xx_ll_rcc.h **** 
  54:Drivers/STM32L4xx_HAL_Driver/Inc/stm32l4xx_ll_rcc.h **** /* Private macros ------------------------------------------------------------*/
  55:Drivers/STM32L4xx_HAL_Driver/Inc/stm32l4xx_ll_rcc.h **** #if defined(USE_FULL_LL_DRIVER)
  56:Drivers/STM32L4xx_HAL_Driver/Inc/stm32l4xx_ll_rcc.h **** /** @defgroup RCC_LL_Private_Macros RCC Private Macros
  57:Drivers/STM32L4xx_HAL_Driver/Inc/stm32l4xx_ll_rcc.h ****   * @{
  58:Drivers/STM32L4xx_HAL_Driver/Inc/stm32l4xx_ll_rcc.h ****   */
  59:Drivers/STM32L4xx_HAL_Driver/Inc/stm32l4xx_ll_rcc.h **** /**
  60:Drivers/STM32L4xx_HAL_Driver/Inc/stm32l4xx_ll_rcc.h ****   * @}
  61:Drivers/STM32L4xx_HAL_Driver/Inc/stm32l4xx_ll_rcc.h ****   */
  62:Drivers/STM32L4xx_HAL_Driver/Inc/stm32l4xx_ll_rcc.h **** #endif /*USE_FULL_LL_DRIVER*/
  63:Drivers/STM32L4xx_HAL_Driver/Inc/stm32l4xx_ll_rcc.h **** 
  64:Drivers/STM32L4xx_HAL_Driver/Inc/stm32l4xx_ll_rcc.h **** /* Exported types ------------------------------------------------------------*/
  65:Drivers/STM32L4xx_HAL_Driver/Inc/stm32l4xx_ll_rcc.h **** #if defined(USE_FULL_LL_DRIVER)
  66:Drivers/STM32L4xx_HAL_Driver/Inc/stm32l4xx_ll_rcc.h **** /** @defgroup RCC_LL_Exported_Types RCC Exported Types
  67:Drivers/STM32L4xx_HAL_Driver/Inc/stm32l4xx_ll_rcc.h ****   * @{
  68:Drivers/STM32L4xx_HAL_Driver/Inc/stm32l4xx_ll_rcc.h ****   */
  69:Drivers/STM32L4xx_HAL_Driver/Inc/stm32l4xx_ll_rcc.h **** 
  70:Drivers/STM32L4xx_HAL_Driver/Inc/stm32l4xx_ll_rcc.h **** /** @defgroup LL_ES_CLOCK_FREQ Clocks Frequency Structure
  71:Drivers/STM32L4xx_HAL_Driver/Inc/stm32l4xx_ll_rcc.h ****   * @{
  72:Drivers/STM32L4xx_HAL_Driver/Inc/stm32l4xx_ll_rcc.h ****   */
  73:Drivers/STM32L4xx_HAL_Driver/Inc/stm32l4xx_ll_rcc.h **** 
  74:Drivers/STM32L4xx_HAL_Driver/Inc/stm32l4xx_ll_rcc.h **** /**
  75:Drivers/STM32L4xx_HAL_Driver/Inc/stm32l4xx_ll_rcc.h ****   * @brief  RCC Clocks Frequency Structure
  76:Drivers/STM32L4xx_HAL_Driver/Inc/stm32l4xx_ll_rcc.h ****   */
  77:Drivers/STM32L4xx_HAL_Driver/Inc/stm32l4xx_ll_rcc.h **** typedef struct
  78:Drivers/STM32L4xx_HAL_Driver/Inc/stm32l4xx_ll_rcc.h **** {
  79:Drivers/STM32L4xx_HAL_Driver/Inc/stm32l4xx_ll_rcc.h ****   uint32_t SYSCLK_Frequency;        /*!< SYSCLK clock frequency */
  80:Drivers/STM32L4xx_HAL_Driver/Inc/stm32l4xx_ll_rcc.h ****   uint32_t HCLK_Frequency;          /*!< HCLK clock frequency */
  81:Drivers/STM32L4xx_HAL_Driver/Inc/stm32l4xx_ll_rcc.h ****   uint32_t PCLK1_Frequency;         /*!< PCLK1 clock frequency */
  82:Drivers/STM32L4xx_HAL_Driver/Inc/stm32l4xx_ll_rcc.h ****   uint32_t PCLK2_Frequency;         /*!< PCLK2 clock frequency */
  83:Drivers/STM32L4xx_HAL_Driver/Inc/stm32l4xx_ll_rcc.h **** } LL_RCC_ClocksTypeDef;
  84:Drivers/STM32L4xx_HAL_Driver/Inc/stm32l4xx_ll_rcc.h **** 
  85:Drivers/STM32L4xx_HAL_Driver/Inc/stm32l4xx_ll_rcc.h **** /**
  86:Drivers/STM32L4xx_HAL_Driver/Inc/stm32l4xx_ll_rcc.h ****   * @}
  87:Drivers/STM32L4xx_HAL_Driver/Inc/stm32l4xx_ll_rcc.h ****   */
  88:Drivers/STM32L4xx_HAL_Driver/Inc/stm32l4xx_ll_rcc.h **** 
  89:Drivers/STM32L4xx_HAL_Driver/Inc/stm32l4xx_ll_rcc.h **** /**
  90:Drivers/STM32L4xx_HAL_Driver/Inc/stm32l4xx_ll_rcc.h ****   * @}
  91:Drivers/STM32L4xx_HAL_Driver/Inc/stm32l4xx_ll_rcc.h ****   */
  92:Drivers/STM32L4xx_HAL_Driver/Inc/stm32l4xx_ll_rcc.h **** #endif /* USE_FULL_LL_DRIVER */
  93:Drivers/STM32L4xx_HAL_Driver/Inc/stm32l4xx_ll_rcc.h **** 
  94:Drivers/STM32L4xx_HAL_Driver/Inc/stm32l4xx_ll_rcc.h **** /* Exported constants --------------------------------------------------------*/
  95:Drivers/STM32L4xx_HAL_Driver/Inc/stm32l4xx_ll_rcc.h **** /** @defgroup RCC_LL_Exported_Constants RCC Exported Constants
  96:Drivers/STM32L4xx_HAL_Driver/Inc/stm32l4xx_ll_rcc.h ****   * @{
  97:Drivers/STM32L4xx_HAL_Driver/Inc/stm32l4xx_ll_rcc.h ****   */
  98:Drivers/STM32L4xx_HAL_Driver/Inc/stm32l4xx_ll_rcc.h **** 
ARM GAS  C:\Temp\ccAfawe4.s 			page 7


  99:Drivers/STM32L4xx_HAL_Driver/Inc/stm32l4xx_ll_rcc.h **** /** @defgroup RCC_LL_EC_OSC_VALUES Oscillator Values adaptation
 100:Drivers/STM32L4xx_HAL_Driver/Inc/stm32l4xx_ll_rcc.h ****   * @brief    Defines used to adapt values of different oscillators
 101:Drivers/STM32L4xx_HAL_Driver/Inc/stm32l4xx_ll_rcc.h ****   * @note     These values could be modified in the user environment according to
 102:Drivers/STM32L4xx_HAL_Driver/Inc/stm32l4xx_ll_rcc.h ****   *           HW set-up.
 103:Drivers/STM32L4xx_HAL_Driver/Inc/stm32l4xx_ll_rcc.h ****   * @{
 104:Drivers/STM32L4xx_HAL_Driver/Inc/stm32l4xx_ll_rcc.h ****   */
 105:Drivers/STM32L4xx_HAL_Driver/Inc/stm32l4xx_ll_rcc.h **** #if !defined  (HSE_VALUE)
 106:Drivers/STM32L4xx_HAL_Driver/Inc/stm32l4xx_ll_rcc.h **** #define HSE_VALUE    8000000U   /*!< Value of the HSE oscillator in Hz */
 107:Drivers/STM32L4xx_HAL_Driver/Inc/stm32l4xx_ll_rcc.h **** #endif /* HSE_VALUE */
 108:Drivers/STM32L4xx_HAL_Driver/Inc/stm32l4xx_ll_rcc.h **** 
 109:Drivers/STM32L4xx_HAL_Driver/Inc/stm32l4xx_ll_rcc.h **** #if !defined  (HSI_VALUE)
 110:Drivers/STM32L4xx_HAL_Driver/Inc/stm32l4xx_ll_rcc.h **** #define HSI_VALUE    16000000U  /*!< Value of the HSI oscillator in Hz */
 111:Drivers/STM32L4xx_HAL_Driver/Inc/stm32l4xx_ll_rcc.h **** #endif /* HSI_VALUE */
 112:Drivers/STM32L4xx_HAL_Driver/Inc/stm32l4xx_ll_rcc.h **** 
 113:Drivers/STM32L4xx_HAL_Driver/Inc/stm32l4xx_ll_rcc.h **** #if !defined  (LSE_VALUE)
 114:Drivers/STM32L4xx_HAL_Driver/Inc/stm32l4xx_ll_rcc.h **** #define LSE_VALUE    32768U     /*!< Value of the LSE oscillator in Hz */
 115:Drivers/STM32L4xx_HAL_Driver/Inc/stm32l4xx_ll_rcc.h **** #endif /* LSE_VALUE */
 116:Drivers/STM32L4xx_HAL_Driver/Inc/stm32l4xx_ll_rcc.h **** 
 117:Drivers/STM32L4xx_HAL_Driver/Inc/stm32l4xx_ll_rcc.h **** #if !defined  (LSI_VALUE)
 118:Drivers/STM32L4xx_HAL_Driver/Inc/stm32l4xx_ll_rcc.h **** #define LSI_VALUE    32000U     /*!< Value of the LSI oscillator in Hz */
 119:Drivers/STM32L4xx_HAL_Driver/Inc/stm32l4xx_ll_rcc.h **** #endif /* LSI_VALUE */
 120:Drivers/STM32L4xx_HAL_Driver/Inc/stm32l4xx_ll_rcc.h **** #if defined(RCC_HSI48_SUPPORT)
 121:Drivers/STM32L4xx_HAL_Driver/Inc/stm32l4xx_ll_rcc.h **** 
 122:Drivers/STM32L4xx_HAL_Driver/Inc/stm32l4xx_ll_rcc.h **** #if !defined  (HSI48_VALUE)
 123:Drivers/STM32L4xx_HAL_Driver/Inc/stm32l4xx_ll_rcc.h **** #define HSI48_VALUE  48000000U  /*!< Value of the HSI48 oscillator in Hz */
 124:Drivers/STM32L4xx_HAL_Driver/Inc/stm32l4xx_ll_rcc.h **** #endif /* HSI48_VALUE */
 125:Drivers/STM32L4xx_HAL_Driver/Inc/stm32l4xx_ll_rcc.h **** #endif /* RCC_HSI48_SUPPORT */
 126:Drivers/STM32L4xx_HAL_Driver/Inc/stm32l4xx_ll_rcc.h **** 
 127:Drivers/STM32L4xx_HAL_Driver/Inc/stm32l4xx_ll_rcc.h **** #if !defined  (EXTERNAL_SAI1_CLOCK_VALUE)
 128:Drivers/STM32L4xx_HAL_Driver/Inc/stm32l4xx_ll_rcc.h **** #define EXTERNAL_SAI1_CLOCK_VALUE    48000U /*!< Value of the SAI1_EXTCLK external oscillator in Hz
 129:Drivers/STM32L4xx_HAL_Driver/Inc/stm32l4xx_ll_rcc.h **** #endif /* EXTERNAL_SAI1_CLOCK_VALUE */
 130:Drivers/STM32L4xx_HAL_Driver/Inc/stm32l4xx_ll_rcc.h **** 
 131:Drivers/STM32L4xx_HAL_Driver/Inc/stm32l4xx_ll_rcc.h **** #if !defined  (EXTERNAL_SAI2_CLOCK_VALUE)
 132:Drivers/STM32L4xx_HAL_Driver/Inc/stm32l4xx_ll_rcc.h **** #define EXTERNAL_SAI2_CLOCK_VALUE    48000U /*!< Value of the SAI2_EXTCLK external oscillator in Hz
 133:Drivers/STM32L4xx_HAL_Driver/Inc/stm32l4xx_ll_rcc.h **** #endif /* EXTERNAL_SAI2_CLOCK_VALUE */
 134:Drivers/STM32L4xx_HAL_Driver/Inc/stm32l4xx_ll_rcc.h **** /**
 135:Drivers/STM32L4xx_HAL_Driver/Inc/stm32l4xx_ll_rcc.h ****   * @}
 136:Drivers/STM32L4xx_HAL_Driver/Inc/stm32l4xx_ll_rcc.h ****   */
 137:Drivers/STM32L4xx_HAL_Driver/Inc/stm32l4xx_ll_rcc.h **** 
 138:Drivers/STM32L4xx_HAL_Driver/Inc/stm32l4xx_ll_rcc.h **** /** @defgroup RCC_LL_EC_CLEAR_FLAG Clear Flags Defines
 139:Drivers/STM32L4xx_HAL_Driver/Inc/stm32l4xx_ll_rcc.h ****   * @brief    Flags defines which can be used with LL_RCC_WriteReg function
 140:Drivers/STM32L4xx_HAL_Driver/Inc/stm32l4xx_ll_rcc.h ****   * @{
 141:Drivers/STM32L4xx_HAL_Driver/Inc/stm32l4xx_ll_rcc.h ****   */
 142:Drivers/STM32L4xx_HAL_Driver/Inc/stm32l4xx_ll_rcc.h **** #define LL_RCC_CICR_LSIRDYC                RCC_CICR_LSIRDYC     /*!< LSI Ready Interrupt Clear */
 143:Drivers/STM32L4xx_HAL_Driver/Inc/stm32l4xx_ll_rcc.h **** #define LL_RCC_CICR_LSERDYC                RCC_CICR_LSERDYC     /*!< LSE Ready Interrupt Clear */
 144:Drivers/STM32L4xx_HAL_Driver/Inc/stm32l4xx_ll_rcc.h **** #define LL_RCC_CICR_MSIRDYC                RCC_CICR_MSIRDYC     /*!< MSI Ready Interrupt Clear */
 145:Drivers/STM32L4xx_HAL_Driver/Inc/stm32l4xx_ll_rcc.h **** #define LL_RCC_CICR_HSIRDYC                RCC_CICR_HSIRDYC     /*!< HSI Ready Interrupt Clear */
 146:Drivers/STM32L4xx_HAL_Driver/Inc/stm32l4xx_ll_rcc.h **** #define LL_RCC_CICR_HSERDYC                RCC_CICR_HSERDYC     /*!< HSE Ready Interrupt Clear */
 147:Drivers/STM32L4xx_HAL_Driver/Inc/stm32l4xx_ll_rcc.h **** #define LL_RCC_CICR_PLLRDYC                RCC_CICR_PLLRDYC     /*!< PLL Ready Interrupt Clear */
 148:Drivers/STM32L4xx_HAL_Driver/Inc/stm32l4xx_ll_rcc.h **** #if defined(RCC_HSI48_SUPPORT)
 149:Drivers/STM32L4xx_HAL_Driver/Inc/stm32l4xx_ll_rcc.h **** #define LL_RCC_CICR_HSI48RDYC              RCC_CICR_HSI48RDYC   /*!< HSI48 Ready Interrupt Clear */
 150:Drivers/STM32L4xx_HAL_Driver/Inc/stm32l4xx_ll_rcc.h **** #endif /* RCC_HSI48_SUPPORT */
 151:Drivers/STM32L4xx_HAL_Driver/Inc/stm32l4xx_ll_rcc.h **** #if defined(RCC_PLLSAI1_SUPPORT)
 152:Drivers/STM32L4xx_HAL_Driver/Inc/stm32l4xx_ll_rcc.h **** #define LL_RCC_CICR_PLLSAI1RDYC            RCC_CICR_PLLSAI1RDYC /*!< PLLSAI1 Ready Interrupt Clear 
 153:Drivers/STM32L4xx_HAL_Driver/Inc/stm32l4xx_ll_rcc.h **** #endif /* RCC_PLLSAI1_SUPPORT */
 154:Drivers/STM32L4xx_HAL_Driver/Inc/stm32l4xx_ll_rcc.h **** #if defined(RCC_PLLSAI2_SUPPORT)
 155:Drivers/STM32L4xx_HAL_Driver/Inc/stm32l4xx_ll_rcc.h **** #define LL_RCC_CICR_PLLSAI2RDYC            RCC_CICR_PLLSAI2RDYC /*!< PLLSAI2 Ready Interrupt Clear 
ARM GAS  C:\Temp\ccAfawe4.s 			page 8


 156:Drivers/STM32L4xx_HAL_Driver/Inc/stm32l4xx_ll_rcc.h **** #endif /* RCC_PLLSAI2_SUPPORT */
 157:Drivers/STM32L4xx_HAL_Driver/Inc/stm32l4xx_ll_rcc.h **** #define LL_RCC_CICR_LSECSSC                RCC_CICR_LSECSSC     /*!< LSE Clock Security System Inte
 158:Drivers/STM32L4xx_HAL_Driver/Inc/stm32l4xx_ll_rcc.h **** #define LL_RCC_CICR_CSSC                   RCC_CICR_CSSC        /*!< Clock Security System Interrup
 159:Drivers/STM32L4xx_HAL_Driver/Inc/stm32l4xx_ll_rcc.h **** /**
 160:Drivers/STM32L4xx_HAL_Driver/Inc/stm32l4xx_ll_rcc.h ****   * @}
 161:Drivers/STM32L4xx_HAL_Driver/Inc/stm32l4xx_ll_rcc.h ****   */
 162:Drivers/STM32L4xx_HAL_Driver/Inc/stm32l4xx_ll_rcc.h **** 
 163:Drivers/STM32L4xx_HAL_Driver/Inc/stm32l4xx_ll_rcc.h **** /** @defgroup RCC_LL_EC_GET_FLAG Get Flags Defines
 164:Drivers/STM32L4xx_HAL_Driver/Inc/stm32l4xx_ll_rcc.h ****   * @brief    Flags defines which can be used with LL_RCC_ReadReg function
 165:Drivers/STM32L4xx_HAL_Driver/Inc/stm32l4xx_ll_rcc.h ****   * @{
 166:Drivers/STM32L4xx_HAL_Driver/Inc/stm32l4xx_ll_rcc.h ****   */
 167:Drivers/STM32L4xx_HAL_Driver/Inc/stm32l4xx_ll_rcc.h **** #define LL_RCC_CIFR_LSIRDYF                RCC_CIFR_LSIRDYF     /*!< LSI Ready Interrupt flag */
 168:Drivers/STM32L4xx_HAL_Driver/Inc/stm32l4xx_ll_rcc.h **** #define LL_RCC_CIFR_LSERDYF                RCC_CIFR_LSERDYF     /*!< LSE Ready Interrupt flag */
 169:Drivers/STM32L4xx_HAL_Driver/Inc/stm32l4xx_ll_rcc.h **** #define LL_RCC_CIFR_MSIRDYF                RCC_CIFR_MSIRDYF     /*!< MSI Ready Interrupt flag */
 170:Drivers/STM32L4xx_HAL_Driver/Inc/stm32l4xx_ll_rcc.h **** #define LL_RCC_CIFR_HSIRDYF                RCC_CIFR_HSIRDYF     /*!< HSI Ready Interrupt flag */
 171:Drivers/STM32L4xx_HAL_Driver/Inc/stm32l4xx_ll_rcc.h **** #define LL_RCC_CIFR_HSERDYF                RCC_CIFR_HSERDYF     /*!< HSE Ready Interrupt flag */
 172:Drivers/STM32L4xx_HAL_Driver/Inc/stm32l4xx_ll_rcc.h **** #define LL_RCC_CIFR_PLLRDYF                RCC_CIFR_PLLRDYF     /*!< PLL Ready Interrupt flag */
 173:Drivers/STM32L4xx_HAL_Driver/Inc/stm32l4xx_ll_rcc.h **** #if defined(RCC_HSI48_SUPPORT)
 174:Drivers/STM32L4xx_HAL_Driver/Inc/stm32l4xx_ll_rcc.h **** #define LL_RCC_CIFR_HSI48RDYF              RCC_CIFR_HSI48RDYF   /*!< HSI48 Ready Interrupt flag */
 175:Drivers/STM32L4xx_HAL_Driver/Inc/stm32l4xx_ll_rcc.h **** #endif /* RCC_HSI48_SUPPORT */
 176:Drivers/STM32L4xx_HAL_Driver/Inc/stm32l4xx_ll_rcc.h **** #if defined(RCC_PLLSAI1_SUPPORT)
 177:Drivers/STM32L4xx_HAL_Driver/Inc/stm32l4xx_ll_rcc.h **** #define LL_RCC_CIFR_PLLSAI1RDYF            RCC_CIFR_PLLSAI1RDYF /*!< PLLSAI1 Ready Interrupt flag *
 178:Drivers/STM32L4xx_HAL_Driver/Inc/stm32l4xx_ll_rcc.h **** #endif /* RCC_PLLSAI1_SUPPORT */
 179:Drivers/STM32L4xx_HAL_Driver/Inc/stm32l4xx_ll_rcc.h **** #if defined(RCC_PLLSAI2_SUPPORT)
 180:Drivers/STM32L4xx_HAL_Driver/Inc/stm32l4xx_ll_rcc.h **** #define LL_RCC_CIFR_PLLSAI2RDYF            RCC_CIFR_PLLSAI2RDYF /*!< PLLSAI2 Ready Interrupt flag *
 181:Drivers/STM32L4xx_HAL_Driver/Inc/stm32l4xx_ll_rcc.h **** #endif /* RCC_PLLSAI2_SUPPORT */
 182:Drivers/STM32L4xx_HAL_Driver/Inc/stm32l4xx_ll_rcc.h **** #define LL_RCC_CIFR_LSECSSF                RCC_CIFR_LSECSSF     /*!< LSE Clock Security System Inte
 183:Drivers/STM32L4xx_HAL_Driver/Inc/stm32l4xx_ll_rcc.h **** #define LL_RCC_CIFR_CSSF                   RCC_CIFR_CSSF        /*!< Clock Security System Interrup
 184:Drivers/STM32L4xx_HAL_Driver/Inc/stm32l4xx_ll_rcc.h **** #define LL_RCC_CSR_FWRSTF                  RCC_CSR_FWRSTF     /*!< Firewall reset flag */
 185:Drivers/STM32L4xx_HAL_Driver/Inc/stm32l4xx_ll_rcc.h **** #define LL_RCC_CSR_LPWRRSTF                RCC_CSR_LPWRRSTF   /*!< Low-Power reset flag */
 186:Drivers/STM32L4xx_HAL_Driver/Inc/stm32l4xx_ll_rcc.h **** #define LL_RCC_CSR_OBLRSTF                 RCC_CSR_OBLRSTF    /*!< OBL reset flag */
 187:Drivers/STM32L4xx_HAL_Driver/Inc/stm32l4xx_ll_rcc.h **** #define LL_RCC_CSR_PINRSTF                 RCC_CSR_PINRSTF    /*!< PIN reset flag */
 188:Drivers/STM32L4xx_HAL_Driver/Inc/stm32l4xx_ll_rcc.h **** #define LL_RCC_CSR_SFTRSTF                 RCC_CSR_SFTRSTF    /*!< Software Reset flag */
 189:Drivers/STM32L4xx_HAL_Driver/Inc/stm32l4xx_ll_rcc.h **** #define LL_RCC_CSR_IWDGRSTF                RCC_CSR_IWDGRSTF   /*!< Independent Watchdog reset flag 
 190:Drivers/STM32L4xx_HAL_Driver/Inc/stm32l4xx_ll_rcc.h **** #define LL_RCC_CSR_WWDGRSTF                RCC_CSR_WWDGRSTF   /*!< Window watchdog reset flag */
 191:Drivers/STM32L4xx_HAL_Driver/Inc/stm32l4xx_ll_rcc.h **** #define LL_RCC_CSR_BORRSTF                 RCC_CSR_BORRSTF    /*!< BOR reset flag */
 192:Drivers/STM32L4xx_HAL_Driver/Inc/stm32l4xx_ll_rcc.h **** /**
 193:Drivers/STM32L4xx_HAL_Driver/Inc/stm32l4xx_ll_rcc.h ****   * @}
 194:Drivers/STM32L4xx_HAL_Driver/Inc/stm32l4xx_ll_rcc.h ****   */
 195:Drivers/STM32L4xx_HAL_Driver/Inc/stm32l4xx_ll_rcc.h **** 
 196:Drivers/STM32L4xx_HAL_Driver/Inc/stm32l4xx_ll_rcc.h **** /** @defgroup RCC_LL_EC_IT IT Defines
 197:Drivers/STM32L4xx_HAL_Driver/Inc/stm32l4xx_ll_rcc.h ****   * @brief    IT defines which can be used with LL_RCC_ReadReg and  LL_RCC_WriteReg functions
 198:Drivers/STM32L4xx_HAL_Driver/Inc/stm32l4xx_ll_rcc.h ****   * @{
 199:Drivers/STM32L4xx_HAL_Driver/Inc/stm32l4xx_ll_rcc.h ****   */
 200:Drivers/STM32L4xx_HAL_Driver/Inc/stm32l4xx_ll_rcc.h **** #define LL_RCC_CIER_LSIRDYIE               RCC_CIER_LSIRDYIE      /*!< LSI Ready Interrupt Enable *
 201:Drivers/STM32L4xx_HAL_Driver/Inc/stm32l4xx_ll_rcc.h **** #define LL_RCC_CIER_LSERDYIE               RCC_CIER_LSERDYIE      /*!< LSE Ready Interrupt Enable *
 202:Drivers/STM32L4xx_HAL_Driver/Inc/stm32l4xx_ll_rcc.h **** #define LL_RCC_CIER_MSIRDYIE               RCC_CIER_MSIRDYIE      /*!< MSI Ready Interrupt Enable *
 203:Drivers/STM32L4xx_HAL_Driver/Inc/stm32l4xx_ll_rcc.h **** #define LL_RCC_CIER_HSIRDYIE               RCC_CIER_HSIRDYIE      /*!< HSI Ready Interrupt Enable *
 204:Drivers/STM32L4xx_HAL_Driver/Inc/stm32l4xx_ll_rcc.h **** #define LL_RCC_CIER_HSERDYIE               RCC_CIER_HSERDYIE      /*!< HSE Ready Interrupt Enable *
 205:Drivers/STM32L4xx_HAL_Driver/Inc/stm32l4xx_ll_rcc.h **** #define LL_RCC_CIER_PLLRDYIE               RCC_CIER_PLLRDYIE      /*!< PLL Ready Interrupt Enable *
 206:Drivers/STM32L4xx_HAL_Driver/Inc/stm32l4xx_ll_rcc.h **** #if defined(RCC_HSI48_SUPPORT)
 207:Drivers/STM32L4xx_HAL_Driver/Inc/stm32l4xx_ll_rcc.h **** #define LL_RCC_CIER_HSI48RDYIE             RCC_CIER_HSI48RDYIE    /*!< HSI48 Ready Interrupt Enable
 208:Drivers/STM32L4xx_HAL_Driver/Inc/stm32l4xx_ll_rcc.h **** #endif /* RCC_HSI48_SUPPORT */
 209:Drivers/STM32L4xx_HAL_Driver/Inc/stm32l4xx_ll_rcc.h **** #if defined(RCC_PLLSAI1_SUPPORT)
 210:Drivers/STM32L4xx_HAL_Driver/Inc/stm32l4xx_ll_rcc.h **** #define LL_RCC_CIER_PLLSAI1RDYIE           RCC_CIER_PLLSAI1RDYIE  /*!< PLLSAI1 Ready Interrupt Enab
 211:Drivers/STM32L4xx_HAL_Driver/Inc/stm32l4xx_ll_rcc.h **** #endif /* RCC_PLLSAI1_SUPPORT */
 212:Drivers/STM32L4xx_HAL_Driver/Inc/stm32l4xx_ll_rcc.h **** #if defined(RCC_PLLSAI2_SUPPORT)
ARM GAS  C:\Temp\ccAfawe4.s 			page 9


 213:Drivers/STM32L4xx_HAL_Driver/Inc/stm32l4xx_ll_rcc.h **** #define LL_RCC_CIER_PLLSAI2RDYIE           RCC_CIER_PLLSAI2RDYIE  /*!< PLLSAI2 Ready Interrupt Enab
 214:Drivers/STM32L4xx_HAL_Driver/Inc/stm32l4xx_ll_rcc.h **** #endif /* RCC_PLLSAI2_SUPPORT */
 215:Drivers/STM32L4xx_HAL_Driver/Inc/stm32l4xx_ll_rcc.h **** #define LL_RCC_CIER_LSECSSIE               RCC_CIER_LSECSSIE      /*!< LSE CSS Interrupt Enable */
 216:Drivers/STM32L4xx_HAL_Driver/Inc/stm32l4xx_ll_rcc.h **** /**
 217:Drivers/STM32L4xx_HAL_Driver/Inc/stm32l4xx_ll_rcc.h ****   * @}
 218:Drivers/STM32L4xx_HAL_Driver/Inc/stm32l4xx_ll_rcc.h ****   */
 219:Drivers/STM32L4xx_HAL_Driver/Inc/stm32l4xx_ll_rcc.h **** 
 220:Drivers/STM32L4xx_HAL_Driver/Inc/stm32l4xx_ll_rcc.h **** /** @defgroup RCC_LL_EC_LSEDRIVE  LSE oscillator drive capability
 221:Drivers/STM32L4xx_HAL_Driver/Inc/stm32l4xx_ll_rcc.h ****   * @{
 222:Drivers/STM32L4xx_HAL_Driver/Inc/stm32l4xx_ll_rcc.h ****   */
 223:Drivers/STM32L4xx_HAL_Driver/Inc/stm32l4xx_ll_rcc.h **** #define LL_RCC_LSEDRIVE_LOW                0x00000000U             /*!< Xtal mode lower driving cap
 224:Drivers/STM32L4xx_HAL_Driver/Inc/stm32l4xx_ll_rcc.h **** #define LL_RCC_LSEDRIVE_MEDIUMLOW          RCC_BDCR_LSEDRV_0       /*!< Xtal mode medium low drivin
 225:Drivers/STM32L4xx_HAL_Driver/Inc/stm32l4xx_ll_rcc.h **** #define LL_RCC_LSEDRIVE_MEDIUMHIGH         RCC_BDCR_LSEDRV_1       /*!< Xtal mode medium high drivi
 226:Drivers/STM32L4xx_HAL_Driver/Inc/stm32l4xx_ll_rcc.h **** #define LL_RCC_LSEDRIVE_HIGH               RCC_BDCR_LSEDRV         /*!< Xtal mode higher driving ca
 227:Drivers/STM32L4xx_HAL_Driver/Inc/stm32l4xx_ll_rcc.h **** /**
 228:Drivers/STM32L4xx_HAL_Driver/Inc/stm32l4xx_ll_rcc.h ****   * @}
 229:Drivers/STM32L4xx_HAL_Driver/Inc/stm32l4xx_ll_rcc.h ****   */
 230:Drivers/STM32L4xx_HAL_Driver/Inc/stm32l4xx_ll_rcc.h **** 
 231:Drivers/STM32L4xx_HAL_Driver/Inc/stm32l4xx_ll_rcc.h **** /** @defgroup RCC_LL_EC_MSIRANGE  MSI clock ranges
 232:Drivers/STM32L4xx_HAL_Driver/Inc/stm32l4xx_ll_rcc.h ****   * @{
 233:Drivers/STM32L4xx_HAL_Driver/Inc/stm32l4xx_ll_rcc.h ****   */
 234:Drivers/STM32L4xx_HAL_Driver/Inc/stm32l4xx_ll_rcc.h **** #define LL_RCC_MSIRANGE_0                  RCC_CR_MSIRANGE_0  /*!< MSI = 100 KHz  */
 235:Drivers/STM32L4xx_HAL_Driver/Inc/stm32l4xx_ll_rcc.h **** #define LL_RCC_MSIRANGE_1                  RCC_CR_MSIRANGE_1  /*!< MSI = 200 KHz  */
 236:Drivers/STM32L4xx_HAL_Driver/Inc/stm32l4xx_ll_rcc.h **** #define LL_RCC_MSIRANGE_2                  RCC_CR_MSIRANGE_2  /*!< MSI = 400 KHz  */
 237:Drivers/STM32L4xx_HAL_Driver/Inc/stm32l4xx_ll_rcc.h **** #define LL_RCC_MSIRANGE_3                  RCC_CR_MSIRANGE_3  /*!< MSI = 800 KHz  */
 238:Drivers/STM32L4xx_HAL_Driver/Inc/stm32l4xx_ll_rcc.h **** #define LL_RCC_MSIRANGE_4                  RCC_CR_MSIRANGE_4  /*!< MSI = 1 MHz    */
 239:Drivers/STM32L4xx_HAL_Driver/Inc/stm32l4xx_ll_rcc.h **** #define LL_RCC_MSIRANGE_5                  RCC_CR_MSIRANGE_5  /*!< MSI = 2 MHz    */
 240:Drivers/STM32L4xx_HAL_Driver/Inc/stm32l4xx_ll_rcc.h **** #define LL_RCC_MSIRANGE_6                  RCC_CR_MSIRANGE_6  /*!< MSI = 4 MHz    */
 241:Drivers/STM32L4xx_HAL_Driver/Inc/stm32l4xx_ll_rcc.h **** #define LL_RCC_MSIRANGE_7                  RCC_CR_MSIRANGE_7  /*!< MSI = 8 MHz    */
 242:Drivers/STM32L4xx_HAL_Driver/Inc/stm32l4xx_ll_rcc.h **** #define LL_RCC_MSIRANGE_8                  RCC_CR_MSIRANGE_8  /*!< MSI = 16 MHz   */
 243:Drivers/STM32L4xx_HAL_Driver/Inc/stm32l4xx_ll_rcc.h **** #define LL_RCC_MSIRANGE_9                  RCC_CR_MSIRANGE_9  /*!< MSI = 24 MHz   */
 244:Drivers/STM32L4xx_HAL_Driver/Inc/stm32l4xx_ll_rcc.h **** #define LL_RCC_MSIRANGE_10                 RCC_CR_MSIRANGE_10 /*!< MSI = 32 MHz   */
 245:Drivers/STM32L4xx_HAL_Driver/Inc/stm32l4xx_ll_rcc.h **** #define LL_RCC_MSIRANGE_11                 RCC_CR_MSIRANGE_11 /*!< MSI = 48 MHz   */
 246:Drivers/STM32L4xx_HAL_Driver/Inc/stm32l4xx_ll_rcc.h **** /**
 247:Drivers/STM32L4xx_HAL_Driver/Inc/stm32l4xx_ll_rcc.h ****   * @}
 248:Drivers/STM32L4xx_HAL_Driver/Inc/stm32l4xx_ll_rcc.h ****   */
 249:Drivers/STM32L4xx_HAL_Driver/Inc/stm32l4xx_ll_rcc.h **** 
 250:Drivers/STM32L4xx_HAL_Driver/Inc/stm32l4xx_ll_rcc.h **** /** @defgroup RCC_LL_EC_MSISRANGE  MSI range after Standby mode
 251:Drivers/STM32L4xx_HAL_Driver/Inc/stm32l4xx_ll_rcc.h ****   * @{
 252:Drivers/STM32L4xx_HAL_Driver/Inc/stm32l4xx_ll_rcc.h ****   */
 253:Drivers/STM32L4xx_HAL_Driver/Inc/stm32l4xx_ll_rcc.h **** #define LL_RCC_MSISRANGE_4                 RCC_CSR_MSISRANGE_1  /*!< MSI = 1 MHz    */
 254:Drivers/STM32L4xx_HAL_Driver/Inc/stm32l4xx_ll_rcc.h **** #define LL_RCC_MSISRANGE_5                 RCC_CSR_MSISRANGE_2  /*!< MSI = 2 MHz    */
 255:Drivers/STM32L4xx_HAL_Driver/Inc/stm32l4xx_ll_rcc.h **** #define LL_RCC_MSISRANGE_6                 RCC_CSR_MSISRANGE_4  /*!< MSI = 4 MHz    */
 256:Drivers/STM32L4xx_HAL_Driver/Inc/stm32l4xx_ll_rcc.h **** #define LL_RCC_MSISRANGE_7                 RCC_CSR_MSISRANGE_8  /*!< MSI = 8 MHz    */
 257:Drivers/STM32L4xx_HAL_Driver/Inc/stm32l4xx_ll_rcc.h **** /**
 258:Drivers/STM32L4xx_HAL_Driver/Inc/stm32l4xx_ll_rcc.h ****   * @}
 259:Drivers/STM32L4xx_HAL_Driver/Inc/stm32l4xx_ll_rcc.h ****   */
 260:Drivers/STM32L4xx_HAL_Driver/Inc/stm32l4xx_ll_rcc.h **** 
 261:Drivers/STM32L4xx_HAL_Driver/Inc/stm32l4xx_ll_rcc.h **** /** @defgroup RCC_LL_EC_LSCO_CLKSOURCE  LSCO Selection
 262:Drivers/STM32L4xx_HAL_Driver/Inc/stm32l4xx_ll_rcc.h ****   * @{
 263:Drivers/STM32L4xx_HAL_Driver/Inc/stm32l4xx_ll_rcc.h ****   */
 264:Drivers/STM32L4xx_HAL_Driver/Inc/stm32l4xx_ll_rcc.h **** #define LL_RCC_LSCO_CLKSOURCE_LSI          0x00000000U                 /*!< LSI selection for low s
 265:Drivers/STM32L4xx_HAL_Driver/Inc/stm32l4xx_ll_rcc.h **** #define LL_RCC_LSCO_CLKSOURCE_LSE          RCC_BDCR_LSCOSEL      /*!< LSE selection for low speed c
 266:Drivers/STM32L4xx_HAL_Driver/Inc/stm32l4xx_ll_rcc.h **** /**
 267:Drivers/STM32L4xx_HAL_Driver/Inc/stm32l4xx_ll_rcc.h ****   * @}
 268:Drivers/STM32L4xx_HAL_Driver/Inc/stm32l4xx_ll_rcc.h ****   */
 269:Drivers/STM32L4xx_HAL_Driver/Inc/stm32l4xx_ll_rcc.h **** 
ARM GAS  C:\Temp\ccAfawe4.s 			page 10


 270:Drivers/STM32L4xx_HAL_Driver/Inc/stm32l4xx_ll_rcc.h **** /** @defgroup RCC_LL_EC_SYS_CLKSOURCE  System clock switch
 271:Drivers/STM32L4xx_HAL_Driver/Inc/stm32l4xx_ll_rcc.h ****   * @{
 272:Drivers/STM32L4xx_HAL_Driver/Inc/stm32l4xx_ll_rcc.h ****   */
 273:Drivers/STM32L4xx_HAL_Driver/Inc/stm32l4xx_ll_rcc.h **** #define LL_RCC_SYS_CLKSOURCE_MSI           RCC_CFGR_SW_MSI    /*!< MSI selection as system clock */
 274:Drivers/STM32L4xx_HAL_Driver/Inc/stm32l4xx_ll_rcc.h **** #define LL_RCC_SYS_CLKSOURCE_HSI           RCC_CFGR_SW_HSI    /*!< HSI selection as system clock */
 275:Drivers/STM32L4xx_HAL_Driver/Inc/stm32l4xx_ll_rcc.h **** #define LL_RCC_SYS_CLKSOURCE_HSE           RCC_CFGR_SW_HSE    /*!< HSE selection as system clock */
 276:Drivers/STM32L4xx_HAL_Driver/Inc/stm32l4xx_ll_rcc.h **** #define LL_RCC_SYS_CLKSOURCE_PLL           RCC_CFGR_SW_PLL    /*!< PLL selection as system clock */
 277:Drivers/STM32L4xx_HAL_Driver/Inc/stm32l4xx_ll_rcc.h **** /**
 278:Drivers/STM32L4xx_HAL_Driver/Inc/stm32l4xx_ll_rcc.h ****   * @}
 279:Drivers/STM32L4xx_HAL_Driver/Inc/stm32l4xx_ll_rcc.h ****   */
 280:Drivers/STM32L4xx_HAL_Driver/Inc/stm32l4xx_ll_rcc.h **** 
 281:Drivers/STM32L4xx_HAL_Driver/Inc/stm32l4xx_ll_rcc.h **** /** @defgroup RCC_LL_EC_SYS_CLKSOURCE_STATUS  System clock switch status
 282:Drivers/STM32L4xx_HAL_Driver/Inc/stm32l4xx_ll_rcc.h ****   * @{
 283:Drivers/STM32L4xx_HAL_Driver/Inc/stm32l4xx_ll_rcc.h ****   */
 284:Drivers/STM32L4xx_HAL_Driver/Inc/stm32l4xx_ll_rcc.h **** #define LL_RCC_SYS_CLKSOURCE_STATUS_MSI    RCC_CFGR_SWS_MSI   /*!< MSI used as system clock */
 285:Drivers/STM32L4xx_HAL_Driver/Inc/stm32l4xx_ll_rcc.h **** #define LL_RCC_SYS_CLKSOURCE_STATUS_HSI    RCC_CFGR_SWS_HSI   /*!< HSI used as system clock */
 286:Drivers/STM32L4xx_HAL_Driver/Inc/stm32l4xx_ll_rcc.h **** #define LL_RCC_SYS_CLKSOURCE_STATUS_HSE    RCC_CFGR_SWS_HSE   /*!< HSE used as system clock */
 287:Drivers/STM32L4xx_HAL_Driver/Inc/stm32l4xx_ll_rcc.h **** #define LL_RCC_SYS_CLKSOURCE_STATUS_PLL    RCC_CFGR_SWS_PLL   /*!< PLL used as system clock */
 288:Drivers/STM32L4xx_HAL_Driver/Inc/stm32l4xx_ll_rcc.h **** /**
 289:Drivers/STM32L4xx_HAL_Driver/Inc/stm32l4xx_ll_rcc.h ****   * @}
 290:Drivers/STM32L4xx_HAL_Driver/Inc/stm32l4xx_ll_rcc.h ****   */
 291:Drivers/STM32L4xx_HAL_Driver/Inc/stm32l4xx_ll_rcc.h **** 
 292:Drivers/STM32L4xx_HAL_Driver/Inc/stm32l4xx_ll_rcc.h **** /** @defgroup RCC_LL_EC_SYSCLK_DIV  AHB prescaler
 293:Drivers/STM32L4xx_HAL_Driver/Inc/stm32l4xx_ll_rcc.h ****   * @{
 294:Drivers/STM32L4xx_HAL_Driver/Inc/stm32l4xx_ll_rcc.h ****   */
 295:Drivers/STM32L4xx_HAL_Driver/Inc/stm32l4xx_ll_rcc.h **** #define LL_RCC_SYSCLK_DIV_1                RCC_CFGR_HPRE_DIV1   /*!< SYSCLK not divided */
 296:Drivers/STM32L4xx_HAL_Driver/Inc/stm32l4xx_ll_rcc.h **** #define LL_RCC_SYSCLK_DIV_2                RCC_CFGR_HPRE_DIV2   /*!< SYSCLK divided by 2 */
 297:Drivers/STM32L4xx_HAL_Driver/Inc/stm32l4xx_ll_rcc.h **** #define LL_RCC_SYSCLK_DIV_4                RCC_CFGR_HPRE_DIV4   /*!< SYSCLK divided by 4 */
 298:Drivers/STM32L4xx_HAL_Driver/Inc/stm32l4xx_ll_rcc.h **** #define LL_RCC_SYSCLK_DIV_8                RCC_CFGR_HPRE_DIV8   /*!< SYSCLK divided by 8 */
 299:Drivers/STM32L4xx_HAL_Driver/Inc/stm32l4xx_ll_rcc.h **** #define LL_RCC_SYSCLK_DIV_16               RCC_CFGR_HPRE_DIV16  /*!< SYSCLK divided by 16 */
 300:Drivers/STM32L4xx_HAL_Driver/Inc/stm32l4xx_ll_rcc.h **** #define LL_RCC_SYSCLK_DIV_64               RCC_CFGR_HPRE_DIV64  /*!< SYSCLK divided by 64 */
 301:Drivers/STM32L4xx_HAL_Driver/Inc/stm32l4xx_ll_rcc.h **** #define LL_RCC_SYSCLK_DIV_128              RCC_CFGR_HPRE_DIV128 /*!< SYSCLK divided by 128 */
 302:Drivers/STM32L4xx_HAL_Driver/Inc/stm32l4xx_ll_rcc.h **** #define LL_RCC_SYSCLK_DIV_256              RCC_CFGR_HPRE_DIV256 /*!< SYSCLK divided by 256 */
 303:Drivers/STM32L4xx_HAL_Driver/Inc/stm32l4xx_ll_rcc.h **** #define LL_RCC_SYSCLK_DIV_512              RCC_CFGR_HPRE_DIV512 /*!< SYSCLK divided by 512 */
 304:Drivers/STM32L4xx_HAL_Driver/Inc/stm32l4xx_ll_rcc.h **** /**
 305:Drivers/STM32L4xx_HAL_Driver/Inc/stm32l4xx_ll_rcc.h ****   * @}
 306:Drivers/STM32L4xx_HAL_Driver/Inc/stm32l4xx_ll_rcc.h ****   */
 307:Drivers/STM32L4xx_HAL_Driver/Inc/stm32l4xx_ll_rcc.h **** 
 308:Drivers/STM32L4xx_HAL_Driver/Inc/stm32l4xx_ll_rcc.h **** /** @defgroup RCC_LL_EC_APB1_DIV  APB low-speed prescaler (APB1)
 309:Drivers/STM32L4xx_HAL_Driver/Inc/stm32l4xx_ll_rcc.h ****   * @{
 310:Drivers/STM32L4xx_HAL_Driver/Inc/stm32l4xx_ll_rcc.h ****   */
 311:Drivers/STM32L4xx_HAL_Driver/Inc/stm32l4xx_ll_rcc.h **** #define LL_RCC_APB1_DIV_1                  RCC_CFGR_PPRE1_DIV1  /*!< HCLK not divided */
 312:Drivers/STM32L4xx_HAL_Driver/Inc/stm32l4xx_ll_rcc.h **** #define LL_RCC_APB1_DIV_2                  RCC_CFGR_PPRE1_DIV2  /*!< HCLK divided by 2 */
 313:Drivers/STM32L4xx_HAL_Driver/Inc/stm32l4xx_ll_rcc.h **** #define LL_RCC_APB1_DIV_4                  RCC_CFGR_PPRE1_DIV4  /*!< HCLK divided by 4 */
 314:Drivers/STM32L4xx_HAL_Driver/Inc/stm32l4xx_ll_rcc.h **** #define LL_RCC_APB1_DIV_8                  RCC_CFGR_PPRE1_DIV8  /*!< HCLK divided by 8 */
 315:Drivers/STM32L4xx_HAL_Driver/Inc/stm32l4xx_ll_rcc.h **** #define LL_RCC_APB1_DIV_16                 RCC_CFGR_PPRE1_DIV16 /*!< HCLK divided by 16 */
 316:Drivers/STM32L4xx_HAL_Driver/Inc/stm32l4xx_ll_rcc.h **** /**
 317:Drivers/STM32L4xx_HAL_Driver/Inc/stm32l4xx_ll_rcc.h ****   * @}
 318:Drivers/STM32L4xx_HAL_Driver/Inc/stm32l4xx_ll_rcc.h ****   */
 319:Drivers/STM32L4xx_HAL_Driver/Inc/stm32l4xx_ll_rcc.h **** 
 320:Drivers/STM32L4xx_HAL_Driver/Inc/stm32l4xx_ll_rcc.h **** /** @defgroup RCC_LL_EC_APB2_DIV  APB high-speed prescaler (APB2)
 321:Drivers/STM32L4xx_HAL_Driver/Inc/stm32l4xx_ll_rcc.h ****   * @{
 322:Drivers/STM32L4xx_HAL_Driver/Inc/stm32l4xx_ll_rcc.h ****   */
 323:Drivers/STM32L4xx_HAL_Driver/Inc/stm32l4xx_ll_rcc.h **** #define LL_RCC_APB2_DIV_1                  RCC_CFGR_PPRE2_DIV1  /*!< HCLK not divided */
 324:Drivers/STM32L4xx_HAL_Driver/Inc/stm32l4xx_ll_rcc.h **** #define LL_RCC_APB2_DIV_2                  RCC_CFGR_PPRE2_DIV2  /*!< HCLK divided by 2 */
 325:Drivers/STM32L4xx_HAL_Driver/Inc/stm32l4xx_ll_rcc.h **** #define LL_RCC_APB2_DIV_4                  RCC_CFGR_PPRE2_DIV4  /*!< HCLK divided by 4 */
 326:Drivers/STM32L4xx_HAL_Driver/Inc/stm32l4xx_ll_rcc.h **** #define LL_RCC_APB2_DIV_8                  RCC_CFGR_PPRE2_DIV8  /*!< HCLK divided by 8 */
ARM GAS  C:\Temp\ccAfawe4.s 			page 11


 327:Drivers/STM32L4xx_HAL_Driver/Inc/stm32l4xx_ll_rcc.h **** #define LL_RCC_APB2_DIV_16                 RCC_CFGR_PPRE2_DIV16 /*!< HCLK divided by 16 */
 328:Drivers/STM32L4xx_HAL_Driver/Inc/stm32l4xx_ll_rcc.h **** /**
 329:Drivers/STM32L4xx_HAL_Driver/Inc/stm32l4xx_ll_rcc.h ****   * @}
 330:Drivers/STM32L4xx_HAL_Driver/Inc/stm32l4xx_ll_rcc.h ****   */
 331:Drivers/STM32L4xx_HAL_Driver/Inc/stm32l4xx_ll_rcc.h **** 
 332:Drivers/STM32L4xx_HAL_Driver/Inc/stm32l4xx_ll_rcc.h **** /** @defgroup RCC_LL_EC_STOP_WAKEUPCLOCK  Wakeup from Stop and CSS backup clock selection
 333:Drivers/STM32L4xx_HAL_Driver/Inc/stm32l4xx_ll_rcc.h ****   * @{
 334:Drivers/STM32L4xx_HAL_Driver/Inc/stm32l4xx_ll_rcc.h ****   */
 335:Drivers/STM32L4xx_HAL_Driver/Inc/stm32l4xx_ll_rcc.h **** #define LL_RCC_STOP_WAKEUPCLOCK_MSI        0x00000000U             /*!< MSI selection after wake-up
 336:Drivers/STM32L4xx_HAL_Driver/Inc/stm32l4xx_ll_rcc.h **** #define LL_RCC_STOP_WAKEUPCLOCK_HSI        RCC_CFGR_STOPWUCK       /*!< HSI selection after wake-up
 337:Drivers/STM32L4xx_HAL_Driver/Inc/stm32l4xx_ll_rcc.h **** /**
 338:Drivers/STM32L4xx_HAL_Driver/Inc/stm32l4xx_ll_rcc.h ****   * @}
 339:Drivers/STM32L4xx_HAL_Driver/Inc/stm32l4xx_ll_rcc.h ****   */
 340:Drivers/STM32L4xx_HAL_Driver/Inc/stm32l4xx_ll_rcc.h **** 
 341:Drivers/STM32L4xx_HAL_Driver/Inc/stm32l4xx_ll_rcc.h **** /** @defgroup RCC_LL_EC_MCO1SOURCE  MCO1 SOURCE selection
 342:Drivers/STM32L4xx_HAL_Driver/Inc/stm32l4xx_ll_rcc.h ****   * @{
 343:Drivers/STM32L4xx_HAL_Driver/Inc/stm32l4xx_ll_rcc.h ****   */
 344:Drivers/STM32L4xx_HAL_Driver/Inc/stm32l4xx_ll_rcc.h **** #define LL_RCC_MCO1SOURCE_NOCLOCK          0x00000000U                            /*!< MCO output d
 345:Drivers/STM32L4xx_HAL_Driver/Inc/stm32l4xx_ll_rcc.h **** #define LL_RCC_MCO1SOURCE_SYSCLK           RCC_CFGR_MCOSEL_0                      /*!< SYSCLK selec
 346:Drivers/STM32L4xx_HAL_Driver/Inc/stm32l4xx_ll_rcc.h **** #define LL_RCC_MCO1SOURCE_MSI              RCC_CFGR_MCOSEL_1                      /*!< MSI selectio
 347:Drivers/STM32L4xx_HAL_Driver/Inc/stm32l4xx_ll_rcc.h **** #define LL_RCC_MCO1SOURCE_HSI              (RCC_CFGR_MCOSEL_0| RCC_CFGR_MCOSEL_1) /*!< HSI16 select
 348:Drivers/STM32L4xx_HAL_Driver/Inc/stm32l4xx_ll_rcc.h **** #define LL_RCC_MCO1SOURCE_HSE              RCC_CFGR_MCOSEL_2                      /*!< HSE selectio
 349:Drivers/STM32L4xx_HAL_Driver/Inc/stm32l4xx_ll_rcc.h **** #define LL_RCC_MCO1SOURCE_PLLCLK           (RCC_CFGR_MCOSEL_0|RCC_CFGR_MCOSEL_2)  /*!< Main PLL sel
 350:Drivers/STM32L4xx_HAL_Driver/Inc/stm32l4xx_ll_rcc.h **** #define LL_RCC_MCO1SOURCE_LSI              (RCC_CFGR_MCOSEL_1|RCC_CFGR_MCOSEL_2)  /*!< LSI selectio
 351:Drivers/STM32L4xx_HAL_Driver/Inc/stm32l4xx_ll_rcc.h **** #define LL_RCC_MCO1SOURCE_LSE              (RCC_CFGR_MCOSEL_0|RCC_CFGR_MCOSEL_1|RCC_CFGR_MCOSEL_2) 
 352:Drivers/STM32L4xx_HAL_Driver/Inc/stm32l4xx_ll_rcc.h **** #if defined(RCC_HSI48_SUPPORT)
 353:Drivers/STM32L4xx_HAL_Driver/Inc/stm32l4xx_ll_rcc.h **** #define LL_RCC_MCO1SOURCE_HSI48            RCC_CFGR_MCOSEL_3                      /*!< HSI48 select
 354:Drivers/STM32L4xx_HAL_Driver/Inc/stm32l4xx_ll_rcc.h **** #endif /* RCC_HSI48_SUPPORT */
 355:Drivers/STM32L4xx_HAL_Driver/Inc/stm32l4xx_ll_rcc.h **** /**
 356:Drivers/STM32L4xx_HAL_Driver/Inc/stm32l4xx_ll_rcc.h ****   * @}
 357:Drivers/STM32L4xx_HAL_Driver/Inc/stm32l4xx_ll_rcc.h ****   */
 358:Drivers/STM32L4xx_HAL_Driver/Inc/stm32l4xx_ll_rcc.h **** 
 359:Drivers/STM32L4xx_HAL_Driver/Inc/stm32l4xx_ll_rcc.h **** /** @defgroup RCC_LL_EC_MCO1_DIV  MCO1 prescaler
 360:Drivers/STM32L4xx_HAL_Driver/Inc/stm32l4xx_ll_rcc.h ****   * @{
 361:Drivers/STM32L4xx_HAL_Driver/Inc/stm32l4xx_ll_rcc.h ****   */
 362:Drivers/STM32L4xx_HAL_Driver/Inc/stm32l4xx_ll_rcc.h **** #define LL_RCC_MCO1_DIV_1                  RCC_CFGR_MCOPRE_DIV1       /*!< MCO not divided */
 363:Drivers/STM32L4xx_HAL_Driver/Inc/stm32l4xx_ll_rcc.h **** #define LL_RCC_MCO1_DIV_2                  RCC_CFGR_MCOPRE_DIV2       /*!< MCO divided by 2 */
 364:Drivers/STM32L4xx_HAL_Driver/Inc/stm32l4xx_ll_rcc.h **** #define LL_RCC_MCO1_DIV_4                  RCC_CFGR_MCOPRE_DIV4       /*!< MCO divided by 4 */
 365:Drivers/STM32L4xx_HAL_Driver/Inc/stm32l4xx_ll_rcc.h **** #define LL_RCC_MCO1_DIV_8                  RCC_CFGR_MCOPRE_DIV8       /*!< MCO divided by 8 */
 366:Drivers/STM32L4xx_HAL_Driver/Inc/stm32l4xx_ll_rcc.h **** #define LL_RCC_MCO1_DIV_16                 RCC_CFGR_MCOPRE_DIV16      /*!< MCO divided by 16 */
 367:Drivers/STM32L4xx_HAL_Driver/Inc/stm32l4xx_ll_rcc.h **** /**
 368:Drivers/STM32L4xx_HAL_Driver/Inc/stm32l4xx_ll_rcc.h ****   * @}
 369:Drivers/STM32L4xx_HAL_Driver/Inc/stm32l4xx_ll_rcc.h ****   */
 370:Drivers/STM32L4xx_HAL_Driver/Inc/stm32l4xx_ll_rcc.h **** 
 371:Drivers/STM32L4xx_HAL_Driver/Inc/stm32l4xx_ll_rcc.h **** #if defined(USE_FULL_LL_DRIVER)
 372:Drivers/STM32L4xx_HAL_Driver/Inc/stm32l4xx_ll_rcc.h **** /** @defgroup RCC_LL_EC_PERIPH_FREQUENCY Peripheral clock frequency
 373:Drivers/STM32L4xx_HAL_Driver/Inc/stm32l4xx_ll_rcc.h ****   * @{
 374:Drivers/STM32L4xx_HAL_Driver/Inc/stm32l4xx_ll_rcc.h ****   */
 375:Drivers/STM32L4xx_HAL_Driver/Inc/stm32l4xx_ll_rcc.h **** #define LL_RCC_PERIPH_FREQUENCY_NO         0x00000000U                 /*!< No clock enabled for th
 376:Drivers/STM32L4xx_HAL_Driver/Inc/stm32l4xx_ll_rcc.h **** #define LL_RCC_PERIPH_FREQUENCY_NA         0xFFFFFFFFU                 /*!< Frequency cannot be pro
 377:Drivers/STM32L4xx_HAL_Driver/Inc/stm32l4xx_ll_rcc.h **** /**
 378:Drivers/STM32L4xx_HAL_Driver/Inc/stm32l4xx_ll_rcc.h ****   * @}
 379:Drivers/STM32L4xx_HAL_Driver/Inc/stm32l4xx_ll_rcc.h ****   */
 380:Drivers/STM32L4xx_HAL_Driver/Inc/stm32l4xx_ll_rcc.h **** #endif /* USE_FULL_LL_DRIVER */
 381:Drivers/STM32L4xx_HAL_Driver/Inc/stm32l4xx_ll_rcc.h **** 
 382:Drivers/STM32L4xx_HAL_Driver/Inc/stm32l4xx_ll_rcc.h **** /** @defgroup RCC_LL_EC_USART1_CLKSOURCE  Peripheral USART clock source selection
 383:Drivers/STM32L4xx_HAL_Driver/Inc/stm32l4xx_ll_rcc.h ****   * @{
ARM GAS  C:\Temp\ccAfawe4.s 			page 12


 384:Drivers/STM32L4xx_HAL_Driver/Inc/stm32l4xx_ll_rcc.h ****   */
 385:Drivers/STM32L4xx_HAL_Driver/Inc/stm32l4xx_ll_rcc.h **** #define LL_RCC_USART1_CLKSOURCE_PCLK2      (RCC_CCIPR_USART1SEL << 16U)                           /
 386:Drivers/STM32L4xx_HAL_Driver/Inc/stm32l4xx_ll_rcc.h **** #define LL_RCC_USART1_CLKSOURCE_SYSCLK     ((RCC_CCIPR_USART1SEL << 16U) | RCC_CCIPR_USART1SEL_0) /
 387:Drivers/STM32L4xx_HAL_Driver/Inc/stm32l4xx_ll_rcc.h **** #define LL_RCC_USART1_CLKSOURCE_HSI        ((RCC_CCIPR_USART1SEL << 16U) | RCC_CCIPR_USART1SEL_1) /
 388:Drivers/STM32L4xx_HAL_Driver/Inc/stm32l4xx_ll_rcc.h **** #define LL_RCC_USART1_CLKSOURCE_LSE        ((RCC_CCIPR_USART1SEL << 16U) | RCC_CCIPR_USART1SEL)   /
 389:Drivers/STM32L4xx_HAL_Driver/Inc/stm32l4xx_ll_rcc.h **** #define LL_RCC_USART2_CLKSOURCE_PCLK1      (RCC_CCIPR_USART2SEL << 16U)                           /
 390:Drivers/STM32L4xx_HAL_Driver/Inc/stm32l4xx_ll_rcc.h **** #define LL_RCC_USART2_CLKSOURCE_SYSCLK     ((RCC_CCIPR_USART2SEL << 16U) | RCC_CCIPR_USART2SEL_0) /
 391:Drivers/STM32L4xx_HAL_Driver/Inc/stm32l4xx_ll_rcc.h **** #define LL_RCC_USART2_CLKSOURCE_HSI        ((RCC_CCIPR_USART2SEL << 16U) | RCC_CCIPR_USART2SEL_1) /
 392:Drivers/STM32L4xx_HAL_Driver/Inc/stm32l4xx_ll_rcc.h **** #define LL_RCC_USART2_CLKSOURCE_LSE        ((RCC_CCIPR_USART2SEL << 16U) | RCC_CCIPR_USART2SEL)   /
 393:Drivers/STM32L4xx_HAL_Driver/Inc/stm32l4xx_ll_rcc.h **** #if defined(RCC_CCIPR_USART3SEL)
 394:Drivers/STM32L4xx_HAL_Driver/Inc/stm32l4xx_ll_rcc.h **** #define LL_RCC_USART3_CLKSOURCE_PCLK1      (RCC_CCIPR_USART3SEL << 16U)                           /
 395:Drivers/STM32L4xx_HAL_Driver/Inc/stm32l4xx_ll_rcc.h **** #define LL_RCC_USART3_CLKSOURCE_SYSCLK     ((RCC_CCIPR_USART3SEL << 16U) | RCC_CCIPR_USART3SEL_0) /
 396:Drivers/STM32L4xx_HAL_Driver/Inc/stm32l4xx_ll_rcc.h **** #define LL_RCC_USART3_CLKSOURCE_HSI        ((RCC_CCIPR_USART3SEL << 16U) | RCC_CCIPR_USART3SEL_1) /
 397:Drivers/STM32L4xx_HAL_Driver/Inc/stm32l4xx_ll_rcc.h **** #define LL_RCC_USART3_CLKSOURCE_LSE        ((RCC_CCIPR_USART3SEL << 16U) | RCC_CCIPR_USART3SEL)   /
 398:Drivers/STM32L4xx_HAL_Driver/Inc/stm32l4xx_ll_rcc.h **** #endif /* RCC_CCIPR_USART3SEL */
 399:Drivers/STM32L4xx_HAL_Driver/Inc/stm32l4xx_ll_rcc.h **** /**
 400:Drivers/STM32L4xx_HAL_Driver/Inc/stm32l4xx_ll_rcc.h ****   * @}
 401:Drivers/STM32L4xx_HAL_Driver/Inc/stm32l4xx_ll_rcc.h ****   */
 402:Drivers/STM32L4xx_HAL_Driver/Inc/stm32l4xx_ll_rcc.h **** 
 403:Drivers/STM32L4xx_HAL_Driver/Inc/stm32l4xx_ll_rcc.h **** #if defined(RCC_CCIPR_UART4SEL) || defined(RCC_CCIPR_UART5SEL)
 404:Drivers/STM32L4xx_HAL_Driver/Inc/stm32l4xx_ll_rcc.h **** /** @defgroup RCC_LL_EC_UART4_CLKSOURCE  Peripheral UART clock source selection
 405:Drivers/STM32L4xx_HAL_Driver/Inc/stm32l4xx_ll_rcc.h ****   * @{
 406:Drivers/STM32L4xx_HAL_Driver/Inc/stm32l4xx_ll_rcc.h ****   */
 407:Drivers/STM32L4xx_HAL_Driver/Inc/stm32l4xx_ll_rcc.h **** #if defined(RCC_CCIPR_UART4SEL)
 408:Drivers/STM32L4xx_HAL_Driver/Inc/stm32l4xx_ll_rcc.h **** #define LL_RCC_UART4_CLKSOURCE_PCLK1       (RCC_CCIPR_UART4SEL << 16U)                           /*
 409:Drivers/STM32L4xx_HAL_Driver/Inc/stm32l4xx_ll_rcc.h **** #define LL_RCC_UART4_CLKSOURCE_SYSCLK      ((RCC_CCIPR_UART4SEL << 16U) | RCC_CCIPR_UART4SEL_0)  /*
 410:Drivers/STM32L4xx_HAL_Driver/Inc/stm32l4xx_ll_rcc.h **** #define LL_RCC_UART4_CLKSOURCE_HSI         ((RCC_CCIPR_UART4SEL << 16U) | RCC_CCIPR_UART4SEL_1)  /*
 411:Drivers/STM32L4xx_HAL_Driver/Inc/stm32l4xx_ll_rcc.h **** #define LL_RCC_UART4_CLKSOURCE_LSE         ((RCC_CCIPR_UART4SEL << 16U) | RCC_CCIPR_UART4SEL)    /*
 412:Drivers/STM32L4xx_HAL_Driver/Inc/stm32l4xx_ll_rcc.h **** #endif /* RCC_CCIPR_UART4SEL */
 413:Drivers/STM32L4xx_HAL_Driver/Inc/stm32l4xx_ll_rcc.h **** #if defined(RCC_CCIPR_UART5SEL)
 414:Drivers/STM32L4xx_HAL_Driver/Inc/stm32l4xx_ll_rcc.h **** #define LL_RCC_UART5_CLKSOURCE_PCLK1       (RCC_CCIPR_UART5SEL << 16U)                           /*
 415:Drivers/STM32L4xx_HAL_Driver/Inc/stm32l4xx_ll_rcc.h **** #define LL_RCC_UART5_CLKSOURCE_SYSCLK      ((RCC_CCIPR_UART5SEL << 16U) | RCC_CCIPR_UART5SEL_0)  /*
 416:Drivers/STM32L4xx_HAL_Driver/Inc/stm32l4xx_ll_rcc.h **** #define LL_RCC_UART5_CLKSOURCE_HSI         ((RCC_CCIPR_UART5SEL << 16U) | RCC_CCIPR_UART5SEL_1)  /*
 417:Drivers/STM32L4xx_HAL_Driver/Inc/stm32l4xx_ll_rcc.h **** #define LL_RCC_UART5_CLKSOURCE_LSE         ((RCC_CCIPR_UART5SEL << 16U) | RCC_CCIPR_UART5SEL)    /*
 418:Drivers/STM32L4xx_HAL_Driver/Inc/stm32l4xx_ll_rcc.h **** #endif /* RCC_CCIPR_UART5SEL */
 419:Drivers/STM32L4xx_HAL_Driver/Inc/stm32l4xx_ll_rcc.h **** /**
 420:Drivers/STM32L4xx_HAL_Driver/Inc/stm32l4xx_ll_rcc.h ****   * @}
 421:Drivers/STM32L4xx_HAL_Driver/Inc/stm32l4xx_ll_rcc.h ****   */
 422:Drivers/STM32L4xx_HAL_Driver/Inc/stm32l4xx_ll_rcc.h **** #endif /* RCC_CCIPR_UART4SEL || RCC_CCIPR_UART5SEL */
 423:Drivers/STM32L4xx_HAL_Driver/Inc/stm32l4xx_ll_rcc.h **** 
 424:Drivers/STM32L4xx_HAL_Driver/Inc/stm32l4xx_ll_rcc.h **** /** @defgroup RCC_LL_EC_LPUART1_CLKSOURCE  Peripheral LPUART clock source selection
 425:Drivers/STM32L4xx_HAL_Driver/Inc/stm32l4xx_ll_rcc.h ****   * @{
 426:Drivers/STM32L4xx_HAL_Driver/Inc/stm32l4xx_ll_rcc.h ****   */
 427:Drivers/STM32L4xx_HAL_Driver/Inc/stm32l4xx_ll_rcc.h **** #define LL_RCC_LPUART1_CLKSOURCE_PCLK1     0x00000000U                     /*!< PCLK1 clock used as
 428:Drivers/STM32L4xx_HAL_Driver/Inc/stm32l4xx_ll_rcc.h **** #define LL_RCC_LPUART1_CLKSOURCE_SYSCLK    RCC_CCIPR_LPUART1SEL_0          /*!< SYSCLK clock used a
 429:Drivers/STM32L4xx_HAL_Driver/Inc/stm32l4xx_ll_rcc.h **** #define LL_RCC_LPUART1_CLKSOURCE_HSI       RCC_CCIPR_LPUART1SEL_1          /*!< HSI clock used as L
 430:Drivers/STM32L4xx_HAL_Driver/Inc/stm32l4xx_ll_rcc.h **** #define LL_RCC_LPUART1_CLKSOURCE_LSE       RCC_CCIPR_LPUART1SEL            /*!< LSE clock used as L
 431:Drivers/STM32L4xx_HAL_Driver/Inc/stm32l4xx_ll_rcc.h **** /**
 432:Drivers/STM32L4xx_HAL_Driver/Inc/stm32l4xx_ll_rcc.h ****   * @}
 433:Drivers/STM32L4xx_HAL_Driver/Inc/stm32l4xx_ll_rcc.h ****   */
 434:Drivers/STM32L4xx_HAL_Driver/Inc/stm32l4xx_ll_rcc.h **** 
 435:Drivers/STM32L4xx_HAL_Driver/Inc/stm32l4xx_ll_rcc.h **** /** @defgroup RCC_LL_EC_I2C1_CLKSOURCE  Peripheral I2C clock source selection
 436:Drivers/STM32L4xx_HAL_Driver/Inc/stm32l4xx_ll_rcc.h ****   * @{
 437:Drivers/STM32L4xx_HAL_Driver/Inc/stm32l4xx_ll_rcc.h ****   */
 438:Drivers/STM32L4xx_HAL_Driver/Inc/stm32l4xx_ll_rcc.h **** #define LL_RCC_I2C1_CLKSOURCE_PCLK1        (((uint32_t)RCC_OFFSET_CCIPR << 24U) | ((uint32_t)RCC_CC
 439:Drivers/STM32L4xx_HAL_Driver/Inc/stm32l4xx_ll_rcc.h **** #define LL_RCC_I2C1_CLKSOURCE_SYSCLK       (((uint32_t)RCC_OFFSET_CCIPR << 24U) | ((uint32_t)RCC_CC
 440:Drivers/STM32L4xx_HAL_Driver/Inc/stm32l4xx_ll_rcc.h **** #define LL_RCC_I2C1_CLKSOURCE_HSI          (((uint32_t)RCC_OFFSET_CCIPR << 24U) | ((uint32_t)RCC_CC
ARM GAS  C:\Temp\ccAfawe4.s 			page 13


 441:Drivers/STM32L4xx_HAL_Driver/Inc/stm32l4xx_ll_rcc.h **** #if defined(RCC_CCIPR_I2C2SEL)
 442:Drivers/STM32L4xx_HAL_Driver/Inc/stm32l4xx_ll_rcc.h **** #define LL_RCC_I2C2_CLKSOURCE_PCLK1        (((uint32_t)RCC_OFFSET_CCIPR << 24U) | ((uint32_t)RCC_CC
 443:Drivers/STM32L4xx_HAL_Driver/Inc/stm32l4xx_ll_rcc.h **** #define LL_RCC_I2C2_CLKSOURCE_SYSCLK       (((uint32_t)RCC_OFFSET_CCIPR << 24U) | ((uint32_t)RCC_CC
 444:Drivers/STM32L4xx_HAL_Driver/Inc/stm32l4xx_ll_rcc.h **** #define LL_RCC_I2C2_CLKSOURCE_HSI          (((uint32_t)RCC_OFFSET_CCIPR << 24U) | ((uint32_t)RCC_CC
 445:Drivers/STM32L4xx_HAL_Driver/Inc/stm32l4xx_ll_rcc.h **** #endif /* RCC_CCIPR_I2C2SEL */
 446:Drivers/STM32L4xx_HAL_Driver/Inc/stm32l4xx_ll_rcc.h **** #define LL_RCC_I2C3_CLKSOURCE_PCLK1        (((uint32_t)RCC_OFFSET_CCIPR << 24U) | ((uint32_t)RCC_CC
 447:Drivers/STM32L4xx_HAL_Driver/Inc/stm32l4xx_ll_rcc.h **** #define LL_RCC_I2C3_CLKSOURCE_SYSCLK       (((uint32_t)RCC_OFFSET_CCIPR << 24U) | ((uint32_t)RCC_CC
 448:Drivers/STM32L4xx_HAL_Driver/Inc/stm32l4xx_ll_rcc.h **** #define LL_RCC_I2C3_CLKSOURCE_HSI          (((uint32_t)RCC_OFFSET_CCIPR << 24U) | ((uint32_t)RCC_CC
 449:Drivers/STM32L4xx_HAL_Driver/Inc/stm32l4xx_ll_rcc.h **** #if defined(RCC_CCIPR2_I2C4SEL)
 450:Drivers/STM32L4xx_HAL_Driver/Inc/stm32l4xx_ll_rcc.h **** #define LL_RCC_I2C4_CLKSOURCE_PCLK1        (((uint32_t)RCC_OFFSET_CCIPR2 << 24U) | ((uint32_t)RCC_C
 451:Drivers/STM32L4xx_HAL_Driver/Inc/stm32l4xx_ll_rcc.h **** #define LL_RCC_I2C4_CLKSOURCE_SYSCLK       (((uint32_t)RCC_OFFSET_CCIPR2 << 24U) | ((uint32_t)RCC_C
 452:Drivers/STM32L4xx_HAL_Driver/Inc/stm32l4xx_ll_rcc.h **** #define LL_RCC_I2C4_CLKSOURCE_HSI          (((uint32_t)RCC_OFFSET_CCIPR2 << 24U) | ((uint32_t)RCC_C
 453:Drivers/STM32L4xx_HAL_Driver/Inc/stm32l4xx_ll_rcc.h **** #endif /* RCC_CCIPR2_I2C4SEL */
 454:Drivers/STM32L4xx_HAL_Driver/Inc/stm32l4xx_ll_rcc.h **** /**
 455:Drivers/STM32L4xx_HAL_Driver/Inc/stm32l4xx_ll_rcc.h ****   * @}
 456:Drivers/STM32L4xx_HAL_Driver/Inc/stm32l4xx_ll_rcc.h ****   */
 457:Drivers/STM32L4xx_HAL_Driver/Inc/stm32l4xx_ll_rcc.h **** 
 458:Drivers/STM32L4xx_HAL_Driver/Inc/stm32l4xx_ll_rcc.h **** /** @defgroup RCC_LL_EC_LPTIM1_CLKSOURCE  Peripheral LPTIM clock source selection
 459:Drivers/STM32L4xx_HAL_Driver/Inc/stm32l4xx_ll_rcc.h ****   * @{
 460:Drivers/STM32L4xx_HAL_Driver/Inc/stm32l4xx_ll_rcc.h ****   */
 461:Drivers/STM32L4xx_HAL_Driver/Inc/stm32l4xx_ll_rcc.h **** #define LL_RCC_LPTIM1_CLKSOURCE_PCLK1      RCC_CCIPR_LPTIM1SEL                                    /
 462:Drivers/STM32L4xx_HAL_Driver/Inc/stm32l4xx_ll_rcc.h **** #define LL_RCC_LPTIM1_CLKSOURCE_LSI        (RCC_CCIPR_LPTIM1SEL | (RCC_CCIPR_LPTIM1SEL_0 >> 16U)) /
 463:Drivers/STM32L4xx_HAL_Driver/Inc/stm32l4xx_ll_rcc.h **** #define LL_RCC_LPTIM1_CLKSOURCE_HSI        (RCC_CCIPR_LPTIM1SEL | (RCC_CCIPR_LPTIM1SEL_1 >> 16U)) /
 464:Drivers/STM32L4xx_HAL_Driver/Inc/stm32l4xx_ll_rcc.h **** #define LL_RCC_LPTIM1_CLKSOURCE_LSE        (RCC_CCIPR_LPTIM1SEL | (RCC_CCIPR_LPTIM1SEL >> 16U))   /
 465:Drivers/STM32L4xx_HAL_Driver/Inc/stm32l4xx_ll_rcc.h **** #define LL_RCC_LPTIM2_CLKSOURCE_PCLK1      RCC_CCIPR_LPTIM2SEL                                    /
 466:Drivers/STM32L4xx_HAL_Driver/Inc/stm32l4xx_ll_rcc.h **** #define LL_RCC_LPTIM2_CLKSOURCE_LSI        (RCC_CCIPR_LPTIM2SEL | (RCC_CCIPR_LPTIM2SEL_0 >> 16U)) /
 467:Drivers/STM32L4xx_HAL_Driver/Inc/stm32l4xx_ll_rcc.h **** #define LL_RCC_LPTIM2_CLKSOURCE_HSI        (RCC_CCIPR_LPTIM2SEL | (RCC_CCIPR_LPTIM2SEL_1 >> 16U)) /
 468:Drivers/STM32L4xx_HAL_Driver/Inc/stm32l4xx_ll_rcc.h **** #define LL_RCC_LPTIM2_CLKSOURCE_LSE        (RCC_CCIPR_LPTIM2SEL | (RCC_CCIPR_LPTIM2SEL >> 16U))   /
 469:Drivers/STM32L4xx_HAL_Driver/Inc/stm32l4xx_ll_rcc.h **** /**
 470:Drivers/STM32L4xx_HAL_Driver/Inc/stm32l4xx_ll_rcc.h ****   * @}
 471:Drivers/STM32L4xx_HAL_Driver/Inc/stm32l4xx_ll_rcc.h ****   */
 472:Drivers/STM32L4xx_HAL_Driver/Inc/stm32l4xx_ll_rcc.h **** 
 473:Drivers/STM32L4xx_HAL_Driver/Inc/stm32l4xx_ll_rcc.h **** /** @defgroup RCC_LL_EC_SAI1_CLKSOURCE  Peripheral SAI clock source selection
 474:Drivers/STM32L4xx_HAL_Driver/Inc/stm32l4xx_ll_rcc.h ****   * @{
 475:Drivers/STM32L4xx_HAL_Driver/Inc/stm32l4xx_ll_rcc.h ****   */
 476:Drivers/STM32L4xx_HAL_Driver/Inc/stm32l4xx_ll_rcc.h **** #if defined(RCC_CCIPR2_SAI1SEL)
 477:Drivers/STM32L4xx_HAL_Driver/Inc/stm32l4xx_ll_rcc.h **** #define LL_RCC_SAI1_CLKSOURCE_PLLSAI1      (RCC_CCIPR2_SAI1SEL << 16U)                          /*!
 478:Drivers/STM32L4xx_HAL_Driver/Inc/stm32l4xx_ll_rcc.h **** #define LL_RCC_SAI1_CLKSOURCE_PLLSAI2      ((RCC_CCIPR2_SAI1SEL << 16U) | RCC_CCIPR2_SAI1SEL_0) /*!
 479:Drivers/STM32L4xx_HAL_Driver/Inc/stm32l4xx_ll_rcc.h **** #define LL_RCC_SAI1_CLKSOURCE_PLL          ((RCC_CCIPR2_SAI1SEL << 16U) | RCC_CCIPR2_SAI1SEL_1) /*!
 480:Drivers/STM32L4xx_HAL_Driver/Inc/stm32l4xx_ll_rcc.h **** #define LL_RCC_SAI1_CLKSOURCE_PIN          ((RCC_CCIPR2_SAI1SEL << 16U) | (RCC_CCIPR2_SAI1SEL_1 | R
 481:Drivers/STM32L4xx_HAL_Driver/Inc/stm32l4xx_ll_rcc.h **** #define LL_RCC_SAI1_CLKSOURCE_HSI          ((RCC_CCIPR2_SAI1SEL << 16U) | RCC_CCIPR2_SAI1SEL_2) /*!
 482:Drivers/STM32L4xx_HAL_Driver/Inc/stm32l4xx_ll_rcc.h **** #elif defined(RCC_CCIPR_SAI1SEL)
 483:Drivers/STM32L4xx_HAL_Driver/Inc/stm32l4xx_ll_rcc.h **** #define LL_RCC_SAI1_CLKSOURCE_PLLSAI1      RCC_CCIPR_SAI1SEL                                    /*!
 484:Drivers/STM32L4xx_HAL_Driver/Inc/stm32l4xx_ll_rcc.h **** #if defined(RCC_PLLSAI2_SUPPORT)
 485:Drivers/STM32L4xx_HAL_Driver/Inc/stm32l4xx_ll_rcc.h **** #define LL_RCC_SAI1_CLKSOURCE_PLLSAI2      (RCC_CCIPR_SAI1SEL | (RCC_CCIPR_SAI1SEL_0 >> 16U))   /*!
 486:Drivers/STM32L4xx_HAL_Driver/Inc/stm32l4xx_ll_rcc.h **** #endif /* RCC_PLLSAI2_SUPPORT */
 487:Drivers/STM32L4xx_HAL_Driver/Inc/stm32l4xx_ll_rcc.h **** #define LL_RCC_SAI1_CLKSOURCE_PLL          (RCC_CCIPR_SAI1SEL | (RCC_CCIPR_SAI1SEL_1 >> 16U))   /*!
 488:Drivers/STM32L4xx_HAL_Driver/Inc/stm32l4xx_ll_rcc.h **** #define LL_RCC_SAI1_CLKSOURCE_PIN          (RCC_CCIPR_SAI1SEL | (RCC_CCIPR_SAI1SEL >> 16U))     /*!
 489:Drivers/STM32L4xx_HAL_Driver/Inc/stm32l4xx_ll_rcc.h **** #endif /* RCC_CCIPR2_SAI1SEL */
 490:Drivers/STM32L4xx_HAL_Driver/Inc/stm32l4xx_ll_rcc.h **** 
 491:Drivers/STM32L4xx_HAL_Driver/Inc/stm32l4xx_ll_rcc.h **** #if defined(RCC_CCIPR2_SAI2SEL)
 492:Drivers/STM32L4xx_HAL_Driver/Inc/stm32l4xx_ll_rcc.h **** #define LL_RCC_SAI2_CLKSOURCE_PLLSAI1      (RCC_CCIPR2_SAI2SEL << 16U)                          /*!
 493:Drivers/STM32L4xx_HAL_Driver/Inc/stm32l4xx_ll_rcc.h **** #define LL_RCC_SAI2_CLKSOURCE_PLLSAI2      ((RCC_CCIPR2_SAI2SEL << 16U) | RCC_CCIPR2_SAI2SEL_0) /*!
 494:Drivers/STM32L4xx_HAL_Driver/Inc/stm32l4xx_ll_rcc.h **** #define LL_RCC_SAI2_CLKSOURCE_PLL          ((RCC_CCIPR2_SAI2SEL << 16U) | RCC_CCIPR2_SAI2SEL_1) /*!
 495:Drivers/STM32L4xx_HAL_Driver/Inc/stm32l4xx_ll_rcc.h **** #define LL_RCC_SAI2_CLKSOURCE_PIN          ((RCC_CCIPR2_SAI2SEL << 16U) | (RCC_CCIPR2_SAI2SEL_1 | R
 496:Drivers/STM32L4xx_HAL_Driver/Inc/stm32l4xx_ll_rcc.h **** #define LL_RCC_SAI2_CLKSOURCE_HSI          ((RCC_CCIPR2_SAI2SEL << 16U) | RCC_CCIPR2_SAI2SEL_2) /*!
 497:Drivers/STM32L4xx_HAL_Driver/Inc/stm32l4xx_ll_rcc.h **** #elif defined(RCC_CCIPR_SAI2SEL)
ARM GAS  C:\Temp\ccAfawe4.s 			page 14


 498:Drivers/STM32L4xx_HAL_Driver/Inc/stm32l4xx_ll_rcc.h **** #define LL_RCC_SAI2_CLKSOURCE_PLLSAI1      RCC_CCIPR_SAI2SEL                                    /*!
 499:Drivers/STM32L4xx_HAL_Driver/Inc/stm32l4xx_ll_rcc.h **** #if defined(RCC_PLLSAI2_SUPPORT)
 500:Drivers/STM32L4xx_HAL_Driver/Inc/stm32l4xx_ll_rcc.h **** #define LL_RCC_SAI2_CLKSOURCE_PLLSAI2      (RCC_CCIPR_SAI2SEL | (RCC_CCIPR_SAI2SEL_0 >> 16U))   /*!
 501:Drivers/STM32L4xx_HAL_Driver/Inc/stm32l4xx_ll_rcc.h **** #endif /* RCC_PLLSAI2_SUPPORT */
 502:Drivers/STM32L4xx_HAL_Driver/Inc/stm32l4xx_ll_rcc.h **** #define LL_RCC_SAI2_CLKSOURCE_PLL          (RCC_CCIPR_SAI2SEL | (RCC_CCIPR_SAI2SEL_1 >> 16U))   /*!
 503:Drivers/STM32L4xx_HAL_Driver/Inc/stm32l4xx_ll_rcc.h **** #define LL_RCC_SAI2_CLKSOURCE_PIN          (RCC_CCIPR_SAI2SEL | (RCC_CCIPR_SAI2SEL >> 16U))     /*!
 504:Drivers/STM32L4xx_HAL_Driver/Inc/stm32l4xx_ll_rcc.h **** #endif /* RCC_CCIPR2_SAI2SEL */
 505:Drivers/STM32L4xx_HAL_Driver/Inc/stm32l4xx_ll_rcc.h **** /**
 506:Drivers/STM32L4xx_HAL_Driver/Inc/stm32l4xx_ll_rcc.h ****   * @}
 507:Drivers/STM32L4xx_HAL_Driver/Inc/stm32l4xx_ll_rcc.h ****   */
 508:Drivers/STM32L4xx_HAL_Driver/Inc/stm32l4xx_ll_rcc.h **** 
 509:Drivers/STM32L4xx_HAL_Driver/Inc/stm32l4xx_ll_rcc.h **** #if defined(RCC_CCIPR2_SDMMCSEL)
 510:Drivers/STM32L4xx_HAL_Driver/Inc/stm32l4xx_ll_rcc.h **** /** @defgroup RCC_LL_EC_SDMMC1_KERNELCLKSOURCE  Peripheral SDMMC kernel clock source selection
 511:Drivers/STM32L4xx_HAL_Driver/Inc/stm32l4xx_ll_rcc.h ****   * @{
 512:Drivers/STM32L4xx_HAL_Driver/Inc/stm32l4xx_ll_rcc.h ****   */
 513:Drivers/STM32L4xx_HAL_Driver/Inc/stm32l4xx_ll_rcc.h **** #define LL_RCC_SDMMC1_KERNELCLKSOURCE_48CLK  0x00000000U          /*!< 48MHz clock from internal mu
 514:Drivers/STM32L4xx_HAL_Driver/Inc/stm32l4xx_ll_rcc.h **** #define LL_RCC_SDMMC1_KERNELCLKSOURCE_PLLP   RCC_CCIPR2_SDMMCSEL  /*!< PLLSAI3CLK clock used as SDM
 515:Drivers/STM32L4xx_HAL_Driver/Inc/stm32l4xx_ll_rcc.h **** /**
 516:Drivers/STM32L4xx_HAL_Driver/Inc/stm32l4xx_ll_rcc.h ****   * @}
 517:Drivers/STM32L4xx_HAL_Driver/Inc/stm32l4xx_ll_rcc.h ****   */
 518:Drivers/STM32L4xx_HAL_Driver/Inc/stm32l4xx_ll_rcc.h **** #endif /* RCC_CCIPR2_SDMMCSEL */
 519:Drivers/STM32L4xx_HAL_Driver/Inc/stm32l4xx_ll_rcc.h **** 
 520:Drivers/STM32L4xx_HAL_Driver/Inc/stm32l4xx_ll_rcc.h **** #if defined(SDMMC1)
 521:Drivers/STM32L4xx_HAL_Driver/Inc/stm32l4xx_ll_rcc.h **** /** @defgroup RCC_LL_EC_SDMMC1_CLKSOURCE  Peripheral SDMMC clock source selection
 522:Drivers/STM32L4xx_HAL_Driver/Inc/stm32l4xx_ll_rcc.h ****   * @{
 523:Drivers/STM32L4xx_HAL_Driver/Inc/stm32l4xx_ll_rcc.h ****   */
 524:Drivers/STM32L4xx_HAL_Driver/Inc/stm32l4xx_ll_rcc.h **** #if defined(RCC_HSI48_SUPPORT)
 525:Drivers/STM32L4xx_HAL_Driver/Inc/stm32l4xx_ll_rcc.h **** #define LL_RCC_SDMMC1_CLKSOURCE_HSI48      0x00000000U          /*!< HSI48 clock used as SDMMC1 clo
 526:Drivers/STM32L4xx_HAL_Driver/Inc/stm32l4xx_ll_rcc.h **** #else
 527:Drivers/STM32L4xx_HAL_Driver/Inc/stm32l4xx_ll_rcc.h **** #define LL_RCC_SDMMC1_CLKSOURCE_NONE       0x00000000U          /*!< No clock used as SDMMC1 clock 
 528:Drivers/STM32L4xx_HAL_Driver/Inc/stm32l4xx_ll_rcc.h **** #endif
 529:Drivers/STM32L4xx_HAL_Driver/Inc/stm32l4xx_ll_rcc.h **** #if defined(RCC_PLLSAI1_SUPPORT)
 530:Drivers/STM32L4xx_HAL_Driver/Inc/stm32l4xx_ll_rcc.h **** #define LL_RCC_SDMMC1_CLKSOURCE_PLLSAI1    RCC_CCIPR_CLK48SEL_0 /*!< PLLSAI1 clock used as SDMMC1 c
 531:Drivers/STM32L4xx_HAL_Driver/Inc/stm32l4xx_ll_rcc.h **** #endif /* RCC_PLLSAI1_SUPPORT */
 532:Drivers/STM32L4xx_HAL_Driver/Inc/stm32l4xx_ll_rcc.h **** #define LL_RCC_SDMMC1_CLKSOURCE_PLL        RCC_CCIPR_CLK48SEL_1 /*!< PLL clock used as SDMMC1 clock
 533:Drivers/STM32L4xx_HAL_Driver/Inc/stm32l4xx_ll_rcc.h **** #define LL_RCC_SDMMC1_CLKSOURCE_MSI        RCC_CCIPR_CLK48SEL   /*!< MSI clock used as SDMMC1 clock
 534:Drivers/STM32L4xx_HAL_Driver/Inc/stm32l4xx_ll_rcc.h **** /**
 535:Drivers/STM32L4xx_HAL_Driver/Inc/stm32l4xx_ll_rcc.h ****   * @}
 536:Drivers/STM32L4xx_HAL_Driver/Inc/stm32l4xx_ll_rcc.h ****   */
 537:Drivers/STM32L4xx_HAL_Driver/Inc/stm32l4xx_ll_rcc.h **** #endif /* SDMMC1 */
 538:Drivers/STM32L4xx_HAL_Driver/Inc/stm32l4xx_ll_rcc.h **** 
 539:Drivers/STM32L4xx_HAL_Driver/Inc/stm32l4xx_ll_rcc.h **** /** @defgroup RCC_LL_EC_RNG_CLKSOURCE  Peripheral RNG clock source selection
 540:Drivers/STM32L4xx_HAL_Driver/Inc/stm32l4xx_ll_rcc.h ****   * @{
 541:Drivers/STM32L4xx_HAL_Driver/Inc/stm32l4xx_ll_rcc.h ****   */
 542:Drivers/STM32L4xx_HAL_Driver/Inc/stm32l4xx_ll_rcc.h **** #if defined(RCC_HSI48_SUPPORT)
 543:Drivers/STM32L4xx_HAL_Driver/Inc/stm32l4xx_ll_rcc.h **** #define LL_RCC_RNG_CLKSOURCE_HSI48         0x00000000U          /*!< HSI48 clock used as RNG clock 
 544:Drivers/STM32L4xx_HAL_Driver/Inc/stm32l4xx_ll_rcc.h **** #else
 545:Drivers/STM32L4xx_HAL_Driver/Inc/stm32l4xx_ll_rcc.h **** #define LL_RCC_RNG_CLKSOURCE_NONE          0x00000000U          /*!< No clock used as RNG clock sou
 546:Drivers/STM32L4xx_HAL_Driver/Inc/stm32l4xx_ll_rcc.h **** #endif
 547:Drivers/STM32L4xx_HAL_Driver/Inc/stm32l4xx_ll_rcc.h **** #if defined(RCC_PLLSAI1_SUPPORT)
 548:Drivers/STM32L4xx_HAL_Driver/Inc/stm32l4xx_ll_rcc.h **** #define LL_RCC_RNG_CLKSOURCE_PLLSAI1       RCC_CCIPR_CLK48SEL_0 /*!< PLLSAI1 clock used as RNG cloc
 549:Drivers/STM32L4xx_HAL_Driver/Inc/stm32l4xx_ll_rcc.h **** #endif /* RCC_PLLSAI1_SUPPORT */
 550:Drivers/STM32L4xx_HAL_Driver/Inc/stm32l4xx_ll_rcc.h **** #define LL_RCC_RNG_CLKSOURCE_PLL           RCC_CCIPR_CLK48SEL_1 /*!< PLL clock used as RNG clock so
 551:Drivers/STM32L4xx_HAL_Driver/Inc/stm32l4xx_ll_rcc.h **** #define LL_RCC_RNG_CLKSOURCE_MSI           RCC_CCIPR_CLK48SEL   /*!< MSI clock used as RNG clock so
 552:Drivers/STM32L4xx_HAL_Driver/Inc/stm32l4xx_ll_rcc.h **** /**
 553:Drivers/STM32L4xx_HAL_Driver/Inc/stm32l4xx_ll_rcc.h ****   * @}
 554:Drivers/STM32L4xx_HAL_Driver/Inc/stm32l4xx_ll_rcc.h ****   */
ARM GAS  C:\Temp\ccAfawe4.s 			page 15


 555:Drivers/STM32L4xx_HAL_Driver/Inc/stm32l4xx_ll_rcc.h **** 
 556:Drivers/STM32L4xx_HAL_Driver/Inc/stm32l4xx_ll_rcc.h **** #if defined(USB_OTG_FS) || defined(USB)
 557:Drivers/STM32L4xx_HAL_Driver/Inc/stm32l4xx_ll_rcc.h **** /** @defgroup RCC_LL_EC_USB_CLKSOURCE  Peripheral USB clock source selection
 558:Drivers/STM32L4xx_HAL_Driver/Inc/stm32l4xx_ll_rcc.h ****   * @{
 559:Drivers/STM32L4xx_HAL_Driver/Inc/stm32l4xx_ll_rcc.h ****   */
 560:Drivers/STM32L4xx_HAL_Driver/Inc/stm32l4xx_ll_rcc.h **** #if defined(RCC_HSI48_SUPPORT)
 561:Drivers/STM32L4xx_HAL_Driver/Inc/stm32l4xx_ll_rcc.h **** #define LL_RCC_USB_CLKSOURCE_HSI48         0x00000000U          /*!< HSI48 clock used as USB clock 
 562:Drivers/STM32L4xx_HAL_Driver/Inc/stm32l4xx_ll_rcc.h **** #else
 563:Drivers/STM32L4xx_HAL_Driver/Inc/stm32l4xx_ll_rcc.h **** #define LL_RCC_USB_CLKSOURCE_NONE          0x00000000U          /*!< No clock used as USB clock sou
 564:Drivers/STM32L4xx_HAL_Driver/Inc/stm32l4xx_ll_rcc.h **** #endif
 565:Drivers/STM32L4xx_HAL_Driver/Inc/stm32l4xx_ll_rcc.h **** #if defined(RCC_PLLSAI1_SUPPORT)
 566:Drivers/STM32L4xx_HAL_Driver/Inc/stm32l4xx_ll_rcc.h **** #define LL_RCC_USB_CLKSOURCE_PLLSAI1       RCC_CCIPR_CLK48SEL_0 /*!< PLLSAI1 clock used as USB cloc
 567:Drivers/STM32L4xx_HAL_Driver/Inc/stm32l4xx_ll_rcc.h **** #endif /* RCC_PLLSAI1_SUPPORT */
 568:Drivers/STM32L4xx_HAL_Driver/Inc/stm32l4xx_ll_rcc.h **** #define LL_RCC_USB_CLKSOURCE_PLL           RCC_CCIPR_CLK48SEL_1 /*!< PLL clock used as USB clock so
 569:Drivers/STM32L4xx_HAL_Driver/Inc/stm32l4xx_ll_rcc.h **** #define LL_RCC_USB_CLKSOURCE_MSI           RCC_CCIPR_CLK48SEL   /*!< MSI clock used as USB clock so
 570:Drivers/STM32L4xx_HAL_Driver/Inc/stm32l4xx_ll_rcc.h **** /**
 571:Drivers/STM32L4xx_HAL_Driver/Inc/stm32l4xx_ll_rcc.h ****   * @}
 572:Drivers/STM32L4xx_HAL_Driver/Inc/stm32l4xx_ll_rcc.h ****   */
 573:Drivers/STM32L4xx_HAL_Driver/Inc/stm32l4xx_ll_rcc.h **** 
 574:Drivers/STM32L4xx_HAL_Driver/Inc/stm32l4xx_ll_rcc.h **** #endif /* USB_OTG_FS || USB */
 575:Drivers/STM32L4xx_HAL_Driver/Inc/stm32l4xx_ll_rcc.h **** 
 576:Drivers/STM32L4xx_HAL_Driver/Inc/stm32l4xx_ll_rcc.h **** /** @defgroup RCC_LL_EC_ADC_CLKSOURCE  Peripheral ADC clock source selection
 577:Drivers/STM32L4xx_HAL_Driver/Inc/stm32l4xx_ll_rcc.h ****   * @{
 578:Drivers/STM32L4xx_HAL_Driver/Inc/stm32l4xx_ll_rcc.h ****   */
 579:Drivers/STM32L4xx_HAL_Driver/Inc/stm32l4xx_ll_rcc.h **** #define LL_RCC_ADC_CLKSOURCE_NONE          0x00000000U          /*!< No clock used as ADC clock sou
 580:Drivers/STM32L4xx_HAL_Driver/Inc/stm32l4xx_ll_rcc.h **** #if defined(RCC_PLLSAI1_SUPPORT)
 581:Drivers/STM32L4xx_HAL_Driver/Inc/stm32l4xx_ll_rcc.h **** #define LL_RCC_ADC_CLKSOURCE_PLLSAI1       RCC_CCIPR_ADCSEL_0   /*!< PLLSAI1 clock used as ADC cloc
 582:Drivers/STM32L4xx_HAL_Driver/Inc/stm32l4xx_ll_rcc.h **** #endif /* RCC_PLLSAI1_SUPPORT */
 583:Drivers/STM32L4xx_HAL_Driver/Inc/stm32l4xx_ll_rcc.h **** #if defined(RCC_PLLSAI2_SUPPORT) && !defined(LTDC)
 584:Drivers/STM32L4xx_HAL_Driver/Inc/stm32l4xx_ll_rcc.h **** #define LL_RCC_ADC_CLKSOURCE_PLLSAI2       RCC_CCIPR_ADCSEL_1   /*!< PLLSAI2 clock used as ADC cloc
 585:Drivers/STM32L4xx_HAL_Driver/Inc/stm32l4xx_ll_rcc.h **** #endif /* RCC_PLLSAI2_SUPPORT */
 586:Drivers/STM32L4xx_HAL_Driver/Inc/stm32l4xx_ll_rcc.h **** #if defined(RCC_CCIPR_ADCSEL)
 587:Drivers/STM32L4xx_HAL_Driver/Inc/stm32l4xx_ll_rcc.h **** #define LL_RCC_ADC_CLKSOURCE_SYSCLK        RCC_CCIPR_ADCSEL     /*!< SYSCLK clock used as ADC clock
 588:Drivers/STM32L4xx_HAL_Driver/Inc/stm32l4xx_ll_rcc.h **** #else
 589:Drivers/STM32L4xx_HAL_Driver/Inc/stm32l4xx_ll_rcc.h **** #define LL_RCC_ADC_CLKSOURCE_SYSCLK        0x30000000U          /*!< SYSCLK clock used as ADC clock
 590:Drivers/STM32L4xx_HAL_Driver/Inc/stm32l4xx_ll_rcc.h **** #endif
 591:Drivers/STM32L4xx_HAL_Driver/Inc/stm32l4xx_ll_rcc.h **** /**
 592:Drivers/STM32L4xx_HAL_Driver/Inc/stm32l4xx_ll_rcc.h ****   * @}
 593:Drivers/STM32L4xx_HAL_Driver/Inc/stm32l4xx_ll_rcc.h ****   */
 594:Drivers/STM32L4xx_HAL_Driver/Inc/stm32l4xx_ll_rcc.h **** 
 595:Drivers/STM32L4xx_HAL_Driver/Inc/stm32l4xx_ll_rcc.h **** #if defined(SWPMI1)
 596:Drivers/STM32L4xx_HAL_Driver/Inc/stm32l4xx_ll_rcc.h **** /** @defgroup RCC_LL_EC_SWPMI1_CLKSOURCE  Peripheral SWPMI1 clock source selection
 597:Drivers/STM32L4xx_HAL_Driver/Inc/stm32l4xx_ll_rcc.h ****   * @{
 598:Drivers/STM32L4xx_HAL_Driver/Inc/stm32l4xx_ll_rcc.h ****   */
 599:Drivers/STM32L4xx_HAL_Driver/Inc/stm32l4xx_ll_rcc.h **** #define LL_RCC_SWPMI1_CLKSOURCE_PCLK1      0x00000000U          /*!< PCLK1 used as SWPMI1 clock sou
 600:Drivers/STM32L4xx_HAL_Driver/Inc/stm32l4xx_ll_rcc.h **** #define LL_RCC_SWPMI1_CLKSOURCE_HSI        RCC_CCIPR_SWPMI1SEL  /*!< HSI used as SWPMI1 clock sourc
 601:Drivers/STM32L4xx_HAL_Driver/Inc/stm32l4xx_ll_rcc.h **** /**
 602:Drivers/STM32L4xx_HAL_Driver/Inc/stm32l4xx_ll_rcc.h ****   * @}
 603:Drivers/STM32L4xx_HAL_Driver/Inc/stm32l4xx_ll_rcc.h ****   */
 604:Drivers/STM32L4xx_HAL_Driver/Inc/stm32l4xx_ll_rcc.h **** #endif /* SWPMI1 */
 605:Drivers/STM32L4xx_HAL_Driver/Inc/stm32l4xx_ll_rcc.h **** 
 606:Drivers/STM32L4xx_HAL_Driver/Inc/stm32l4xx_ll_rcc.h **** #if defined(DFSDM1_Channel0)
 607:Drivers/STM32L4xx_HAL_Driver/Inc/stm32l4xx_ll_rcc.h **** #if defined(RCC_CCIPR2_ADFSDM1SEL)
 608:Drivers/STM32L4xx_HAL_Driver/Inc/stm32l4xx_ll_rcc.h **** /** @defgroup RCC_LL_EC_DFSDM1_AUDIO_CLKSOURCE  Peripheral DFSDM1 Audio clock source selection
 609:Drivers/STM32L4xx_HAL_Driver/Inc/stm32l4xx_ll_rcc.h ****   * @{
 610:Drivers/STM32L4xx_HAL_Driver/Inc/stm32l4xx_ll_rcc.h ****   */
 611:Drivers/STM32L4xx_HAL_Driver/Inc/stm32l4xx_ll_rcc.h **** #define LL_RCC_DFSDM1_AUDIO_CLKSOURCE_SAI1 0x00000000U             /*!< SAI1 clock used as DFSDM1 A
ARM GAS  C:\Temp\ccAfawe4.s 			page 16


 612:Drivers/STM32L4xx_HAL_Driver/Inc/stm32l4xx_ll_rcc.h **** #define LL_RCC_DFSDM1_AUDIO_CLKSOURCE_HSI  RCC_CCIPR2_ADFSDM1SEL_0 /*!< HSI clock used as DFSDM1 Au
 613:Drivers/STM32L4xx_HAL_Driver/Inc/stm32l4xx_ll_rcc.h **** #define LL_RCC_DFSDM1_AUDIO_CLKSOURCE_MSI  RCC_CCIPR2_ADFSDM1SEL_1 /*!< MSI clock used as DFSDM1 Au
 614:Drivers/STM32L4xx_HAL_Driver/Inc/stm32l4xx_ll_rcc.h **** /**
 615:Drivers/STM32L4xx_HAL_Driver/Inc/stm32l4xx_ll_rcc.h ****   * @}
 616:Drivers/STM32L4xx_HAL_Driver/Inc/stm32l4xx_ll_rcc.h ****   */
 617:Drivers/STM32L4xx_HAL_Driver/Inc/stm32l4xx_ll_rcc.h **** #endif /* RCC_CCIPR2_ADFSDM1SEL */
 618:Drivers/STM32L4xx_HAL_Driver/Inc/stm32l4xx_ll_rcc.h **** 
 619:Drivers/STM32L4xx_HAL_Driver/Inc/stm32l4xx_ll_rcc.h **** /** @defgroup RCC_LL_EC_DFSDM1_CLKSOURCE  Peripheral DFSDM1 clock source selection
 620:Drivers/STM32L4xx_HAL_Driver/Inc/stm32l4xx_ll_rcc.h ****   * @{
 621:Drivers/STM32L4xx_HAL_Driver/Inc/stm32l4xx_ll_rcc.h ****   */
 622:Drivers/STM32L4xx_HAL_Driver/Inc/stm32l4xx_ll_rcc.h **** #if defined(RCC_CCIPR2_DFSDM1SEL)
 623:Drivers/STM32L4xx_HAL_Driver/Inc/stm32l4xx_ll_rcc.h **** #define LL_RCC_DFSDM1_CLKSOURCE_PCLK2      0x00000000U          /*!< PCLK2 used as DFSDM1 clock sou
 624:Drivers/STM32L4xx_HAL_Driver/Inc/stm32l4xx_ll_rcc.h **** #define LL_RCC_DFSDM1_CLKSOURCE_SYSCLK     RCC_CCIPR2_DFSDM1SEL /*!< SYSCLK used as DFSDM1 clock so
 625:Drivers/STM32L4xx_HAL_Driver/Inc/stm32l4xx_ll_rcc.h **** #else
 626:Drivers/STM32L4xx_HAL_Driver/Inc/stm32l4xx_ll_rcc.h **** #define LL_RCC_DFSDM1_CLKSOURCE_PCLK2      0x00000000U          /*!< PCLK2 used as DFSDM1 clock sou
 627:Drivers/STM32L4xx_HAL_Driver/Inc/stm32l4xx_ll_rcc.h **** #define LL_RCC_DFSDM1_CLKSOURCE_SYSCLK     RCC_CCIPR_DFSDM1SEL  /*!< SYSCLK used as DFSDM1 clock so
 628:Drivers/STM32L4xx_HAL_Driver/Inc/stm32l4xx_ll_rcc.h **** #endif /* RCC_CCIPR2_DFSDM1SEL */
 629:Drivers/STM32L4xx_HAL_Driver/Inc/stm32l4xx_ll_rcc.h **** /**
 630:Drivers/STM32L4xx_HAL_Driver/Inc/stm32l4xx_ll_rcc.h ****   * @}
 631:Drivers/STM32L4xx_HAL_Driver/Inc/stm32l4xx_ll_rcc.h ****   */
 632:Drivers/STM32L4xx_HAL_Driver/Inc/stm32l4xx_ll_rcc.h **** #endif /* DFSDM1_Channel0 */
 633:Drivers/STM32L4xx_HAL_Driver/Inc/stm32l4xx_ll_rcc.h **** 
 634:Drivers/STM32L4xx_HAL_Driver/Inc/stm32l4xx_ll_rcc.h **** #if defined(DSI)
 635:Drivers/STM32L4xx_HAL_Driver/Inc/stm32l4xx_ll_rcc.h **** /** @defgroup RCC_LL_EC_DSI_CLKSOURCE  Peripheral DSI clock source selection
 636:Drivers/STM32L4xx_HAL_Driver/Inc/stm32l4xx_ll_rcc.h ****   * @{
 637:Drivers/STM32L4xx_HAL_Driver/Inc/stm32l4xx_ll_rcc.h ****   */
 638:Drivers/STM32L4xx_HAL_Driver/Inc/stm32l4xx_ll_rcc.h **** #define LL_RCC_DSI_CLKSOURCE_PHY          0x00000000U           /*!< DSI-PHY clock used as DSI byte
 639:Drivers/STM32L4xx_HAL_Driver/Inc/stm32l4xx_ll_rcc.h **** #define LL_RCC_DSI_CLKSOURCE_PLL          RCC_CCIPR2_DSISEL     /*!< PLL clock used as DSI byte lan
 640:Drivers/STM32L4xx_HAL_Driver/Inc/stm32l4xx_ll_rcc.h **** /**
 641:Drivers/STM32L4xx_HAL_Driver/Inc/stm32l4xx_ll_rcc.h ****   * @}
 642:Drivers/STM32L4xx_HAL_Driver/Inc/stm32l4xx_ll_rcc.h ****   */
 643:Drivers/STM32L4xx_HAL_Driver/Inc/stm32l4xx_ll_rcc.h **** #endif /* DSI */
 644:Drivers/STM32L4xx_HAL_Driver/Inc/stm32l4xx_ll_rcc.h **** 
 645:Drivers/STM32L4xx_HAL_Driver/Inc/stm32l4xx_ll_rcc.h **** #if defined(LTDC)
 646:Drivers/STM32L4xx_HAL_Driver/Inc/stm32l4xx_ll_rcc.h **** /** @defgroup RCC_LL_EC_LTDC_CLKSOURCE  Peripheral LTDC clock source selection
 647:Drivers/STM32L4xx_HAL_Driver/Inc/stm32l4xx_ll_rcc.h ****   * @{
 648:Drivers/STM32L4xx_HAL_Driver/Inc/stm32l4xx_ll_rcc.h ****   */
 649:Drivers/STM32L4xx_HAL_Driver/Inc/stm32l4xx_ll_rcc.h **** #define LL_RCC_LTDC_CLKSOURCE_PLLSAI2R_DIV2  0x00000000U              /*!< PLLSAI2DIVR divided by 2
 650:Drivers/STM32L4xx_HAL_Driver/Inc/stm32l4xx_ll_rcc.h **** #define LL_RCC_LTDC_CLKSOURCE_PLLSAI2R_DIV4  RCC_CCIPR2_PLLSAI2DIVR_0 /*!< PLLSAI2DIVR divided by 4
 651:Drivers/STM32L4xx_HAL_Driver/Inc/stm32l4xx_ll_rcc.h **** #define LL_RCC_LTDC_CLKSOURCE_PLLSAI2R_DIV8  RCC_CCIPR2_PLLSAI2DIVR_1 /*!< PLLSAI2DIVR divided by 8
 652:Drivers/STM32L4xx_HAL_Driver/Inc/stm32l4xx_ll_rcc.h **** #define LL_RCC_LTDC_CLKSOURCE_PLLSAI2R_DIV16 RCC_CCIPR2_PLLSAI2DIVR   /*!< PLLSAI2DIVR divided by 1
 653:Drivers/STM32L4xx_HAL_Driver/Inc/stm32l4xx_ll_rcc.h **** /**
 654:Drivers/STM32L4xx_HAL_Driver/Inc/stm32l4xx_ll_rcc.h ****   * @}
 655:Drivers/STM32L4xx_HAL_Driver/Inc/stm32l4xx_ll_rcc.h ****   */
 656:Drivers/STM32L4xx_HAL_Driver/Inc/stm32l4xx_ll_rcc.h **** #endif /* LTDC */
 657:Drivers/STM32L4xx_HAL_Driver/Inc/stm32l4xx_ll_rcc.h **** 
 658:Drivers/STM32L4xx_HAL_Driver/Inc/stm32l4xx_ll_rcc.h **** #if defined(OCTOSPI1)
 659:Drivers/STM32L4xx_HAL_Driver/Inc/stm32l4xx_ll_rcc.h **** /** @defgroup RCC_LL_EC_OCTOSPI  Peripheral OCTOSPI get clock source
 660:Drivers/STM32L4xx_HAL_Driver/Inc/stm32l4xx_ll_rcc.h ****   * @{
 661:Drivers/STM32L4xx_HAL_Driver/Inc/stm32l4xx_ll_rcc.h ****   */
 662:Drivers/STM32L4xx_HAL_Driver/Inc/stm32l4xx_ll_rcc.h **** #define LL_RCC_OCTOSPI_CLKSOURCE_SYSCLK    0x00000000U           /*!< SYSCLK used as OctoSPI clock 
 663:Drivers/STM32L4xx_HAL_Driver/Inc/stm32l4xx_ll_rcc.h **** #define LL_RCC_OCTOSPI_CLKSOURCE_MSI       RCC_CCIPR2_OSPISEL_0  /*!< MSI used as OctoSPI clock sou
 664:Drivers/STM32L4xx_HAL_Driver/Inc/stm32l4xx_ll_rcc.h **** #define LL_RCC_OCTOSPI_CLKSOURCE_PLL       RCC_CCIPR2_OSPISEL_1  /*!< PLL used as OctoSPI clock sou
 665:Drivers/STM32L4xx_HAL_Driver/Inc/stm32l4xx_ll_rcc.h **** /**
 666:Drivers/STM32L4xx_HAL_Driver/Inc/stm32l4xx_ll_rcc.h ****   * @}
 667:Drivers/STM32L4xx_HAL_Driver/Inc/stm32l4xx_ll_rcc.h ****   */
 668:Drivers/STM32L4xx_HAL_Driver/Inc/stm32l4xx_ll_rcc.h **** #endif /* OCTOSPI1 */
ARM GAS  C:\Temp\ccAfawe4.s 			page 17


 669:Drivers/STM32L4xx_HAL_Driver/Inc/stm32l4xx_ll_rcc.h **** 
 670:Drivers/STM32L4xx_HAL_Driver/Inc/stm32l4xx_ll_rcc.h **** /** @defgroup RCC_LL_EC_USART1 Peripheral USART get clock source
 671:Drivers/STM32L4xx_HAL_Driver/Inc/stm32l4xx_ll_rcc.h ****   * @{
 672:Drivers/STM32L4xx_HAL_Driver/Inc/stm32l4xx_ll_rcc.h ****   */
 673:Drivers/STM32L4xx_HAL_Driver/Inc/stm32l4xx_ll_rcc.h **** #define LL_RCC_USART1_CLKSOURCE            RCC_CCIPR_USART1SEL /*!< USART1 Clock source selection *
 674:Drivers/STM32L4xx_HAL_Driver/Inc/stm32l4xx_ll_rcc.h **** #define LL_RCC_USART2_CLKSOURCE            RCC_CCIPR_USART2SEL /*!< USART2 Clock source selection *
 675:Drivers/STM32L4xx_HAL_Driver/Inc/stm32l4xx_ll_rcc.h **** #if defined(RCC_CCIPR_USART3SEL)
 676:Drivers/STM32L4xx_HAL_Driver/Inc/stm32l4xx_ll_rcc.h **** #define LL_RCC_USART3_CLKSOURCE            RCC_CCIPR_USART3SEL /*!< USART3 Clock source selection *
 677:Drivers/STM32L4xx_HAL_Driver/Inc/stm32l4xx_ll_rcc.h **** #endif /* RCC_CCIPR_USART3SEL */
 678:Drivers/STM32L4xx_HAL_Driver/Inc/stm32l4xx_ll_rcc.h **** /**
 679:Drivers/STM32L4xx_HAL_Driver/Inc/stm32l4xx_ll_rcc.h ****   * @}
 680:Drivers/STM32L4xx_HAL_Driver/Inc/stm32l4xx_ll_rcc.h ****   */
 681:Drivers/STM32L4xx_HAL_Driver/Inc/stm32l4xx_ll_rcc.h **** 
 682:Drivers/STM32L4xx_HAL_Driver/Inc/stm32l4xx_ll_rcc.h **** #if defined(RCC_CCIPR_UART4SEL) || defined(RCC_CCIPR_UART5SEL)
 683:Drivers/STM32L4xx_HAL_Driver/Inc/stm32l4xx_ll_rcc.h **** /** @defgroup RCC_LL_EC_UART4 Peripheral UART get clock source
 684:Drivers/STM32L4xx_HAL_Driver/Inc/stm32l4xx_ll_rcc.h ****   * @{
 685:Drivers/STM32L4xx_HAL_Driver/Inc/stm32l4xx_ll_rcc.h ****   */
 686:Drivers/STM32L4xx_HAL_Driver/Inc/stm32l4xx_ll_rcc.h **** #if defined(RCC_CCIPR_UART4SEL)
 687:Drivers/STM32L4xx_HAL_Driver/Inc/stm32l4xx_ll_rcc.h **** #define LL_RCC_UART4_CLKSOURCE             RCC_CCIPR_UART4SEL /*!< UART4 Clock source selection */
 688:Drivers/STM32L4xx_HAL_Driver/Inc/stm32l4xx_ll_rcc.h **** #endif /* RCC_CCIPR_UART4SEL */
 689:Drivers/STM32L4xx_HAL_Driver/Inc/stm32l4xx_ll_rcc.h **** #if defined(RCC_CCIPR_UART5SEL)
 690:Drivers/STM32L4xx_HAL_Driver/Inc/stm32l4xx_ll_rcc.h **** #define LL_RCC_UART5_CLKSOURCE             RCC_CCIPR_UART5SEL /*!< UART5 Clock source selection */
 691:Drivers/STM32L4xx_HAL_Driver/Inc/stm32l4xx_ll_rcc.h **** #endif /* RCC_CCIPR_UART5SEL */
 692:Drivers/STM32L4xx_HAL_Driver/Inc/stm32l4xx_ll_rcc.h **** /**
 693:Drivers/STM32L4xx_HAL_Driver/Inc/stm32l4xx_ll_rcc.h ****   * @}
 694:Drivers/STM32L4xx_HAL_Driver/Inc/stm32l4xx_ll_rcc.h ****   */
 695:Drivers/STM32L4xx_HAL_Driver/Inc/stm32l4xx_ll_rcc.h **** #endif /* RCC_CCIPR_UART4SEL || RCC_CCIPR_UART5SEL */
 696:Drivers/STM32L4xx_HAL_Driver/Inc/stm32l4xx_ll_rcc.h **** 
 697:Drivers/STM32L4xx_HAL_Driver/Inc/stm32l4xx_ll_rcc.h **** /** @defgroup RCC_LL_EC_LPUART1 Peripheral LPUART get clock source
 698:Drivers/STM32L4xx_HAL_Driver/Inc/stm32l4xx_ll_rcc.h ****   * @{
 699:Drivers/STM32L4xx_HAL_Driver/Inc/stm32l4xx_ll_rcc.h ****   */
 700:Drivers/STM32L4xx_HAL_Driver/Inc/stm32l4xx_ll_rcc.h **** #define LL_RCC_LPUART1_CLKSOURCE           RCC_CCIPR_LPUART1SEL /*!< LPUART1 Clock source selection
 701:Drivers/STM32L4xx_HAL_Driver/Inc/stm32l4xx_ll_rcc.h **** /**
 702:Drivers/STM32L4xx_HAL_Driver/Inc/stm32l4xx_ll_rcc.h ****   * @}
 703:Drivers/STM32L4xx_HAL_Driver/Inc/stm32l4xx_ll_rcc.h ****   */
 704:Drivers/STM32L4xx_HAL_Driver/Inc/stm32l4xx_ll_rcc.h **** 
 705:Drivers/STM32L4xx_HAL_Driver/Inc/stm32l4xx_ll_rcc.h **** /** @defgroup RCC_LL_EC_I2C1 Peripheral I2C get clock source
 706:Drivers/STM32L4xx_HAL_Driver/Inc/stm32l4xx_ll_rcc.h ****   * @{
 707:Drivers/STM32L4xx_HAL_Driver/Inc/stm32l4xx_ll_rcc.h ****   */
 708:Drivers/STM32L4xx_HAL_Driver/Inc/stm32l4xx_ll_rcc.h **** #define LL_RCC_I2C1_CLKSOURCE              (((uint32_t)RCC_OFFSET_CCIPR << 24U) | ((uint32_t)RCC_CC
 709:Drivers/STM32L4xx_HAL_Driver/Inc/stm32l4xx_ll_rcc.h **** #if defined(RCC_CCIPR_I2C2SEL)
 710:Drivers/STM32L4xx_HAL_Driver/Inc/stm32l4xx_ll_rcc.h **** #define LL_RCC_I2C2_CLKSOURCE              (((uint32_t)RCC_OFFSET_CCIPR << 24U) | ((uint32_t)RCC_CC
 711:Drivers/STM32L4xx_HAL_Driver/Inc/stm32l4xx_ll_rcc.h **** #endif /* RCC_CCIPR_I2C2SEL */
 712:Drivers/STM32L4xx_HAL_Driver/Inc/stm32l4xx_ll_rcc.h **** #define LL_RCC_I2C3_CLKSOURCE              (((uint32_t)RCC_OFFSET_CCIPR << 24U) | ((uint32_t)RCC_CC
 713:Drivers/STM32L4xx_HAL_Driver/Inc/stm32l4xx_ll_rcc.h **** #if defined(RCC_CCIPR2_I2C4SEL)
 714:Drivers/STM32L4xx_HAL_Driver/Inc/stm32l4xx_ll_rcc.h **** #define LL_RCC_I2C4_CLKSOURCE              (((uint32_t)RCC_OFFSET_CCIPR2 << 24U) | ((uint32_t)RCC_C
 715:Drivers/STM32L4xx_HAL_Driver/Inc/stm32l4xx_ll_rcc.h **** #endif /* RCC_CCIPR2_I2C4SEL */
 716:Drivers/STM32L4xx_HAL_Driver/Inc/stm32l4xx_ll_rcc.h **** /**
 717:Drivers/STM32L4xx_HAL_Driver/Inc/stm32l4xx_ll_rcc.h ****   * @}
 718:Drivers/STM32L4xx_HAL_Driver/Inc/stm32l4xx_ll_rcc.h ****   */
 719:Drivers/STM32L4xx_HAL_Driver/Inc/stm32l4xx_ll_rcc.h **** 
 720:Drivers/STM32L4xx_HAL_Driver/Inc/stm32l4xx_ll_rcc.h **** /** @defgroup RCC_LL_EC_LPTIM1 Peripheral LPTIM get clock source
 721:Drivers/STM32L4xx_HAL_Driver/Inc/stm32l4xx_ll_rcc.h ****   * @{
 722:Drivers/STM32L4xx_HAL_Driver/Inc/stm32l4xx_ll_rcc.h ****   */
 723:Drivers/STM32L4xx_HAL_Driver/Inc/stm32l4xx_ll_rcc.h **** #define LL_RCC_LPTIM1_CLKSOURCE            RCC_CCIPR_LPTIM1SEL /*!< LPTIM1 Clock source selection *
 724:Drivers/STM32L4xx_HAL_Driver/Inc/stm32l4xx_ll_rcc.h **** #define LL_RCC_LPTIM2_CLKSOURCE            RCC_CCIPR_LPTIM2SEL /*!< LPTIM2 Clock source selection *
 725:Drivers/STM32L4xx_HAL_Driver/Inc/stm32l4xx_ll_rcc.h **** /**
ARM GAS  C:\Temp\ccAfawe4.s 			page 18


 726:Drivers/STM32L4xx_HAL_Driver/Inc/stm32l4xx_ll_rcc.h ****   * @}
 727:Drivers/STM32L4xx_HAL_Driver/Inc/stm32l4xx_ll_rcc.h ****   */
 728:Drivers/STM32L4xx_HAL_Driver/Inc/stm32l4xx_ll_rcc.h **** 
 729:Drivers/STM32L4xx_HAL_Driver/Inc/stm32l4xx_ll_rcc.h **** #if defined(RCC_CCIPR_SAI1SEL) || defined(RCC_CCIPR2_SAI1SEL)
 730:Drivers/STM32L4xx_HAL_Driver/Inc/stm32l4xx_ll_rcc.h **** /** @defgroup RCC_LL_EC_SAI1  Peripheral SAI get clock source
 731:Drivers/STM32L4xx_HAL_Driver/Inc/stm32l4xx_ll_rcc.h ****   * @{
 732:Drivers/STM32L4xx_HAL_Driver/Inc/stm32l4xx_ll_rcc.h ****   */
 733:Drivers/STM32L4xx_HAL_Driver/Inc/stm32l4xx_ll_rcc.h **** #if defined(RCC_CCIPR2_SAI1SEL)
 734:Drivers/STM32L4xx_HAL_Driver/Inc/stm32l4xx_ll_rcc.h **** #define LL_RCC_SAI1_CLKSOURCE              RCC_CCIPR2_SAI1SEL /*!< SAI1 Clock source selection */
 735:Drivers/STM32L4xx_HAL_Driver/Inc/stm32l4xx_ll_rcc.h **** #else
 736:Drivers/STM32L4xx_HAL_Driver/Inc/stm32l4xx_ll_rcc.h **** #define LL_RCC_SAI1_CLKSOURCE              RCC_CCIPR_SAI1SEL /*!< SAI1 Clock source selection */
 737:Drivers/STM32L4xx_HAL_Driver/Inc/stm32l4xx_ll_rcc.h **** #endif /* RCC_CCIPR2_SAI1SEL */
 738:Drivers/STM32L4xx_HAL_Driver/Inc/stm32l4xx_ll_rcc.h **** #if defined(RCC_CCIPR2_SAI2SEL)
 739:Drivers/STM32L4xx_HAL_Driver/Inc/stm32l4xx_ll_rcc.h **** #define LL_RCC_SAI2_CLKSOURCE              RCC_CCIPR2_SAI2SEL /*!< SAI2 Clock source selection */
 740:Drivers/STM32L4xx_HAL_Driver/Inc/stm32l4xx_ll_rcc.h **** #elif defined(RCC_CCIPR_SAI2SEL)
 741:Drivers/STM32L4xx_HAL_Driver/Inc/stm32l4xx_ll_rcc.h **** #define LL_RCC_SAI2_CLKSOURCE              RCC_CCIPR_SAI2SEL /*!< SAI2 Clock source selection */
 742:Drivers/STM32L4xx_HAL_Driver/Inc/stm32l4xx_ll_rcc.h **** #endif /* RCC_CCIPR2_SAI2SEL */
 743:Drivers/STM32L4xx_HAL_Driver/Inc/stm32l4xx_ll_rcc.h **** /**
 744:Drivers/STM32L4xx_HAL_Driver/Inc/stm32l4xx_ll_rcc.h ****   * @}
 745:Drivers/STM32L4xx_HAL_Driver/Inc/stm32l4xx_ll_rcc.h ****   */
 746:Drivers/STM32L4xx_HAL_Driver/Inc/stm32l4xx_ll_rcc.h **** #endif /* RCC_CCIPR_SAI1SEL || RCC_CCIPR2_SAI1SEL */
 747:Drivers/STM32L4xx_HAL_Driver/Inc/stm32l4xx_ll_rcc.h **** 
 748:Drivers/STM32L4xx_HAL_Driver/Inc/stm32l4xx_ll_rcc.h **** #if defined(SDMMC1)
 749:Drivers/STM32L4xx_HAL_Driver/Inc/stm32l4xx_ll_rcc.h **** #if defined(RCC_CCIPR2_SDMMCSEL)
 750:Drivers/STM32L4xx_HAL_Driver/Inc/stm32l4xx_ll_rcc.h **** /** @defgroup RCC_LL_EC_SDMMC1_KERNEL  Peripheral SDMMC get kernel clock source
 751:Drivers/STM32L4xx_HAL_Driver/Inc/stm32l4xx_ll_rcc.h ****   * @{
 752:Drivers/STM32L4xx_HAL_Driver/Inc/stm32l4xx_ll_rcc.h ****   */
 753:Drivers/STM32L4xx_HAL_Driver/Inc/stm32l4xx_ll_rcc.h **** #define LL_RCC_SDMMC1_KERNELCLKSOURCE      RCC_CCIPR2_SDMMCSEL /*!< SDMMC1 Kernel Clock source sele
 754:Drivers/STM32L4xx_HAL_Driver/Inc/stm32l4xx_ll_rcc.h **** /**
 755:Drivers/STM32L4xx_HAL_Driver/Inc/stm32l4xx_ll_rcc.h ****   * @}
 756:Drivers/STM32L4xx_HAL_Driver/Inc/stm32l4xx_ll_rcc.h ****   */
 757:Drivers/STM32L4xx_HAL_Driver/Inc/stm32l4xx_ll_rcc.h **** #endif /* RCC_CCIPR2_SDMMCSEL */
 758:Drivers/STM32L4xx_HAL_Driver/Inc/stm32l4xx_ll_rcc.h **** 
 759:Drivers/STM32L4xx_HAL_Driver/Inc/stm32l4xx_ll_rcc.h **** /** @defgroup RCC_LL_EC_SDMMC1  Peripheral SDMMC get clock source
 760:Drivers/STM32L4xx_HAL_Driver/Inc/stm32l4xx_ll_rcc.h ****   * @{
 761:Drivers/STM32L4xx_HAL_Driver/Inc/stm32l4xx_ll_rcc.h ****   */
 762:Drivers/STM32L4xx_HAL_Driver/Inc/stm32l4xx_ll_rcc.h **** #define LL_RCC_SDMMC1_CLKSOURCE            RCC_CCIPR_CLK48SEL /*!< SDMMC1 Clock source selection */
 763:Drivers/STM32L4xx_HAL_Driver/Inc/stm32l4xx_ll_rcc.h **** /**
 764:Drivers/STM32L4xx_HAL_Driver/Inc/stm32l4xx_ll_rcc.h ****   * @}
 765:Drivers/STM32L4xx_HAL_Driver/Inc/stm32l4xx_ll_rcc.h ****   */
 766:Drivers/STM32L4xx_HAL_Driver/Inc/stm32l4xx_ll_rcc.h **** #endif /* SDMMC1 */
 767:Drivers/STM32L4xx_HAL_Driver/Inc/stm32l4xx_ll_rcc.h **** 
 768:Drivers/STM32L4xx_HAL_Driver/Inc/stm32l4xx_ll_rcc.h **** /** @defgroup RCC_LL_EC_RNG  Peripheral RNG get clock source
 769:Drivers/STM32L4xx_HAL_Driver/Inc/stm32l4xx_ll_rcc.h ****   * @{
 770:Drivers/STM32L4xx_HAL_Driver/Inc/stm32l4xx_ll_rcc.h ****   */
 771:Drivers/STM32L4xx_HAL_Driver/Inc/stm32l4xx_ll_rcc.h **** #define LL_RCC_RNG_CLKSOURCE               RCC_CCIPR_CLK48SEL /*!< RNG Clock source selection */
 772:Drivers/STM32L4xx_HAL_Driver/Inc/stm32l4xx_ll_rcc.h **** /**
 773:Drivers/STM32L4xx_HAL_Driver/Inc/stm32l4xx_ll_rcc.h ****   * @}
 774:Drivers/STM32L4xx_HAL_Driver/Inc/stm32l4xx_ll_rcc.h ****   */
 775:Drivers/STM32L4xx_HAL_Driver/Inc/stm32l4xx_ll_rcc.h **** 
 776:Drivers/STM32L4xx_HAL_Driver/Inc/stm32l4xx_ll_rcc.h **** #if defined(USB_OTG_FS) || defined(USB)
 777:Drivers/STM32L4xx_HAL_Driver/Inc/stm32l4xx_ll_rcc.h **** /** @defgroup RCC_LL_EC_USB  Peripheral USB get clock source
 778:Drivers/STM32L4xx_HAL_Driver/Inc/stm32l4xx_ll_rcc.h ****   * @{
 779:Drivers/STM32L4xx_HAL_Driver/Inc/stm32l4xx_ll_rcc.h ****   */
 780:Drivers/STM32L4xx_HAL_Driver/Inc/stm32l4xx_ll_rcc.h **** #define LL_RCC_USB_CLKSOURCE               RCC_CCIPR_CLK48SEL /*!< USB Clock source selection */
 781:Drivers/STM32L4xx_HAL_Driver/Inc/stm32l4xx_ll_rcc.h **** /**
 782:Drivers/STM32L4xx_HAL_Driver/Inc/stm32l4xx_ll_rcc.h ****   * @}
ARM GAS  C:\Temp\ccAfawe4.s 			page 19


 783:Drivers/STM32L4xx_HAL_Driver/Inc/stm32l4xx_ll_rcc.h ****   */
 784:Drivers/STM32L4xx_HAL_Driver/Inc/stm32l4xx_ll_rcc.h **** #endif /* USB_OTG_FS || USB */
 785:Drivers/STM32L4xx_HAL_Driver/Inc/stm32l4xx_ll_rcc.h **** 
 786:Drivers/STM32L4xx_HAL_Driver/Inc/stm32l4xx_ll_rcc.h **** /** @defgroup RCC_LL_EC_ADC  Peripheral ADC get clock source
 787:Drivers/STM32L4xx_HAL_Driver/Inc/stm32l4xx_ll_rcc.h ****   * @{
 788:Drivers/STM32L4xx_HAL_Driver/Inc/stm32l4xx_ll_rcc.h ****   */
 789:Drivers/STM32L4xx_HAL_Driver/Inc/stm32l4xx_ll_rcc.h **** #if defined(RCC_CCIPR_ADCSEL)
 790:Drivers/STM32L4xx_HAL_Driver/Inc/stm32l4xx_ll_rcc.h **** #define LL_RCC_ADC_CLKSOURCE               RCC_CCIPR_ADCSEL /*!< ADC Clock source selection */
 791:Drivers/STM32L4xx_HAL_Driver/Inc/stm32l4xx_ll_rcc.h **** #else
 792:Drivers/STM32L4xx_HAL_Driver/Inc/stm32l4xx_ll_rcc.h **** #define LL_RCC_ADC_CLKSOURCE               0x30000000U /*!< ADC Clock source selection */
 793:Drivers/STM32L4xx_HAL_Driver/Inc/stm32l4xx_ll_rcc.h **** #endif
 794:Drivers/STM32L4xx_HAL_Driver/Inc/stm32l4xx_ll_rcc.h **** /**
 795:Drivers/STM32L4xx_HAL_Driver/Inc/stm32l4xx_ll_rcc.h ****   * @}
 796:Drivers/STM32L4xx_HAL_Driver/Inc/stm32l4xx_ll_rcc.h ****   */
 797:Drivers/STM32L4xx_HAL_Driver/Inc/stm32l4xx_ll_rcc.h **** 
 798:Drivers/STM32L4xx_HAL_Driver/Inc/stm32l4xx_ll_rcc.h **** #if defined(SWPMI1)
 799:Drivers/STM32L4xx_HAL_Driver/Inc/stm32l4xx_ll_rcc.h **** /** @defgroup RCC_LL_EC_SWPMI1  Peripheral SWPMI1 get clock source
 800:Drivers/STM32L4xx_HAL_Driver/Inc/stm32l4xx_ll_rcc.h ****   * @{
 801:Drivers/STM32L4xx_HAL_Driver/Inc/stm32l4xx_ll_rcc.h ****   */
 802:Drivers/STM32L4xx_HAL_Driver/Inc/stm32l4xx_ll_rcc.h **** #define LL_RCC_SWPMI1_CLKSOURCE            RCC_CCIPR_SWPMI1SEL /*!< SWPMI1 Clock source selection *
 803:Drivers/STM32L4xx_HAL_Driver/Inc/stm32l4xx_ll_rcc.h **** /**
 804:Drivers/STM32L4xx_HAL_Driver/Inc/stm32l4xx_ll_rcc.h ****   * @}
 805:Drivers/STM32L4xx_HAL_Driver/Inc/stm32l4xx_ll_rcc.h ****   */
 806:Drivers/STM32L4xx_HAL_Driver/Inc/stm32l4xx_ll_rcc.h **** #endif /* SWPMI1 */
 807:Drivers/STM32L4xx_HAL_Driver/Inc/stm32l4xx_ll_rcc.h **** 
 808:Drivers/STM32L4xx_HAL_Driver/Inc/stm32l4xx_ll_rcc.h **** #if defined(DFSDM1_Channel0)
 809:Drivers/STM32L4xx_HAL_Driver/Inc/stm32l4xx_ll_rcc.h **** #if defined(RCC_CCIPR2_ADFSDM1SEL)
 810:Drivers/STM32L4xx_HAL_Driver/Inc/stm32l4xx_ll_rcc.h **** /** @defgroup RCC_LL_EC_DFSDM1_AUDIO  Peripheral DFSDM1 Audio get clock source
 811:Drivers/STM32L4xx_HAL_Driver/Inc/stm32l4xx_ll_rcc.h ****   * @{
 812:Drivers/STM32L4xx_HAL_Driver/Inc/stm32l4xx_ll_rcc.h ****   */
 813:Drivers/STM32L4xx_HAL_Driver/Inc/stm32l4xx_ll_rcc.h **** #define LL_RCC_DFSDM1_AUDIO_CLKSOURCE      RCC_CCIPR2_ADFSDM1SEL /* DFSDM1 Audio Clock source selec
 814:Drivers/STM32L4xx_HAL_Driver/Inc/stm32l4xx_ll_rcc.h **** /**
 815:Drivers/STM32L4xx_HAL_Driver/Inc/stm32l4xx_ll_rcc.h ****   * @}
 816:Drivers/STM32L4xx_HAL_Driver/Inc/stm32l4xx_ll_rcc.h ****   */
 817:Drivers/STM32L4xx_HAL_Driver/Inc/stm32l4xx_ll_rcc.h **** 
 818:Drivers/STM32L4xx_HAL_Driver/Inc/stm32l4xx_ll_rcc.h **** #endif /* RCC_CCIPR2_ADFSDM1SEL */
 819:Drivers/STM32L4xx_HAL_Driver/Inc/stm32l4xx_ll_rcc.h **** /** @defgroup RCC_LL_EC_DFSDM1  Peripheral DFSDM1 get clock source
 820:Drivers/STM32L4xx_HAL_Driver/Inc/stm32l4xx_ll_rcc.h ****   * @{
 821:Drivers/STM32L4xx_HAL_Driver/Inc/stm32l4xx_ll_rcc.h ****   */
 822:Drivers/STM32L4xx_HAL_Driver/Inc/stm32l4xx_ll_rcc.h **** #if defined(RCC_CCIPR2_DFSDM1SEL)
 823:Drivers/STM32L4xx_HAL_Driver/Inc/stm32l4xx_ll_rcc.h **** #define LL_RCC_DFSDM1_CLKSOURCE            RCC_CCIPR2_DFSDM1SEL /*!< DFSDM1 Clock source selection 
 824:Drivers/STM32L4xx_HAL_Driver/Inc/stm32l4xx_ll_rcc.h **** #else
 825:Drivers/STM32L4xx_HAL_Driver/Inc/stm32l4xx_ll_rcc.h **** #define LL_RCC_DFSDM1_CLKSOURCE            RCC_CCIPR_DFSDM1SEL /*!< DFSDM1 Clock source selection *
 826:Drivers/STM32L4xx_HAL_Driver/Inc/stm32l4xx_ll_rcc.h **** #endif /* RCC_CCIPR2_DFSDM1SEL */
 827:Drivers/STM32L4xx_HAL_Driver/Inc/stm32l4xx_ll_rcc.h **** /**
 828:Drivers/STM32L4xx_HAL_Driver/Inc/stm32l4xx_ll_rcc.h ****   * @}
 829:Drivers/STM32L4xx_HAL_Driver/Inc/stm32l4xx_ll_rcc.h ****   */
 830:Drivers/STM32L4xx_HAL_Driver/Inc/stm32l4xx_ll_rcc.h **** #endif /* DFSDM1_Channel0 */
 831:Drivers/STM32L4xx_HAL_Driver/Inc/stm32l4xx_ll_rcc.h **** 
 832:Drivers/STM32L4xx_HAL_Driver/Inc/stm32l4xx_ll_rcc.h **** #if defined(DSI)
 833:Drivers/STM32L4xx_HAL_Driver/Inc/stm32l4xx_ll_rcc.h **** /** @defgroup RCC_LL_EC_DSI  Peripheral DSI get clock source
 834:Drivers/STM32L4xx_HAL_Driver/Inc/stm32l4xx_ll_rcc.h ****   * @{
 835:Drivers/STM32L4xx_HAL_Driver/Inc/stm32l4xx_ll_rcc.h ****   */
 836:Drivers/STM32L4xx_HAL_Driver/Inc/stm32l4xx_ll_rcc.h **** #define LL_RCC_DSI_CLKSOURCE               RCC_CCIPR2_DSISEL      /*!< DSI Clock source selection *
 837:Drivers/STM32L4xx_HAL_Driver/Inc/stm32l4xx_ll_rcc.h **** /**
 838:Drivers/STM32L4xx_HAL_Driver/Inc/stm32l4xx_ll_rcc.h ****   * @}
 839:Drivers/STM32L4xx_HAL_Driver/Inc/stm32l4xx_ll_rcc.h ****   */
ARM GAS  C:\Temp\ccAfawe4.s 			page 20


 840:Drivers/STM32L4xx_HAL_Driver/Inc/stm32l4xx_ll_rcc.h **** #endif /* DSI */
 841:Drivers/STM32L4xx_HAL_Driver/Inc/stm32l4xx_ll_rcc.h **** 
 842:Drivers/STM32L4xx_HAL_Driver/Inc/stm32l4xx_ll_rcc.h **** #if defined(LTDC)
 843:Drivers/STM32L4xx_HAL_Driver/Inc/stm32l4xx_ll_rcc.h **** /** @defgroup RCC_LL_EC_LTDC  Peripheral LTDC get clock source
 844:Drivers/STM32L4xx_HAL_Driver/Inc/stm32l4xx_ll_rcc.h ****   * @{
 845:Drivers/STM32L4xx_HAL_Driver/Inc/stm32l4xx_ll_rcc.h ****   */
 846:Drivers/STM32L4xx_HAL_Driver/Inc/stm32l4xx_ll_rcc.h **** #define LL_RCC_LTDC_CLKSOURCE              RCC_CCIPR2_PLLSAI2DIVR /*!< LTDC Clock source selection 
 847:Drivers/STM32L4xx_HAL_Driver/Inc/stm32l4xx_ll_rcc.h **** /**
 848:Drivers/STM32L4xx_HAL_Driver/Inc/stm32l4xx_ll_rcc.h ****   * @}
 849:Drivers/STM32L4xx_HAL_Driver/Inc/stm32l4xx_ll_rcc.h ****   */
 850:Drivers/STM32L4xx_HAL_Driver/Inc/stm32l4xx_ll_rcc.h **** #endif /* LTDC */
 851:Drivers/STM32L4xx_HAL_Driver/Inc/stm32l4xx_ll_rcc.h **** 
 852:Drivers/STM32L4xx_HAL_Driver/Inc/stm32l4xx_ll_rcc.h **** #if defined(OCTOSPI1)
 853:Drivers/STM32L4xx_HAL_Driver/Inc/stm32l4xx_ll_rcc.h **** /** @defgroup RCC_LL_EC_OCTOSPI  Peripheral OCTOSPI get clock source
 854:Drivers/STM32L4xx_HAL_Driver/Inc/stm32l4xx_ll_rcc.h ****   * @{
 855:Drivers/STM32L4xx_HAL_Driver/Inc/stm32l4xx_ll_rcc.h ****   */
 856:Drivers/STM32L4xx_HAL_Driver/Inc/stm32l4xx_ll_rcc.h **** #define LL_RCC_OCTOSPI_CLKSOURCE           RCC_CCIPR2_OSPISEL    /*!< OctoSPI Clock source selectio
 857:Drivers/STM32L4xx_HAL_Driver/Inc/stm32l4xx_ll_rcc.h **** /**
 858:Drivers/STM32L4xx_HAL_Driver/Inc/stm32l4xx_ll_rcc.h ****   * @}
 859:Drivers/STM32L4xx_HAL_Driver/Inc/stm32l4xx_ll_rcc.h ****   */
 860:Drivers/STM32L4xx_HAL_Driver/Inc/stm32l4xx_ll_rcc.h **** #endif /* OCTOSPI1 */
 861:Drivers/STM32L4xx_HAL_Driver/Inc/stm32l4xx_ll_rcc.h **** 
 862:Drivers/STM32L4xx_HAL_Driver/Inc/stm32l4xx_ll_rcc.h **** 
 863:Drivers/STM32L4xx_HAL_Driver/Inc/stm32l4xx_ll_rcc.h **** /** @defgroup RCC_LL_EC_RTC_CLKSOURCE  RTC clock source selection
 864:Drivers/STM32L4xx_HAL_Driver/Inc/stm32l4xx_ll_rcc.h ****   * @{
 865:Drivers/STM32L4xx_HAL_Driver/Inc/stm32l4xx_ll_rcc.h ****   */
 866:Drivers/STM32L4xx_HAL_Driver/Inc/stm32l4xx_ll_rcc.h **** #define LL_RCC_RTC_CLKSOURCE_NONE          0x00000000U                   /*!< No clock used as RTC 
 867:Drivers/STM32L4xx_HAL_Driver/Inc/stm32l4xx_ll_rcc.h **** #define LL_RCC_RTC_CLKSOURCE_LSE           RCC_BDCR_RTCSEL_0       /*!< LSE oscillator clock used a
 868:Drivers/STM32L4xx_HAL_Driver/Inc/stm32l4xx_ll_rcc.h **** #define LL_RCC_RTC_CLKSOURCE_LSI           RCC_BDCR_RTCSEL_1       /*!< LSI oscillator clock used a
 869:Drivers/STM32L4xx_HAL_Driver/Inc/stm32l4xx_ll_rcc.h **** #define LL_RCC_RTC_CLKSOURCE_HSE_DIV32     RCC_BDCR_RTCSEL         /*!< HSE oscillator clock divide
 870:Drivers/STM32L4xx_HAL_Driver/Inc/stm32l4xx_ll_rcc.h **** /**
 871:Drivers/STM32L4xx_HAL_Driver/Inc/stm32l4xx_ll_rcc.h ****   * @}
 872:Drivers/STM32L4xx_HAL_Driver/Inc/stm32l4xx_ll_rcc.h ****   */
 873:Drivers/STM32L4xx_HAL_Driver/Inc/stm32l4xx_ll_rcc.h **** 
 874:Drivers/STM32L4xx_HAL_Driver/Inc/stm32l4xx_ll_rcc.h **** 
 875:Drivers/STM32L4xx_HAL_Driver/Inc/stm32l4xx_ll_rcc.h **** /** @defgroup RCC_LL_EC_PLLSOURCE  PLL, PLLSAI1 and PLLSAI2 entry clock source
 876:Drivers/STM32L4xx_HAL_Driver/Inc/stm32l4xx_ll_rcc.h ****   * @{
 877:Drivers/STM32L4xx_HAL_Driver/Inc/stm32l4xx_ll_rcc.h ****   */
 878:Drivers/STM32L4xx_HAL_Driver/Inc/stm32l4xx_ll_rcc.h **** #define LL_RCC_PLLSOURCE_NONE              0x00000000U             /*!< No clock */
 879:Drivers/STM32L4xx_HAL_Driver/Inc/stm32l4xx_ll_rcc.h **** #define LL_RCC_PLLSOURCE_MSI               RCC_PLLCFGR_PLLSRC_MSI  /*!< MSI clock selected as PLL e
 880:Drivers/STM32L4xx_HAL_Driver/Inc/stm32l4xx_ll_rcc.h **** #define LL_RCC_PLLSOURCE_HSI               RCC_PLLCFGR_PLLSRC_HSI  /*!< HSI16 clock selected as PLL
 881:Drivers/STM32L4xx_HAL_Driver/Inc/stm32l4xx_ll_rcc.h **** #define LL_RCC_PLLSOURCE_HSE               RCC_PLLCFGR_PLLSRC_HSE  /*!< HSE clock selected as PLL e
 882:Drivers/STM32L4xx_HAL_Driver/Inc/stm32l4xx_ll_rcc.h **** /**
 883:Drivers/STM32L4xx_HAL_Driver/Inc/stm32l4xx_ll_rcc.h ****   * @}
 884:Drivers/STM32L4xx_HAL_Driver/Inc/stm32l4xx_ll_rcc.h ****   */
 885:Drivers/STM32L4xx_HAL_Driver/Inc/stm32l4xx_ll_rcc.h **** 
 886:Drivers/STM32L4xx_HAL_Driver/Inc/stm32l4xx_ll_rcc.h **** /** @defgroup RCC_LL_EC_PLLM_DIV  PLL division factor
 887:Drivers/STM32L4xx_HAL_Driver/Inc/stm32l4xx_ll_rcc.h ****   * @{
 888:Drivers/STM32L4xx_HAL_Driver/Inc/stm32l4xx_ll_rcc.h ****   */
 889:Drivers/STM32L4xx_HAL_Driver/Inc/stm32l4xx_ll_rcc.h **** #define LL_RCC_PLLM_DIV_1                  0x00000000U                                             
 890:Drivers/STM32L4xx_HAL_Driver/Inc/stm32l4xx_ll_rcc.h **** #define LL_RCC_PLLM_DIV_2                  (RCC_PLLCFGR_PLLM_0)                                    
 891:Drivers/STM32L4xx_HAL_Driver/Inc/stm32l4xx_ll_rcc.h **** #define LL_RCC_PLLM_DIV_3                  (RCC_PLLCFGR_PLLM_1)                                    
 892:Drivers/STM32L4xx_HAL_Driver/Inc/stm32l4xx_ll_rcc.h **** #define LL_RCC_PLLM_DIV_4                  (RCC_PLLCFGR_PLLM_1 | RCC_PLLCFGR_PLLM_0)               
 893:Drivers/STM32L4xx_HAL_Driver/Inc/stm32l4xx_ll_rcc.h **** #define LL_RCC_PLLM_DIV_5                  (RCC_PLLCFGR_PLLM_2)                                    
 894:Drivers/STM32L4xx_HAL_Driver/Inc/stm32l4xx_ll_rcc.h **** #define LL_RCC_PLLM_DIV_6                  (RCC_PLLCFGR_PLLM_2 | RCC_PLLCFGR_PLLM_0)               
 895:Drivers/STM32L4xx_HAL_Driver/Inc/stm32l4xx_ll_rcc.h **** #define LL_RCC_PLLM_DIV_7                  (RCC_PLLCFGR_PLLM_2 | RCC_PLLCFGR_PLLM_1)               
 896:Drivers/STM32L4xx_HAL_Driver/Inc/stm32l4xx_ll_rcc.h **** #define LL_RCC_PLLM_DIV_8                  (RCC_PLLCFGR_PLLM_2 | RCC_PLLCFGR_PLLM_1 | RCC_PLLCFGR_P
ARM GAS  C:\Temp\ccAfawe4.s 			page 21


 897:Drivers/STM32L4xx_HAL_Driver/Inc/stm32l4xx_ll_rcc.h **** #if defined(RCC_PLLM_DIV_1_16_SUPPORT)
 898:Drivers/STM32L4xx_HAL_Driver/Inc/stm32l4xx_ll_rcc.h **** #define LL_RCC_PLLM_DIV_9                  (RCC_PLLCFGR_PLLM_3)                                    
 899:Drivers/STM32L4xx_HAL_Driver/Inc/stm32l4xx_ll_rcc.h **** #define LL_RCC_PLLM_DIV_10                 (RCC_PLLCFGR_PLLM_3 | RCC_PLLCFGR_PLLM_0)               
 900:Drivers/STM32L4xx_HAL_Driver/Inc/stm32l4xx_ll_rcc.h **** #define LL_RCC_PLLM_DIV_11                 (RCC_PLLCFGR_PLLM_3 | RCC_PLLCFGR_PLLM_1)               
 901:Drivers/STM32L4xx_HAL_Driver/Inc/stm32l4xx_ll_rcc.h **** #define LL_RCC_PLLM_DIV_12                 (RCC_PLLCFGR_PLLM_3 | RCC_PLLCFGR_PLLM_1 | RCC_PLLCFGR_P
 902:Drivers/STM32L4xx_HAL_Driver/Inc/stm32l4xx_ll_rcc.h **** #define LL_RCC_PLLM_DIV_13                 (RCC_PLLCFGR_PLLM_3 | RCC_PLLCFGR_PLLM_2)               
 903:Drivers/STM32L4xx_HAL_Driver/Inc/stm32l4xx_ll_rcc.h **** #define LL_RCC_PLLM_DIV_14                 (RCC_PLLCFGR_PLLM_3 | RCC_PLLCFGR_PLLM_2 | RCC_PLLCFGR_P
 904:Drivers/STM32L4xx_HAL_Driver/Inc/stm32l4xx_ll_rcc.h **** #define LL_RCC_PLLM_DIV_15                 (RCC_PLLCFGR_PLLM_3 | RCC_PLLCFGR_PLLM_2 | RCC_PLLCFGR_P
 905:Drivers/STM32L4xx_HAL_Driver/Inc/stm32l4xx_ll_rcc.h **** #define LL_RCC_PLLM_DIV_16                 (RCC_PLLCFGR_PLLM_3 | RCC_PLLCFGR_PLLM_2 | RCC_PLLCFGR_P
 906:Drivers/STM32L4xx_HAL_Driver/Inc/stm32l4xx_ll_rcc.h **** #endif /* RCC_PLLM_DIV_1_16_SUPPORT */
 907:Drivers/STM32L4xx_HAL_Driver/Inc/stm32l4xx_ll_rcc.h **** /**
 908:Drivers/STM32L4xx_HAL_Driver/Inc/stm32l4xx_ll_rcc.h ****   * @}
 909:Drivers/STM32L4xx_HAL_Driver/Inc/stm32l4xx_ll_rcc.h ****   */
 910:Drivers/STM32L4xx_HAL_Driver/Inc/stm32l4xx_ll_rcc.h **** 
 911:Drivers/STM32L4xx_HAL_Driver/Inc/stm32l4xx_ll_rcc.h **** /** @defgroup RCC_LL_EC_PLLR_DIV  PLL division factor (PLLR)
 912:Drivers/STM32L4xx_HAL_Driver/Inc/stm32l4xx_ll_rcc.h ****   * @{
 913:Drivers/STM32L4xx_HAL_Driver/Inc/stm32l4xx_ll_rcc.h ****   */
 914:Drivers/STM32L4xx_HAL_Driver/Inc/stm32l4xx_ll_rcc.h **** #define LL_RCC_PLLR_DIV_2                  0x00000000U            /*!< Main PLL division factor for
 915:Drivers/STM32L4xx_HAL_Driver/Inc/stm32l4xx_ll_rcc.h **** #define LL_RCC_PLLR_DIV_4                  (RCC_PLLCFGR_PLLR_0)   /*!< Main PLL division factor for
 916:Drivers/STM32L4xx_HAL_Driver/Inc/stm32l4xx_ll_rcc.h **** #define LL_RCC_PLLR_DIV_6                  (RCC_PLLCFGR_PLLR_1)   /*!< Main PLL division factor for
 917:Drivers/STM32L4xx_HAL_Driver/Inc/stm32l4xx_ll_rcc.h **** #define LL_RCC_PLLR_DIV_8                  (RCC_PLLCFGR_PLLR)     /*!< Main PLL division factor for
 918:Drivers/STM32L4xx_HAL_Driver/Inc/stm32l4xx_ll_rcc.h **** /**
 919:Drivers/STM32L4xx_HAL_Driver/Inc/stm32l4xx_ll_rcc.h ****   * @}
 920:Drivers/STM32L4xx_HAL_Driver/Inc/stm32l4xx_ll_rcc.h ****   */
 921:Drivers/STM32L4xx_HAL_Driver/Inc/stm32l4xx_ll_rcc.h **** 
 922:Drivers/STM32L4xx_HAL_Driver/Inc/stm32l4xx_ll_rcc.h **** #if defined(RCC_PLLP_SUPPORT)
 923:Drivers/STM32L4xx_HAL_Driver/Inc/stm32l4xx_ll_rcc.h **** /** @defgroup RCC_LL_EC_PLLP_DIV  PLL division factor (PLLP)
 924:Drivers/STM32L4xx_HAL_Driver/Inc/stm32l4xx_ll_rcc.h ****   * @{
 925:Drivers/STM32L4xx_HAL_Driver/Inc/stm32l4xx_ll_rcc.h ****   */
 926:Drivers/STM32L4xx_HAL_Driver/Inc/stm32l4xx_ll_rcc.h **** #if defined(RCC_PLLP_DIV_2_31_SUPPORT)
 927:Drivers/STM32L4xx_HAL_Driver/Inc/stm32l4xx_ll_rcc.h **** #define LL_RCC_PLLP_DIV_2                  (RCC_PLLCFGR_PLLPDIV_1)                                 
 928:Drivers/STM32L4xx_HAL_Driver/Inc/stm32l4xx_ll_rcc.h **** #define LL_RCC_PLLP_DIV_3                  (RCC_PLLCFGR_PLLPDIV_1|RCC_PLLCFGR_PLLPDIV_0)           
 929:Drivers/STM32L4xx_HAL_Driver/Inc/stm32l4xx_ll_rcc.h **** #define LL_RCC_PLLP_DIV_4                  (RCC_PLLCFGR_PLLPDIV_2)                                 
 930:Drivers/STM32L4xx_HAL_Driver/Inc/stm32l4xx_ll_rcc.h **** #define LL_RCC_PLLP_DIV_5                  (RCC_PLLCFGR_PLLPDIV_2|RCC_PLLCFGR_PLLPDIV_0)           
 931:Drivers/STM32L4xx_HAL_Driver/Inc/stm32l4xx_ll_rcc.h **** #define LL_RCC_PLLP_DIV_6                  (RCC_PLLCFGR_PLLPDIV_2|RCC_PLLCFGR_PLLPDIV_1)           
 932:Drivers/STM32L4xx_HAL_Driver/Inc/stm32l4xx_ll_rcc.h **** #define LL_RCC_PLLP_DIV_7                  (RCC_PLLCFGR_PLLPDIV_2|RCC_PLLCFGR_PLLPDIV_1|RCC_PLLCFGR
 933:Drivers/STM32L4xx_HAL_Driver/Inc/stm32l4xx_ll_rcc.h **** #define LL_RCC_PLLP_DIV_8                  (RCC_PLLCFGR_PLLPDIV_3)                                 
 934:Drivers/STM32L4xx_HAL_Driver/Inc/stm32l4xx_ll_rcc.h **** #define LL_RCC_PLLP_DIV_9                  (RCC_PLLCFGR_PLLPDIV_3|RCC_PLLCFGR_PLLPDIV_0)           
 935:Drivers/STM32L4xx_HAL_Driver/Inc/stm32l4xx_ll_rcc.h **** #define LL_RCC_PLLP_DIV_10                 (RCC_PLLCFGR_PLLPDIV_3|RCC_PLLCFGR_PLLPDIV_1)           
 936:Drivers/STM32L4xx_HAL_Driver/Inc/stm32l4xx_ll_rcc.h **** #define LL_RCC_PLLP_DIV_11                 (RCC_PLLCFGR_PLLPDIV_3|RCC_PLLCFGR_PLLPDIV_1|RCC_PLLCFGR
 937:Drivers/STM32L4xx_HAL_Driver/Inc/stm32l4xx_ll_rcc.h **** #define LL_RCC_PLLP_DIV_12                 (RCC_PLLCFGR_PLLPDIV_3|RCC_PLLCFGR_PLLPDIV_2)           
 938:Drivers/STM32L4xx_HAL_Driver/Inc/stm32l4xx_ll_rcc.h **** #define LL_RCC_PLLP_DIV_13                 (RCC_PLLCFGR_PLLPDIV_3|RCC_PLLCFGR_PLLPDIV_2|RCC_PLLCFGR
 939:Drivers/STM32L4xx_HAL_Driver/Inc/stm32l4xx_ll_rcc.h **** #define LL_RCC_PLLP_DIV_14                 (RCC_PLLCFGR_PLLPDIV_3|RCC_PLLCFGR_PLLPDIV_2|RCC_PLLCFGR
 940:Drivers/STM32L4xx_HAL_Driver/Inc/stm32l4xx_ll_rcc.h **** #define LL_RCC_PLLP_DIV_15                 (RCC_PLLCFGR_PLLPDIV_3|RCC_PLLCFGR_PLLPDIV_2|RCC_PLLCFGR
 941:Drivers/STM32L4xx_HAL_Driver/Inc/stm32l4xx_ll_rcc.h **** #define LL_RCC_PLLP_DIV_16                 (RCC_PLLCFGR_PLLPDIV_4)                                 
 942:Drivers/STM32L4xx_HAL_Driver/Inc/stm32l4xx_ll_rcc.h **** #define LL_RCC_PLLP_DIV_17                 (RCC_PLLCFGR_PLLPDIV_4|RCC_PLLCFGR_PLLPDIV_0)           
 943:Drivers/STM32L4xx_HAL_Driver/Inc/stm32l4xx_ll_rcc.h **** #define LL_RCC_PLLP_DIV_18                 (RCC_PLLCFGR_PLLPDIV_4|RCC_PLLCFGR_PLLPDIV_1)           
 944:Drivers/STM32L4xx_HAL_Driver/Inc/stm32l4xx_ll_rcc.h **** #define LL_RCC_PLLP_DIV_19                 (RCC_PLLCFGR_PLLPDIV_4|RCC_PLLCFGR_PLLPDIV_1|RCC_PLLCFGR
 945:Drivers/STM32L4xx_HAL_Driver/Inc/stm32l4xx_ll_rcc.h **** #define LL_RCC_PLLP_DIV_20                 (RCC_PLLCFGR_PLLPDIV_4|RCC_PLLCFGR_PLLPDIV_2)           
 946:Drivers/STM32L4xx_HAL_Driver/Inc/stm32l4xx_ll_rcc.h **** #define LL_RCC_PLLP_DIV_21                 (RCC_PLLCFGR_PLLPDIV_4|RCC_PLLCFGR_PLLPDIV_2|RCC_PLLCFGR
 947:Drivers/STM32L4xx_HAL_Driver/Inc/stm32l4xx_ll_rcc.h **** #define LL_RCC_PLLP_DIV_22                 (RCC_PLLCFGR_PLLPDIV_4|RCC_PLLCFGR_PLLPDIV_2|RCC_PLLCFGR
 948:Drivers/STM32L4xx_HAL_Driver/Inc/stm32l4xx_ll_rcc.h **** #define LL_RCC_PLLP_DIV_23                 (RCC_PLLCFGR_PLLPDIV_4|RCC_PLLCFGR_PLLPDIV_2|RCC_PLLCFGR
 949:Drivers/STM32L4xx_HAL_Driver/Inc/stm32l4xx_ll_rcc.h **** #define LL_RCC_PLLP_DIV_24                 (RCC_PLLCFGR_PLLPDIV_4|RCC_PLLCFGR_PLLPDIV_3)           
 950:Drivers/STM32L4xx_HAL_Driver/Inc/stm32l4xx_ll_rcc.h **** #define LL_RCC_PLLP_DIV_25                 (RCC_PLLCFGR_PLLPDIV_4|RCC_PLLCFGR_PLLPDIV_3|RCC_PLLCFGR
 951:Drivers/STM32L4xx_HAL_Driver/Inc/stm32l4xx_ll_rcc.h **** #define LL_RCC_PLLP_DIV_26                 (RCC_PLLCFGR_PLLPDIV_4|RCC_PLLCFGR_PLLPDIV_3|RCC_PLLCFGR
 952:Drivers/STM32L4xx_HAL_Driver/Inc/stm32l4xx_ll_rcc.h **** #define LL_RCC_PLLP_DIV_27                 (RCC_PLLCFGR_PLLPDIV_4|RCC_PLLCFGR_PLLPDIV_3|RCC_PLLCFGR
 953:Drivers/STM32L4xx_HAL_Driver/Inc/stm32l4xx_ll_rcc.h **** #define LL_RCC_PLLP_DIV_28                 (RCC_PLLCFGR_PLLPDIV_4|RCC_PLLCFGR_PLLPDIV_3|RCC_PLLCFGR
ARM GAS  C:\Temp\ccAfawe4.s 			page 22


 954:Drivers/STM32L4xx_HAL_Driver/Inc/stm32l4xx_ll_rcc.h **** #define LL_RCC_PLLP_DIV_29                 (RCC_PLLCFGR_PLLPDIV_4|RCC_PLLCFGR_PLLPDIV_3|RCC_PLLCFGR
 955:Drivers/STM32L4xx_HAL_Driver/Inc/stm32l4xx_ll_rcc.h **** #define LL_RCC_PLLP_DIV_30                 (RCC_PLLCFGR_PLLPDIV_4|RCC_PLLCFGR_PLLPDIV_3|RCC_PLLCFGR
 956:Drivers/STM32L4xx_HAL_Driver/Inc/stm32l4xx_ll_rcc.h **** #define LL_RCC_PLLP_DIV_31                 (RCC_PLLCFGR_PLLPDIV_4|RCC_PLLCFGR_PLLPDIV_3|RCC_PLLCFGR
 957:Drivers/STM32L4xx_HAL_Driver/Inc/stm32l4xx_ll_rcc.h **** #else
 958:Drivers/STM32L4xx_HAL_Driver/Inc/stm32l4xx_ll_rcc.h **** #define LL_RCC_PLLP_DIV_7                  0x00000000U            /*!< Main PLL division factor for
 959:Drivers/STM32L4xx_HAL_Driver/Inc/stm32l4xx_ll_rcc.h **** #define LL_RCC_PLLP_DIV_17                 (RCC_PLLCFGR_PLLP)     /*!< Main PLL division factor for
 960:Drivers/STM32L4xx_HAL_Driver/Inc/stm32l4xx_ll_rcc.h **** #endif /* RCC_PLLP_DIV_2_31_SUPPORT */
 961:Drivers/STM32L4xx_HAL_Driver/Inc/stm32l4xx_ll_rcc.h **** /**
 962:Drivers/STM32L4xx_HAL_Driver/Inc/stm32l4xx_ll_rcc.h ****   * @}
 963:Drivers/STM32L4xx_HAL_Driver/Inc/stm32l4xx_ll_rcc.h ****   */
 964:Drivers/STM32L4xx_HAL_Driver/Inc/stm32l4xx_ll_rcc.h **** #endif /* RCC_PLLP_SUPPORT */
 965:Drivers/STM32L4xx_HAL_Driver/Inc/stm32l4xx_ll_rcc.h **** 
 966:Drivers/STM32L4xx_HAL_Driver/Inc/stm32l4xx_ll_rcc.h **** /** @defgroup RCC_LL_EC_PLLQ_DIV  PLL division factor (PLLQ)
 967:Drivers/STM32L4xx_HAL_Driver/Inc/stm32l4xx_ll_rcc.h ****   * @{
 968:Drivers/STM32L4xx_HAL_Driver/Inc/stm32l4xx_ll_rcc.h ****   */
 969:Drivers/STM32L4xx_HAL_Driver/Inc/stm32l4xx_ll_rcc.h **** #define LL_RCC_PLLQ_DIV_2                  0x00000000U             /*!< Main PLL division factor fo
 970:Drivers/STM32L4xx_HAL_Driver/Inc/stm32l4xx_ll_rcc.h **** #define LL_RCC_PLLQ_DIV_4                  (RCC_PLLCFGR_PLLQ_0)    /*!< Main PLL division factor fo
 971:Drivers/STM32L4xx_HAL_Driver/Inc/stm32l4xx_ll_rcc.h **** #define LL_RCC_PLLQ_DIV_6                  (RCC_PLLCFGR_PLLQ_1)    /*!< Main PLL division factor fo
 972:Drivers/STM32L4xx_HAL_Driver/Inc/stm32l4xx_ll_rcc.h **** #define LL_RCC_PLLQ_DIV_8                  (RCC_PLLCFGR_PLLQ)      /*!< Main PLL division factor fo
 973:Drivers/STM32L4xx_HAL_Driver/Inc/stm32l4xx_ll_rcc.h **** /**
 974:Drivers/STM32L4xx_HAL_Driver/Inc/stm32l4xx_ll_rcc.h ****   * @}
 975:Drivers/STM32L4xx_HAL_Driver/Inc/stm32l4xx_ll_rcc.h ****   */
 976:Drivers/STM32L4xx_HAL_Driver/Inc/stm32l4xx_ll_rcc.h **** 
 977:Drivers/STM32L4xx_HAL_Driver/Inc/stm32l4xx_ll_rcc.h **** #if defined(RCC_PLLSAI1M_DIV_1_16_SUPPORT)
 978:Drivers/STM32L4xx_HAL_Driver/Inc/stm32l4xx_ll_rcc.h **** /** @defgroup RCC_LL_EC_PLLSAI1M  PLLSAI1 division factor (PLLSAI1M)
 979:Drivers/STM32L4xx_HAL_Driver/Inc/stm32l4xx_ll_rcc.h ****   * @{
 980:Drivers/STM32L4xx_HAL_Driver/Inc/stm32l4xx_ll_rcc.h ****   */
 981:Drivers/STM32L4xx_HAL_Driver/Inc/stm32l4xx_ll_rcc.h **** #define LL_RCC_PLLSAI1M_DIV_1              0x00000000U                                             
 982:Drivers/STM32L4xx_HAL_Driver/Inc/stm32l4xx_ll_rcc.h **** #define LL_RCC_PLLSAI1M_DIV_2              (RCC_PLLSAI1CFGR_PLLSAI1M_0)                            
 983:Drivers/STM32L4xx_HAL_Driver/Inc/stm32l4xx_ll_rcc.h **** #define LL_RCC_PLLSAI1M_DIV_3              (RCC_PLLSAI1CFGR_PLLSAI1M_1)                            
 984:Drivers/STM32L4xx_HAL_Driver/Inc/stm32l4xx_ll_rcc.h **** #define LL_RCC_PLLSAI1M_DIV_4              (RCC_PLLSAI1CFGR_PLLSAI1M_1|RCC_PLLSAI1CFGR_PLLSAI1M_0) 
 985:Drivers/STM32L4xx_HAL_Driver/Inc/stm32l4xx_ll_rcc.h **** #define LL_RCC_PLLSAI1M_DIV_5              (RCC_PLLSAI1CFGR_PLLSAI1M_2)                            
 986:Drivers/STM32L4xx_HAL_Driver/Inc/stm32l4xx_ll_rcc.h **** #define LL_RCC_PLLSAI1M_DIV_6              (RCC_PLLSAI1CFGR_PLLSAI1M_2|RCC_PLLSAI1CFGR_PLLSAI1M_0) 
 987:Drivers/STM32L4xx_HAL_Driver/Inc/stm32l4xx_ll_rcc.h **** #define LL_RCC_PLLSAI1M_DIV_7              (RCC_PLLSAI1CFGR_PLLSAI1M_2|RCC_PLLSAI1CFGR_PLLSAI1M_1) 
 988:Drivers/STM32L4xx_HAL_Driver/Inc/stm32l4xx_ll_rcc.h **** #define LL_RCC_PLLSAI1M_DIV_8              (RCC_PLLSAI1CFGR_PLLSAI1M_2|RCC_PLLSAI1CFGR_PLLSAI1M_1|R
 989:Drivers/STM32L4xx_HAL_Driver/Inc/stm32l4xx_ll_rcc.h **** #define LL_RCC_PLLSAI1M_DIV_9              (RCC_PLLSAI1CFGR_PLLSAI1M_3)                            
 990:Drivers/STM32L4xx_HAL_Driver/Inc/stm32l4xx_ll_rcc.h **** #define LL_RCC_PLLSAI1M_DIV_10             (RCC_PLLSAI1CFGR_PLLSAI1M_3|RCC_PLLSAI1CFGR_PLLSAI1M_0) 
 991:Drivers/STM32L4xx_HAL_Driver/Inc/stm32l4xx_ll_rcc.h **** #define LL_RCC_PLLSAI1M_DIV_11             (RCC_PLLSAI1CFGR_PLLSAI1M_3|RCC_PLLSAI1CFGR_PLLSAI1M_1) 
 992:Drivers/STM32L4xx_HAL_Driver/Inc/stm32l4xx_ll_rcc.h **** #define LL_RCC_PLLSAI1M_DIV_12             (RCC_PLLSAI1CFGR_PLLSAI1M_3|RCC_PLLSAI1CFGR_PLLSAI1M_1|R
 993:Drivers/STM32L4xx_HAL_Driver/Inc/stm32l4xx_ll_rcc.h **** #define LL_RCC_PLLSAI1M_DIV_13             (RCC_PLLSAI1CFGR_PLLSAI1M_3|RCC_PLLSAI1CFGR_PLLSAI1M_2) 
 994:Drivers/STM32L4xx_HAL_Driver/Inc/stm32l4xx_ll_rcc.h **** #define LL_RCC_PLLSAI1M_DIV_14             (RCC_PLLSAI1CFGR_PLLSAI1M_3|RCC_PLLSAI1CFGR_PLLSAI1M_2|R
 995:Drivers/STM32L4xx_HAL_Driver/Inc/stm32l4xx_ll_rcc.h **** #define LL_RCC_PLLSAI1M_DIV_15             (RCC_PLLSAI1CFGR_PLLSAI1M_3|RCC_PLLSAI1CFGR_PLLSAI1M_2|R
 996:Drivers/STM32L4xx_HAL_Driver/Inc/stm32l4xx_ll_rcc.h **** #define LL_RCC_PLLSAI1M_DIV_16             (RCC_PLLSAI1CFGR_PLLSAI1M_3|RCC_PLLSAI1CFGR_PLLSAI1M_2|R
 997:Drivers/STM32L4xx_HAL_Driver/Inc/stm32l4xx_ll_rcc.h **** /**
 998:Drivers/STM32L4xx_HAL_Driver/Inc/stm32l4xx_ll_rcc.h ****   * @}
 999:Drivers/STM32L4xx_HAL_Driver/Inc/stm32l4xx_ll_rcc.h ****   */
1000:Drivers/STM32L4xx_HAL_Driver/Inc/stm32l4xx_ll_rcc.h **** #endif /* RCC_PLLSAI1M_DIV_1_16_SUPPORT */
1001:Drivers/STM32L4xx_HAL_Driver/Inc/stm32l4xx_ll_rcc.h **** 
1002:Drivers/STM32L4xx_HAL_Driver/Inc/stm32l4xx_ll_rcc.h **** #if defined(RCC_PLLSAI1_SUPPORT)
1003:Drivers/STM32L4xx_HAL_Driver/Inc/stm32l4xx_ll_rcc.h **** /** @defgroup RCC_LL_EC_PLLSAI1Q  PLLSAI1 division factor (PLLSAI1Q)
1004:Drivers/STM32L4xx_HAL_Driver/Inc/stm32l4xx_ll_rcc.h ****   * @{
1005:Drivers/STM32L4xx_HAL_Driver/Inc/stm32l4xx_ll_rcc.h ****   */
1006:Drivers/STM32L4xx_HAL_Driver/Inc/stm32l4xx_ll_rcc.h **** #define LL_RCC_PLLSAI1Q_DIV_2              0x00000000U                  /*!< PLLSAI1 division facto
1007:Drivers/STM32L4xx_HAL_Driver/Inc/stm32l4xx_ll_rcc.h **** #define LL_RCC_PLLSAI1Q_DIV_4              (RCC_PLLSAI1CFGR_PLLSAI1Q_0) /*!< PLLSAI1 division facto
1008:Drivers/STM32L4xx_HAL_Driver/Inc/stm32l4xx_ll_rcc.h **** #define LL_RCC_PLLSAI1Q_DIV_6              (RCC_PLLSAI1CFGR_PLLSAI1Q_1) /*!< PLLSAI1 division facto
1009:Drivers/STM32L4xx_HAL_Driver/Inc/stm32l4xx_ll_rcc.h **** #define LL_RCC_PLLSAI1Q_DIV_8              (RCC_PLLSAI1CFGR_PLLSAI1Q)   /*!< PLLSAI1 division facto
1010:Drivers/STM32L4xx_HAL_Driver/Inc/stm32l4xx_ll_rcc.h **** /**
ARM GAS  C:\Temp\ccAfawe4.s 			page 23


1011:Drivers/STM32L4xx_HAL_Driver/Inc/stm32l4xx_ll_rcc.h ****   * @}
1012:Drivers/STM32L4xx_HAL_Driver/Inc/stm32l4xx_ll_rcc.h ****   */
1013:Drivers/STM32L4xx_HAL_Driver/Inc/stm32l4xx_ll_rcc.h **** 
1014:Drivers/STM32L4xx_HAL_Driver/Inc/stm32l4xx_ll_rcc.h **** /** @defgroup RCC_LL_EC_PLLSAI1P  PLLSAI1 division factor (PLLSAI1P)
1015:Drivers/STM32L4xx_HAL_Driver/Inc/stm32l4xx_ll_rcc.h ****   * @{
1016:Drivers/STM32L4xx_HAL_Driver/Inc/stm32l4xx_ll_rcc.h ****   */
1017:Drivers/STM32L4xx_HAL_Driver/Inc/stm32l4xx_ll_rcc.h **** #if defined(RCC_PLLSAI1P_DIV_2_31_SUPPORT)
1018:Drivers/STM32L4xx_HAL_Driver/Inc/stm32l4xx_ll_rcc.h **** #define LL_RCC_PLLSAI1P_DIV_2              (RCC_PLLSAI1CFGR_PLLSAI1PDIV_1)                         
1019:Drivers/STM32L4xx_HAL_Driver/Inc/stm32l4xx_ll_rcc.h **** #define LL_RCC_PLLSAI1P_DIV_3              (RCC_PLLSAI1CFGR_PLLSAI1PDIV_1|RCC_PLLSAI1CFGR_PLLSAI1PD
1020:Drivers/STM32L4xx_HAL_Driver/Inc/stm32l4xx_ll_rcc.h **** #define LL_RCC_PLLSAI1P_DIV_4              (RCC_PLLSAI1CFGR_PLLSAI1PDIV_2)                         
1021:Drivers/STM32L4xx_HAL_Driver/Inc/stm32l4xx_ll_rcc.h **** #define LL_RCC_PLLSAI1P_DIV_5              (RCC_PLLSAI1CFGR_PLLSAI1PDIV_2|RCC_PLLSAI1CFGR_PLLSAI1PD
1022:Drivers/STM32L4xx_HAL_Driver/Inc/stm32l4xx_ll_rcc.h **** #define LL_RCC_PLLSAI1P_DIV_6              (RCC_PLLSAI1CFGR_PLLSAI1PDIV_2|RCC_PLLSAI1CFGR_PLLSAI1PD
1023:Drivers/STM32L4xx_HAL_Driver/Inc/stm32l4xx_ll_rcc.h **** #define LL_RCC_PLLSAI1P_DIV_7              (RCC_PLLSAI1CFGR_PLLSAI1PDIV_2|RCC_PLLSAI1CFGR_PLLSAI1PD
1024:Drivers/STM32L4xx_HAL_Driver/Inc/stm32l4xx_ll_rcc.h **** #define LL_RCC_PLLSAI1P_DIV_8              (RCC_PLLSAI1CFGR_PLLSAI1PDIV_3)                         
1025:Drivers/STM32L4xx_HAL_Driver/Inc/stm32l4xx_ll_rcc.h **** #define LL_RCC_PLLSAI1P_DIV_9              (RCC_PLLSAI1CFGR_PLLSAI1PDIV_3|RCC_PLLSAI1CFGR_PLLSAI1PD
1026:Drivers/STM32L4xx_HAL_Driver/Inc/stm32l4xx_ll_rcc.h **** #define LL_RCC_PLLSAI1P_DIV_10             (RCC_PLLSAI1CFGR_PLLSAI1PDIV_3|RCC_PLLSAI1CFGR_PLLSAI1PD
1027:Drivers/STM32L4xx_HAL_Driver/Inc/stm32l4xx_ll_rcc.h **** #define LL_RCC_PLLSAI1P_DIV_11             (RCC_PLLSAI1CFGR_PLLSAI1PDIV_3|RCC_PLLSAI1CFGR_PLLSAI1PD
1028:Drivers/STM32L4xx_HAL_Driver/Inc/stm32l4xx_ll_rcc.h **** #define LL_RCC_PLLSAI1P_DIV_12             (RCC_PLLSAI1CFGR_PLLSAI1PDIV_3|RCC_PLLSAI1CFGR_PLLSAI1PD
1029:Drivers/STM32L4xx_HAL_Driver/Inc/stm32l4xx_ll_rcc.h **** #define LL_RCC_PLLSAI1P_DIV_13             (RCC_PLLSAI1CFGR_PLLSAI1PDIV_3|RCC_PLLSAI1CFGR_PLLSAI1PD
1030:Drivers/STM32L4xx_HAL_Driver/Inc/stm32l4xx_ll_rcc.h **** #define LL_RCC_PLLSAI1P_DIV_14             (RCC_PLLSAI1CFGR_PLLSAI1PDIV_3|RCC_PLLSAI1CFGR_PLLSAI1PD
1031:Drivers/STM32L4xx_HAL_Driver/Inc/stm32l4xx_ll_rcc.h **** #define LL_RCC_PLLSAI1P_DIV_15             (RCC_PLLSAI1CFGR_PLLSAI1PDIV_3|RCC_PLLSAI1CFGR_PLLSAI1PD
1032:Drivers/STM32L4xx_HAL_Driver/Inc/stm32l4xx_ll_rcc.h **** #define LL_RCC_PLLSAI1P_DIV_16             (RCC_PLLSAI1CFGR_PLLSAI1PDIV_4)                         
1033:Drivers/STM32L4xx_HAL_Driver/Inc/stm32l4xx_ll_rcc.h **** #define LL_RCC_PLLSAI1P_DIV_17             (RCC_PLLSAI1CFGR_PLLSAI1PDIV_4|RCC_PLLSAI1CFGR_PLLSAI1PD
1034:Drivers/STM32L4xx_HAL_Driver/Inc/stm32l4xx_ll_rcc.h **** #define LL_RCC_PLLSAI1P_DIV_18             (RCC_PLLSAI1CFGR_PLLSAI1PDIV_4|RCC_PLLSAI1CFGR_PLLSAI1PD
1035:Drivers/STM32L4xx_HAL_Driver/Inc/stm32l4xx_ll_rcc.h **** #define LL_RCC_PLLSAI1P_DIV_19             (RCC_PLLSAI1CFGR_PLLSAI1PDIV_4|RCC_PLLSAI1CFGR_PLLSAI1PD
1036:Drivers/STM32L4xx_HAL_Driver/Inc/stm32l4xx_ll_rcc.h **** #define LL_RCC_PLLSAI1P_DIV_20             (RCC_PLLSAI1CFGR_PLLSAI1PDIV_4|RCC_PLLSAI1CFGR_PLLSAI1PD
1037:Drivers/STM32L4xx_HAL_Driver/Inc/stm32l4xx_ll_rcc.h **** #define LL_RCC_PLLSAI1P_DIV_21             (RCC_PLLSAI1CFGR_PLLSAI1PDIV_4|RCC_PLLSAI1CFGR_PLLSAI1PD
1038:Drivers/STM32L4xx_HAL_Driver/Inc/stm32l4xx_ll_rcc.h **** #define LL_RCC_PLLSAI1P_DIV_22             (RCC_PLLSAI1CFGR_PLLSAI1PDIV_4|RCC_PLLSAI1CFGR_PLLSAI1PD
1039:Drivers/STM32L4xx_HAL_Driver/Inc/stm32l4xx_ll_rcc.h **** #define LL_RCC_PLLSAI1P_DIV_23             (RCC_PLLSAI1CFGR_PLLSAI1PDIV_4|RCC_PLLSAI1CFGR_PLLSAI1PD
1040:Drivers/STM32L4xx_HAL_Driver/Inc/stm32l4xx_ll_rcc.h **** #define LL_RCC_PLLSAI1P_DIV_24             (RCC_PLLSAI1CFGR_PLLSAI1PDIV_4|RCC_PLLSAI1CFGR_PLLSAI1PD
1041:Drivers/STM32L4xx_HAL_Driver/Inc/stm32l4xx_ll_rcc.h **** #define LL_RCC_PLLSAI1P_DIV_25             (RCC_PLLSAI1CFGR_PLLSAI1PDIV_4|RCC_PLLSAI1CFGR_PLLSAI1PD
1042:Drivers/STM32L4xx_HAL_Driver/Inc/stm32l4xx_ll_rcc.h **** #define LL_RCC_PLLSAI1P_DIV_26             (RCC_PLLSAI1CFGR_PLLSAI1PDIV_4|RCC_PLLSAI1CFGR_PLLSAI1PD
1043:Drivers/STM32L4xx_HAL_Driver/Inc/stm32l4xx_ll_rcc.h **** #define LL_RCC_PLLSAI1P_DIV_27             (RCC_PLLSAI1CFGR_PLLSAI1PDIV_4|RCC_PLLSAI1CFGR_PLLSAI1PD
1044:Drivers/STM32L4xx_HAL_Driver/Inc/stm32l4xx_ll_rcc.h **** #define LL_RCC_PLLSAI1P_DIV_28             (RCC_PLLSAI1CFGR_PLLSAI1PDIV_4|RCC_PLLSAI1CFGR_PLLSAI1PD
1045:Drivers/STM32L4xx_HAL_Driver/Inc/stm32l4xx_ll_rcc.h **** #define LL_RCC_PLLSAI1P_DIV_29             (RCC_PLLSAI1CFGR_PLLSAI1PDIV_4|RCC_PLLSAI1CFGR_PLLSAI1PD
1046:Drivers/STM32L4xx_HAL_Driver/Inc/stm32l4xx_ll_rcc.h **** #define LL_RCC_PLLSAI1P_DIV_30             (RCC_PLLSAI1CFGR_PLLSAI1PDIV_4|RCC_PLLSAI1CFGR_PLLSAI1PD
1047:Drivers/STM32L4xx_HAL_Driver/Inc/stm32l4xx_ll_rcc.h **** #define LL_RCC_PLLSAI1P_DIV_31             (RCC_PLLSAI1CFGR_PLLSAI1PDIV_4|RCC_PLLSAI1CFGR_PLLSAI1PD
1048:Drivers/STM32L4xx_HAL_Driver/Inc/stm32l4xx_ll_rcc.h **** #else
1049:Drivers/STM32L4xx_HAL_Driver/Inc/stm32l4xx_ll_rcc.h **** #define LL_RCC_PLLSAI1P_DIV_7              0x00000000U                /*!< PLLSAI1 division factor 
1050:Drivers/STM32L4xx_HAL_Driver/Inc/stm32l4xx_ll_rcc.h **** #define LL_RCC_PLLSAI1P_DIV_17             (RCC_PLLSAI1CFGR_PLLSAI1P) /*!< PLLSAI1 division factor 
1051:Drivers/STM32L4xx_HAL_Driver/Inc/stm32l4xx_ll_rcc.h **** #endif /* RCC_PLLSAI1P_DIV_2_31_SUPPORT */
1052:Drivers/STM32L4xx_HAL_Driver/Inc/stm32l4xx_ll_rcc.h **** /**
1053:Drivers/STM32L4xx_HAL_Driver/Inc/stm32l4xx_ll_rcc.h ****   * @}
1054:Drivers/STM32L4xx_HAL_Driver/Inc/stm32l4xx_ll_rcc.h ****   */
1055:Drivers/STM32L4xx_HAL_Driver/Inc/stm32l4xx_ll_rcc.h **** 
1056:Drivers/STM32L4xx_HAL_Driver/Inc/stm32l4xx_ll_rcc.h **** /** @defgroup RCC_LL_EC_PLLSAI1R  PLLSAI1 division factor (PLLSAI1R)
1057:Drivers/STM32L4xx_HAL_Driver/Inc/stm32l4xx_ll_rcc.h ****   * @{
1058:Drivers/STM32L4xx_HAL_Driver/Inc/stm32l4xx_ll_rcc.h ****   */
1059:Drivers/STM32L4xx_HAL_Driver/Inc/stm32l4xx_ll_rcc.h **** #define LL_RCC_PLLSAI1R_DIV_2              0x00000000U                  /*!< PLLSAI1 division facto
1060:Drivers/STM32L4xx_HAL_Driver/Inc/stm32l4xx_ll_rcc.h **** #define LL_RCC_PLLSAI1R_DIV_4              (RCC_PLLSAI1CFGR_PLLSAI1R_0) /*!< PLLSAI1 division facto
1061:Drivers/STM32L4xx_HAL_Driver/Inc/stm32l4xx_ll_rcc.h **** #define LL_RCC_PLLSAI1R_DIV_6              (RCC_PLLSAI1CFGR_PLLSAI1R_1) /*!< PLLSAI1 division facto
1062:Drivers/STM32L4xx_HAL_Driver/Inc/stm32l4xx_ll_rcc.h **** #define LL_RCC_PLLSAI1R_DIV_8              (RCC_PLLSAI1CFGR_PLLSAI1R)   /*!< PLLSAI1 division facto
1063:Drivers/STM32L4xx_HAL_Driver/Inc/stm32l4xx_ll_rcc.h **** /**
1064:Drivers/STM32L4xx_HAL_Driver/Inc/stm32l4xx_ll_rcc.h ****   * @}
1065:Drivers/STM32L4xx_HAL_Driver/Inc/stm32l4xx_ll_rcc.h ****   */
1066:Drivers/STM32L4xx_HAL_Driver/Inc/stm32l4xx_ll_rcc.h **** #endif /* RCC_PLLSAI1_SUPPORT */
1067:Drivers/STM32L4xx_HAL_Driver/Inc/stm32l4xx_ll_rcc.h **** 
ARM GAS  C:\Temp\ccAfawe4.s 			page 24


1068:Drivers/STM32L4xx_HAL_Driver/Inc/stm32l4xx_ll_rcc.h **** #if defined(RCC_PLLSAI2_SUPPORT)
1069:Drivers/STM32L4xx_HAL_Driver/Inc/stm32l4xx_ll_rcc.h **** #if defined(RCC_PLLSAI2M_DIV_1_16_SUPPORT)
1070:Drivers/STM32L4xx_HAL_Driver/Inc/stm32l4xx_ll_rcc.h **** /** @defgroup RCC_LL_EC_PLLSAI2M  PLLSAI1 division factor (PLLSAI2M)
1071:Drivers/STM32L4xx_HAL_Driver/Inc/stm32l4xx_ll_rcc.h ****   * @{
1072:Drivers/STM32L4xx_HAL_Driver/Inc/stm32l4xx_ll_rcc.h ****   */
1073:Drivers/STM32L4xx_HAL_Driver/Inc/stm32l4xx_ll_rcc.h **** #define LL_RCC_PLLSAI2M_DIV_1              0x00000000U                                             
1074:Drivers/STM32L4xx_HAL_Driver/Inc/stm32l4xx_ll_rcc.h **** #define LL_RCC_PLLSAI2M_DIV_2              (RCC_PLLSAI2CFGR_PLLSAI2M_0)                            
1075:Drivers/STM32L4xx_HAL_Driver/Inc/stm32l4xx_ll_rcc.h **** #define LL_RCC_PLLSAI2M_DIV_3              (RCC_PLLSAI2CFGR_PLLSAI2M_1)                            
1076:Drivers/STM32L4xx_HAL_Driver/Inc/stm32l4xx_ll_rcc.h **** #define LL_RCC_PLLSAI2M_DIV_4              (RCC_PLLSAI2CFGR_PLLSAI2M_1|RCC_PLLSAI2CFGR_PLLSAI2M_0) 
1077:Drivers/STM32L4xx_HAL_Driver/Inc/stm32l4xx_ll_rcc.h **** #define LL_RCC_PLLSAI2M_DIV_5              (RCC_PLLSAI2CFGR_PLLSAI2M_2)                            
1078:Drivers/STM32L4xx_HAL_Driver/Inc/stm32l4xx_ll_rcc.h **** #define LL_RCC_PLLSAI2M_DIV_6              (RCC_PLLSAI2CFGR_PLLSAI2M_2|RCC_PLLSAI2CFGR_PLLSAI2M_0) 
1079:Drivers/STM32L4xx_HAL_Driver/Inc/stm32l4xx_ll_rcc.h **** #define LL_RCC_PLLSAI2M_DIV_7              (RCC_PLLSAI2CFGR_PLLSAI2M_2|RCC_PLLSAI2CFGR_PLLSAI2M_1) 
1080:Drivers/STM32L4xx_HAL_Driver/Inc/stm32l4xx_ll_rcc.h **** #define LL_RCC_PLLSAI2M_DIV_8              (RCC_PLLSAI2CFGR_PLLSAI2M_2|RCC_PLLSAI2CFGR_PLLSAI2M_1|R
1081:Drivers/STM32L4xx_HAL_Driver/Inc/stm32l4xx_ll_rcc.h **** #define LL_RCC_PLLSAI2M_DIV_9              (RCC_PLLSAI2CFGR_PLLSAI2M_3)                            
1082:Drivers/STM32L4xx_HAL_Driver/Inc/stm32l4xx_ll_rcc.h **** #define LL_RCC_PLLSAI2M_DIV_10             (RCC_PLLSAI2CFGR_PLLSAI2M_3|RCC_PLLSAI2CFGR_PLLSAI2M_0) 
1083:Drivers/STM32L4xx_HAL_Driver/Inc/stm32l4xx_ll_rcc.h **** #define LL_RCC_PLLSAI2M_DIV_11             (RCC_PLLSAI2CFGR_PLLSAI2M_3|RCC_PLLSAI2CFGR_PLLSAI2M_1) 
1084:Drivers/STM32L4xx_HAL_Driver/Inc/stm32l4xx_ll_rcc.h **** #define LL_RCC_PLLSAI2M_DIV_12             (RCC_PLLSAI2CFGR_PLLSAI2M_3|RCC_PLLSAI2CFGR_PLLSAI2M_1|R
1085:Drivers/STM32L4xx_HAL_Driver/Inc/stm32l4xx_ll_rcc.h **** #define LL_RCC_PLLSAI2M_DIV_13             (RCC_PLLSAI2CFGR_PLLSAI2M_3|RCC_PLLSAI2CFGR_PLLSAI2M_2) 
1086:Drivers/STM32L4xx_HAL_Driver/Inc/stm32l4xx_ll_rcc.h **** #define LL_RCC_PLLSAI2M_DIV_14             (RCC_PLLSAI2CFGR_PLLSAI2M_3|RCC_PLLSAI2CFGR_PLLSAI2M_2|R
1087:Drivers/STM32L4xx_HAL_Driver/Inc/stm32l4xx_ll_rcc.h **** #define LL_RCC_PLLSAI2M_DIV_15             (RCC_PLLSAI2CFGR_PLLSAI2M_3|RCC_PLLSAI2CFGR_PLLSAI2M_2|R
1088:Drivers/STM32L4xx_HAL_Driver/Inc/stm32l4xx_ll_rcc.h **** #define LL_RCC_PLLSAI2M_DIV_16             (RCC_PLLSAI2CFGR_PLLSAI2M_3|RCC_PLLSAI2CFGR_PLLSAI2M_2|R
1089:Drivers/STM32L4xx_HAL_Driver/Inc/stm32l4xx_ll_rcc.h **** /**
1090:Drivers/STM32L4xx_HAL_Driver/Inc/stm32l4xx_ll_rcc.h ****   * @}
1091:Drivers/STM32L4xx_HAL_Driver/Inc/stm32l4xx_ll_rcc.h ****   */
1092:Drivers/STM32L4xx_HAL_Driver/Inc/stm32l4xx_ll_rcc.h **** #endif /* RCC_PLLSAI2M_DIV_1_16_SUPPORT */
1093:Drivers/STM32L4xx_HAL_Driver/Inc/stm32l4xx_ll_rcc.h **** 
1094:Drivers/STM32L4xx_HAL_Driver/Inc/stm32l4xx_ll_rcc.h **** #if defined(RCC_PLLSAI2Q_DIV_SUPPORT)
1095:Drivers/STM32L4xx_HAL_Driver/Inc/stm32l4xx_ll_rcc.h **** /** @defgroup RCC_LL_EC_PLLSAI2Q  PLLSAI2 division factor (PLLSAI2Q)
1096:Drivers/STM32L4xx_HAL_Driver/Inc/stm32l4xx_ll_rcc.h ****   * @{
1097:Drivers/STM32L4xx_HAL_Driver/Inc/stm32l4xx_ll_rcc.h ****   */
1098:Drivers/STM32L4xx_HAL_Driver/Inc/stm32l4xx_ll_rcc.h **** #define LL_RCC_PLLSAI2Q_DIV_2              0x00000000U                  /*!< PLLSAI2 division facto
1099:Drivers/STM32L4xx_HAL_Driver/Inc/stm32l4xx_ll_rcc.h **** #define LL_RCC_PLLSAI2Q_DIV_4              (RCC_PLLSAI2CFGR_PLLSAI2Q_0) /*!< PLLSAI2 division facto
1100:Drivers/STM32L4xx_HAL_Driver/Inc/stm32l4xx_ll_rcc.h **** #define LL_RCC_PLLSAI2Q_DIV_6              (RCC_PLLSAI2CFGR_PLLSAI2Q_1) /*!< PLLSAI2 division facto
1101:Drivers/STM32L4xx_HAL_Driver/Inc/stm32l4xx_ll_rcc.h **** #define LL_RCC_PLLSAI2Q_DIV_8              (RCC_PLLSAI2CFGR_PLLSAI2Q)   /*!< PLLSAI2 division facto
1102:Drivers/STM32L4xx_HAL_Driver/Inc/stm32l4xx_ll_rcc.h **** /**
1103:Drivers/STM32L4xx_HAL_Driver/Inc/stm32l4xx_ll_rcc.h ****   * @}
1104:Drivers/STM32L4xx_HAL_Driver/Inc/stm32l4xx_ll_rcc.h ****   */
1105:Drivers/STM32L4xx_HAL_Driver/Inc/stm32l4xx_ll_rcc.h **** #endif /* RCC_PLLSAI2Q_DIV_SUPPORT */
1106:Drivers/STM32L4xx_HAL_Driver/Inc/stm32l4xx_ll_rcc.h **** 
1107:Drivers/STM32L4xx_HAL_Driver/Inc/stm32l4xx_ll_rcc.h **** /** @defgroup RCC_LL_EC_PLLSAI2P  PLLSAI2 division factor (PLLSAI2P)
1108:Drivers/STM32L4xx_HAL_Driver/Inc/stm32l4xx_ll_rcc.h ****   * @{
1109:Drivers/STM32L4xx_HAL_Driver/Inc/stm32l4xx_ll_rcc.h ****   */
1110:Drivers/STM32L4xx_HAL_Driver/Inc/stm32l4xx_ll_rcc.h **** #if defined(RCC_PLLSAI2P_DIV_2_31_SUPPORT)
1111:Drivers/STM32L4xx_HAL_Driver/Inc/stm32l4xx_ll_rcc.h **** #define LL_RCC_PLLSAI2P_DIV_2              (RCC_PLLSAI2CFGR_PLLSAI2PDIV_1)                         
1112:Drivers/STM32L4xx_HAL_Driver/Inc/stm32l4xx_ll_rcc.h **** #define LL_RCC_PLLSAI2P_DIV_3              (RCC_PLLSAI2CFGR_PLLSAI2PDIV_1|RCC_PLLSAI2CFGR_PLLSAI2PD
1113:Drivers/STM32L4xx_HAL_Driver/Inc/stm32l4xx_ll_rcc.h **** #define LL_RCC_PLLSAI2P_DIV_4              (RCC_PLLSAI2CFGR_PLLSAI2PDIV_2)                         
1114:Drivers/STM32L4xx_HAL_Driver/Inc/stm32l4xx_ll_rcc.h **** #define LL_RCC_PLLSAI2P_DIV_5              (RCC_PLLSAI2CFGR_PLLSAI2PDIV_2|RCC_PLLSAI2CFGR_PLLSAI2PD
1115:Drivers/STM32L4xx_HAL_Driver/Inc/stm32l4xx_ll_rcc.h **** #define LL_RCC_PLLSAI2P_DIV_6              (RCC_PLLSAI2CFGR_PLLSAI2PDIV_2|RCC_PLLSAI2CFGR_PLLSAI2PD
1116:Drivers/STM32L4xx_HAL_Driver/Inc/stm32l4xx_ll_rcc.h **** #define LL_RCC_PLLSAI2P_DIV_7              (RCC_PLLSAI2CFGR_PLLSAI2PDIV_2|RCC_PLLSAI2CFGR_PLLSAI2PD
1117:Drivers/STM32L4xx_HAL_Driver/Inc/stm32l4xx_ll_rcc.h **** #define LL_RCC_PLLSAI2P_DIV_8              (RCC_PLLSAI2CFGR_PLLSAI2PDIV_3)                         
1118:Drivers/STM32L4xx_HAL_Driver/Inc/stm32l4xx_ll_rcc.h **** #define LL_RCC_PLLSAI2P_DIV_9              (RCC_PLLSAI2CFGR_PLLSAI2PDIV_3|RCC_PLLSAI2CFGR_PLLSAI2PD
1119:Drivers/STM32L4xx_HAL_Driver/Inc/stm32l4xx_ll_rcc.h **** #define LL_RCC_PLLSAI2P_DIV_10             (RCC_PLLSAI2CFGR_PLLSAI2PDIV_3|RCC_PLLSAI2CFGR_PLLSAI2PD
1120:Drivers/STM32L4xx_HAL_Driver/Inc/stm32l4xx_ll_rcc.h **** #define LL_RCC_PLLSAI2P_DIV_11             (RCC_PLLSAI2CFGR_PLLSAI2PDIV_3|RCC_PLLSAI2CFGR_PLLSAI2PD
1121:Drivers/STM32L4xx_HAL_Driver/Inc/stm32l4xx_ll_rcc.h **** #define LL_RCC_PLLSAI2P_DIV_12             (RCC_PLLSAI2CFGR_PLLSAI2PDIV_3|RCC_PLLSAI2CFGR_PLLSAI2PD
1122:Drivers/STM32L4xx_HAL_Driver/Inc/stm32l4xx_ll_rcc.h **** #define LL_RCC_PLLSAI2P_DIV_13             (RCC_PLLSAI2CFGR_PLLSAI2PDIV_3|RCC_PLLSAI2CFGR_PLLSAI2PD
1123:Drivers/STM32L4xx_HAL_Driver/Inc/stm32l4xx_ll_rcc.h **** #define LL_RCC_PLLSAI2P_DIV_14             (RCC_PLLSAI2CFGR_PLLSAI2PDIV_3|RCC_PLLSAI2CFGR_PLLSAI2PD
1124:Drivers/STM32L4xx_HAL_Driver/Inc/stm32l4xx_ll_rcc.h **** #define LL_RCC_PLLSAI2P_DIV_15             (RCC_PLLSAI2CFGR_PLLSAI2PDIV_3|RCC_PLLSAI2CFGR_PLLSAI2PD
ARM GAS  C:\Temp\ccAfawe4.s 			page 25


1125:Drivers/STM32L4xx_HAL_Driver/Inc/stm32l4xx_ll_rcc.h **** #define LL_RCC_PLLSAI2P_DIV_16             (RCC_PLLSAI2CFGR_PLLSAI2PDIV_4)                         
1126:Drivers/STM32L4xx_HAL_Driver/Inc/stm32l4xx_ll_rcc.h **** #define LL_RCC_PLLSAI2P_DIV_17             (RCC_PLLSAI2CFGR_PLLSAI2PDIV_4|RCC_PLLSAI2CFGR_PLLSAI2PD
1127:Drivers/STM32L4xx_HAL_Driver/Inc/stm32l4xx_ll_rcc.h **** #define LL_RCC_PLLSAI2P_DIV_18             (RCC_PLLSAI2CFGR_PLLSAI2PDIV_4|RCC_PLLSAI2CFGR_PLLSAI2PD
1128:Drivers/STM32L4xx_HAL_Driver/Inc/stm32l4xx_ll_rcc.h **** #define LL_RCC_PLLSAI2P_DIV_19             (RCC_PLLSAI2CFGR_PLLSAI2PDIV_4|RCC_PLLSAI2CFGR_PLLSAI2PD
1129:Drivers/STM32L4xx_HAL_Driver/Inc/stm32l4xx_ll_rcc.h **** #define LL_RCC_PLLSAI2P_DIV_20             (RCC_PLLSAI2CFGR_PLLSAI2PDIV_4|RCC_PLLSAI2CFGR_PLLSAI2PD
1130:Drivers/STM32L4xx_HAL_Driver/Inc/stm32l4xx_ll_rcc.h **** #define LL_RCC_PLLSAI2P_DIV_21             (RCC_PLLSAI2CFGR_PLLSAI2PDIV_4|RCC_PLLSAI2CFGR_PLLSAI2PD
1131:Drivers/STM32L4xx_HAL_Driver/Inc/stm32l4xx_ll_rcc.h **** #define LL_RCC_PLLSAI2P_DIV_22             (RCC_PLLSAI2CFGR_PLLSAI2PDIV_4|RCC_PLLSAI2CFGR_PLLSAI2PD
1132:Drivers/STM32L4xx_HAL_Driver/Inc/stm32l4xx_ll_rcc.h **** #define LL_RCC_PLLSAI2P_DIV_23             (RCC_PLLSAI2CFGR_PLLSAI2PDIV_4|RCC_PLLSAI2CFGR_PLLSAI2PD
1133:Drivers/STM32L4xx_HAL_Driver/Inc/stm32l4xx_ll_rcc.h **** #define LL_RCC_PLLSAI2P_DIV_24             (RCC_PLLSAI2CFGR_PLLSAI2PDIV_4|RCC_PLLSAI2CFGR_PLLSAI2PD
1134:Drivers/STM32L4xx_HAL_Driver/Inc/stm32l4xx_ll_rcc.h **** #define LL_RCC_PLLSAI2P_DIV_25             (RCC_PLLSAI2CFGR_PLLSAI2PDIV_4|RCC_PLLSAI2CFGR_PLLSAI2PD
1135:Drivers/STM32L4xx_HAL_Driver/Inc/stm32l4xx_ll_rcc.h **** #define LL_RCC_PLLSAI2P_DIV_26             (RCC_PLLSAI2CFGR_PLLSAI2PDIV_4|RCC_PLLSAI2CFGR_PLLSAI2PD
1136:Drivers/STM32L4xx_HAL_Driver/Inc/stm32l4xx_ll_rcc.h **** #define LL_RCC_PLLSAI2P_DIV_27             (RCC_PLLSAI2CFGR_PLLSAI2PDIV_4|RCC_PLLSAI2CFGR_PLLSAI2PD
1137:Drivers/STM32L4xx_HAL_Driver/Inc/stm32l4xx_ll_rcc.h **** #define LL_RCC_PLLSAI2P_DIV_28             (RCC_PLLSAI2CFGR_PLLSAI2PDIV_4|RCC_PLLSAI2CFGR_PLLSAI2PD
1138:Drivers/STM32L4xx_HAL_Driver/Inc/stm32l4xx_ll_rcc.h **** #define LL_RCC_PLLSAI2P_DIV_29             (RCC_PLLSAI2CFGR_PLLSAI2PDIV_4|RCC_PLLSAI2CFGR_PLLSAI2PD
1139:Drivers/STM32L4xx_HAL_Driver/Inc/stm32l4xx_ll_rcc.h **** #define LL_RCC_PLLSAI2P_DIV_30             (RCC_PLLSAI2CFGR_PLLSAI2PDIV_4|RCC_PLLSAI2CFGR_PLLSAI2PD
1140:Drivers/STM32L4xx_HAL_Driver/Inc/stm32l4xx_ll_rcc.h **** #define LL_RCC_PLLSAI2P_DIV_31             (RCC_PLLSAI2CFGR_PLLSAI2PDIV_4|RCC_PLLSAI2CFGR_PLLSAI2PD
1141:Drivers/STM32L4xx_HAL_Driver/Inc/stm32l4xx_ll_rcc.h **** #else
1142:Drivers/STM32L4xx_HAL_Driver/Inc/stm32l4xx_ll_rcc.h **** #define LL_RCC_PLLSAI2P_DIV_7              0x00000000U                /*!< PLLSAI2 division factor 
1143:Drivers/STM32L4xx_HAL_Driver/Inc/stm32l4xx_ll_rcc.h **** #define LL_RCC_PLLSAI2P_DIV_17             (RCC_PLLSAI2CFGR_PLLSAI2P) /*!< PLLSAI2 division factor 
1144:Drivers/STM32L4xx_HAL_Driver/Inc/stm32l4xx_ll_rcc.h **** #endif /* RCC_PLLSAI2P_DIV_2_31_SUPPORT */
1145:Drivers/STM32L4xx_HAL_Driver/Inc/stm32l4xx_ll_rcc.h **** /**
1146:Drivers/STM32L4xx_HAL_Driver/Inc/stm32l4xx_ll_rcc.h ****   * @}
1147:Drivers/STM32L4xx_HAL_Driver/Inc/stm32l4xx_ll_rcc.h ****   */
1148:Drivers/STM32L4xx_HAL_Driver/Inc/stm32l4xx_ll_rcc.h **** 
1149:Drivers/STM32L4xx_HAL_Driver/Inc/stm32l4xx_ll_rcc.h **** /** @defgroup RCC_LL_EC_PLLSAI2R  PLLSAI2 division factor (PLLSAI2R)
1150:Drivers/STM32L4xx_HAL_Driver/Inc/stm32l4xx_ll_rcc.h ****   * @{
1151:Drivers/STM32L4xx_HAL_Driver/Inc/stm32l4xx_ll_rcc.h ****   */
1152:Drivers/STM32L4xx_HAL_Driver/Inc/stm32l4xx_ll_rcc.h **** #define LL_RCC_PLLSAI2R_DIV_2              0x00000000U                  /*!< PLLSAI2 division facto
1153:Drivers/STM32L4xx_HAL_Driver/Inc/stm32l4xx_ll_rcc.h **** #define LL_RCC_PLLSAI2R_DIV_4              (RCC_PLLSAI2CFGR_PLLSAI2R_0) /*!< PLLSAI2 division facto
1154:Drivers/STM32L4xx_HAL_Driver/Inc/stm32l4xx_ll_rcc.h **** #define LL_RCC_PLLSAI2R_DIV_6              (RCC_PLLSAI2CFGR_PLLSAI2R_1) /*!< PLLSAI2 division facto
1155:Drivers/STM32L4xx_HAL_Driver/Inc/stm32l4xx_ll_rcc.h **** #define LL_RCC_PLLSAI2R_DIV_8              (RCC_PLLSAI2CFGR_PLLSAI2R)   /*!< PLLSAI2 division facto
1156:Drivers/STM32L4xx_HAL_Driver/Inc/stm32l4xx_ll_rcc.h **** /**
1157:Drivers/STM32L4xx_HAL_Driver/Inc/stm32l4xx_ll_rcc.h ****   * @}
1158:Drivers/STM32L4xx_HAL_Driver/Inc/stm32l4xx_ll_rcc.h ****   */
1159:Drivers/STM32L4xx_HAL_Driver/Inc/stm32l4xx_ll_rcc.h **** 
1160:Drivers/STM32L4xx_HAL_Driver/Inc/stm32l4xx_ll_rcc.h **** #if defined(RCC_CCIPR2_PLLSAI2DIVR)
1161:Drivers/STM32L4xx_HAL_Driver/Inc/stm32l4xx_ll_rcc.h **** /** @defgroup RCC_LL_EC_PLLSAI2DIVR  PLLSAI2DIVR division factor (PLLSAI2DIVR)
1162:Drivers/STM32L4xx_HAL_Driver/Inc/stm32l4xx_ll_rcc.h ****   * @{
1163:Drivers/STM32L4xx_HAL_Driver/Inc/stm32l4xx_ll_rcc.h ****   */
1164:Drivers/STM32L4xx_HAL_Driver/Inc/stm32l4xx_ll_rcc.h **** #define LL_RCC_PLLSAI2DIVR_DIV_2           0x00000000U                     /*!< PLLSAI2 division fa
1165:Drivers/STM32L4xx_HAL_Driver/Inc/stm32l4xx_ll_rcc.h **** #define LL_RCC_PLLSAI2DIVR_DIV_4           RCC_CCIPR2_PLLSAI2DIVR_0        /*!< PLLSAI2 division fa
1166:Drivers/STM32L4xx_HAL_Driver/Inc/stm32l4xx_ll_rcc.h **** #define LL_RCC_PLLSAI2DIVR_DIV_8           RCC_CCIPR2_PLLSAI2DIVR_1        /*!< PLLSAI2 division fa
1167:Drivers/STM32L4xx_HAL_Driver/Inc/stm32l4xx_ll_rcc.h **** #define LL_RCC_PLLSAI2DIVR_DIV_16          (RCC_CCIPR2_PLLSAI2DIVR_1 | RCC_CCIPR2_PLLSAI2DIVR_0) /*
1168:Drivers/STM32L4xx_HAL_Driver/Inc/stm32l4xx_ll_rcc.h **** /**
1169:Drivers/STM32L4xx_HAL_Driver/Inc/stm32l4xx_ll_rcc.h ****   * @}
1170:Drivers/STM32L4xx_HAL_Driver/Inc/stm32l4xx_ll_rcc.h ****   */
1171:Drivers/STM32L4xx_HAL_Driver/Inc/stm32l4xx_ll_rcc.h **** #endif /* RCC_CCIPR2_PLLSAI2DIVR */
1172:Drivers/STM32L4xx_HAL_Driver/Inc/stm32l4xx_ll_rcc.h **** #endif /* RCC_PLLSAI2_SUPPORT */
1173:Drivers/STM32L4xx_HAL_Driver/Inc/stm32l4xx_ll_rcc.h **** 
1174:Drivers/STM32L4xx_HAL_Driver/Inc/stm32l4xx_ll_rcc.h **** /** @defgroup RCC_LL_EC_MSIRANGESEL  MSI clock range selection
1175:Drivers/STM32L4xx_HAL_Driver/Inc/stm32l4xx_ll_rcc.h ****   * @{
1176:Drivers/STM32L4xx_HAL_Driver/Inc/stm32l4xx_ll_rcc.h ****   */
1177:Drivers/STM32L4xx_HAL_Driver/Inc/stm32l4xx_ll_rcc.h **** #define LL_RCC_MSIRANGESEL_STANDBY         0U                  /*!< MSI Range is provided by MSISRA
1178:Drivers/STM32L4xx_HAL_Driver/Inc/stm32l4xx_ll_rcc.h **** #define LL_RCC_MSIRANGESEL_RUN             1U                  /*!< MSI Range is provided by MSIRAN
1179:Drivers/STM32L4xx_HAL_Driver/Inc/stm32l4xx_ll_rcc.h **** /**
1180:Drivers/STM32L4xx_HAL_Driver/Inc/stm32l4xx_ll_rcc.h ****   * @}
1181:Drivers/STM32L4xx_HAL_Driver/Inc/stm32l4xx_ll_rcc.h ****   */
ARM GAS  C:\Temp\ccAfawe4.s 			page 26


1182:Drivers/STM32L4xx_HAL_Driver/Inc/stm32l4xx_ll_rcc.h **** 
1183:Drivers/STM32L4xx_HAL_Driver/Inc/stm32l4xx_ll_rcc.h **** #if defined(RCC_CSR_LSIPREDIV)
1184:Drivers/STM32L4xx_HAL_Driver/Inc/stm32l4xx_ll_rcc.h **** /** @defgroup RCC_LL_EC_LSIPREDIV  LSI division factor
1185:Drivers/STM32L4xx_HAL_Driver/Inc/stm32l4xx_ll_rcc.h ****   * @{
1186:Drivers/STM32L4xx_HAL_Driver/Inc/stm32l4xx_ll_rcc.h ****   */
1187:Drivers/STM32L4xx_HAL_Driver/Inc/stm32l4xx_ll_rcc.h **** #define LL_RCC_LSI_PREDIV_1                0x00000000U         /*!< LSI division factor by 1   */
1188:Drivers/STM32L4xx_HAL_Driver/Inc/stm32l4xx_ll_rcc.h **** #define LL_RCC_LSI_PREDIV_128              RCC_CSR_LSIPREDIV   /*!< LSI division factor by 128 */
1189:Drivers/STM32L4xx_HAL_Driver/Inc/stm32l4xx_ll_rcc.h **** /**
1190:Drivers/STM32L4xx_HAL_Driver/Inc/stm32l4xx_ll_rcc.h ****   * @}
1191:Drivers/STM32L4xx_HAL_Driver/Inc/stm32l4xx_ll_rcc.h ****   */
1192:Drivers/STM32L4xx_HAL_Driver/Inc/stm32l4xx_ll_rcc.h **** #endif /* RCC_CSR_LSIPREDIV */
1193:Drivers/STM32L4xx_HAL_Driver/Inc/stm32l4xx_ll_rcc.h **** 
1194:Drivers/STM32L4xx_HAL_Driver/Inc/stm32l4xx_ll_rcc.h **** /** Legacy definitions for compatibility purpose
1195:Drivers/STM32L4xx_HAL_Driver/Inc/stm32l4xx_ll_rcc.h **** @cond 0
1196:Drivers/STM32L4xx_HAL_Driver/Inc/stm32l4xx_ll_rcc.h **** */
1197:Drivers/STM32L4xx_HAL_Driver/Inc/stm32l4xx_ll_rcc.h **** #if defined(DFSDM1_Channel0)
1198:Drivers/STM32L4xx_HAL_Driver/Inc/stm32l4xx_ll_rcc.h **** #define LL_RCC_DFSDM1_CLKSOURCE_PCLK       LL_RCC_DFSDM1_CLKSOURCE_PCLK2
1199:Drivers/STM32L4xx_HAL_Driver/Inc/stm32l4xx_ll_rcc.h **** #define LL_RCC_DFSDM_CLKSOURCE_PCLK        LL_RCC_DFSDM1_CLKSOURCE_PCLK2
1200:Drivers/STM32L4xx_HAL_Driver/Inc/stm32l4xx_ll_rcc.h **** #define LL_RCC_DFSDM_CLKSOURCE_SYSCLK      LL_RCC_DFSDM1_CLKSOURCE_SYSCLK
1201:Drivers/STM32L4xx_HAL_Driver/Inc/stm32l4xx_ll_rcc.h **** #define LL_RCC_DFSDM_CLKSOURCE             LL_RCC_DFSDM1_CLKSOURCE
1202:Drivers/STM32L4xx_HAL_Driver/Inc/stm32l4xx_ll_rcc.h **** #endif /* DFSDM1_Channel0 */
1203:Drivers/STM32L4xx_HAL_Driver/Inc/stm32l4xx_ll_rcc.h **** #if defined(SWPMI1)
1204:Drivers/STM32L4xx_HAL_Driver/Inc/stm32l4xx_ll_rcc.h **** #define LL_RCC_SWPMI1_CLKSOURCE_PCLK       LL_RCC_SWPMI1_CLKSOURCE_PCLK1
1205:Drivers/STM32L4xx_HAL_Driver/Inc/stm32l4xx_ll_rcc.h **** #endif /* SWPMI1 */
1206:Drivers/STM32L4xx_HAL_Driver/Inc/stm32l4xx_ll_rcc.h **** /**
1207:Drivers/STM32L4xx_HAL_Driver/Inc/stm32l4xx_ll_rcc.h **** @endcond
1208:Drivers/STM32L4xx_HAL_Driver/Inc/stm32l4xx_ll_rcc.h ****   */
1209:Drivers/STM32L4xx_HAL_Driver/Inc/stm32l4xx_ll_rcc.h **** 
1210:Drivers/STM32L4xx_HAL_Driver/Inc/stm32l4xx_ll_rcc.h **** /**
1211:Drivers/STM32L4xx_HAL_Driver/Inc/stm32l4xx_ll_rcc.h ****   * @}
1212:Drivers/STM32L4xx_HAL_Driver/Inc/stm32l4xx_ll_rcc.h ****   */
1213:Drivers/STM32L4xx_HAL_Driver/Inc/stm32l4xx_ll_rcc.h **** 
1214:Drivers/STM32L4xx_HAL_Driver/Inc/stm32l4xx_ll_rcc.h **** /* Exported macro ------------------------------------------------------------*/
1215:Drivers/STM32L4xx_HAL_Driver/Inc/stm32l4xx_ll_rcc.h **** /** @defgroup RCC_LL_Exported_Macros RCC Exported Macros
1216:Drivers/STM32L4xx_HAL_Driver/Inc/stm32l4xx_ll_rcc.h ****   * @{
1217:Drivers/STM32L4xx_HAL_Driver/Inc/stm32l4xx_ll_rcc.h ****   */
1218:Drivers/STM32L4xx_HAL_Driver/Inc/stm32l4xx_ll_rcc.h **** 
1219:Drivers/STM32L4xx_HAL_Driver/Inc/stm32l4xx_ll_rcc.h **** /** @defgroup RCC_LL_EM_WRITE_READ Common Write and read registers Macros
1220:Drivers/STM32L4xx_HAL_Driver/Inc/stm32l4xx_ll_rcc.h ****   * @{
1221:Drivers/STM32L4xx_HAL_Driver/Inc/stm32l4xx_ll_rcc.h ****   */
1222:Drivers/STM32L4xx_HAL_Driver/Inc/stm32l4xx_ll_rcc.h **** 
1223:Drivers/STM32L4xx_HAL_Driver/Inc/stm32l4xx_ll_rcc.h **** /**
1224:Drivers/STM32L4xx_HAL_Driver/Inc/stm32l4xx_ll_rcc.h ****   * @brief  Write a value in RCC register
1225:Drivers/STM32L4xx_HAL_Driver/Inc/stm32l4xx_ll_rcc.h ****   * @param  __REG__ Register to be written
1226:Drivers/STM32L4xx_HAL_Driver/Inc/stm32l4xx_ll_rcc.h ****   * @param  __VALUE__ Value to be written in the register
1227:Drivers/STM32L4xx_HAL_Driver/Inc/stm32l4xx_ll_rcc.h ****   * @retval None
1228:Drivers/STM32L4xx_HAL_Driver/Inc/stm32l4xx_ll_rcc.h ****   */
1229:Drivers/STM32L4xx_HAL_Driver/Inc/stm32l4xx_ll_rcc.h **** #define LL_RCC_WriteReg(__REG__, __VALUE__) WRITE_REG(RCC->__REG__, (__VALUE__))
1230:Drivers/STM32L4xx_HAL_Driver/Inc/stm32l4xx_ll_rcc.h **** 
1231:Drivers/STM32L4xx_HAL_Driver/Inc/stm32l4xx_ll_rcc.h **** /**
1232:Drivers/STM32L4xx_HAL_Driver/Inc/stm32l4xx_ll_rcc.h ****   * @brief  Read a value in RCC register
1233:Drivers/STM32L4xx_HAL_Driver/Inc/stm32l4xx_ll_rcc.h ****   * @param  __REG__ Register to be read
1234:Drivers/STM32L4xx_HAL_Driver/Inc/stm32l4xx_ll_rcc.h ****   * @retval Register value
1235:Drivers/STM32L4xx_HAL_Driver/Inc/stm32l4xx_ll_rcc.h ****   */
1236:Drivers/STM32L4xx_HAL_Driver/Inc/stm32l4xx_ll_rcc.h **** #define LL_RCC_ReadReg(__REG__) READ_REG(RCC->__REG__)
1237:Drivers/STM32L4xx_HAL_Driver/Inc/stm32l4xx_ll_rcc.h **** /**
1238:Drivers/STM32L4xx_HAL_Driver/Inc/stm32l4xx_ll_rcc.h ****   * @}
ARM GAS  C:\Temp\ccAfawe4.s 			page 27


1239:Drivers/STM32L4xx_HAL_Driver/Inc/stm32l4xx_ll_rcc.h ****   */
1240:Drivers/STM32L4xx_HAL_Driver/Inc/stm32l4xx_ll_rcc.h **** 
1241:Drivers/STM32L4xx_HAL_Driver/Inc/stm32l4xx_ll_rcc.h **** /** @defgroup RCC_LL_EM_CALC_FREQ Calculate frequencies
1242:Drivers/STM32L4xx_HAL_Driver/Inc/stm32l4xx_ll_rcc.h ****   * @{
1243:Drivers/STM32L4xx_HAL_Driver/Inc/stm32l4xx_ll_rcc.h ****   */
1244:Drivers/STM32L4xx_HAL_Driver/Inc/stm32l4xx_ll_rcc.h **** 
1245:Drivers/STM32L4xx_HAL_Driver/Inc/stm32l4xx_ll_rcc.h **** /**
1246:Drivers/STM32L4xx_HAL_Driver/Inc/stm32l4xx_ll_rcc.h ****   * @brief  Helper macro to calculate the PLLCLK frequency on system domain
1247:Drivers/STM32L4xx_HAL_Driver/Inc/stm32l4xx_ll_rcc.h ****   * @note ex: @ref __LL_RCC_CALC_PLLCLK_FREQ (HSE_VALUE,@ref LL_RCC_PLL_GetDivider (),
1248:Drivers/STM32L4xx_HAL_Driver/Inc/stm32l4xx_ll_rcc.h ****   *             @ref LL_RCC_PLL_GetN (), @ref LL_RCC_PLL_GetR ());
1249:Drivers/STM32L4xx_HAL_Driver/Inc/stm32l4xx_ll_rcc.h ****   * @param  __INPUTFREQ__ PLL Input frequency (based on MSI/HSE/HSI)
1250:Drivers/STM32L4xx_HAL_Driver/Inc/stm32l4xx_ll_rcc.h ****   * @param  __PLLM__ This parameter can be one of the following values:
1251:Drivers/STM32L4xx_HAL_Driver/Inc/stm32l4xx_ll_rcc.h ****   *         @arg @ref LL_RCC_PLLM_DIV_1
1252:Drivers/STM32L4xx_HAL_Driver/Inc/stm32l4xx_ll_rcc.h ****   *         @arg @ref LL_RCC_PLLM_DIV_2
1253:Drivers/STM32L4xx_HAL_Driver/Inc/stm32l4xx_ll_rcc.h ****   *         @arg @ref LL_RCC_PLLM_DIV_3
1254:Drivers/STM32L4xx_HAL_Driver/Inc/stm32l4xx_ll_rcc.h ****   *         @arg @ref LL_RCC_PLLM_DIV_4
1255:Drivers/STM32L4xx_HAL_Driver/Inc/stm32l4xx_ll_rcc.h ****   *         @arg @ref LL_RCC_PLLM_DIV_5
1256:Drivers/STM32L4xx_HAL_Driver/Inc/stm32l4xx_ll_rcc.h ****   *         @arg @ref LL_RCC_PLLM_DIV_6
1257:Drivers/STM32L4xx_HAL_Driver/Inc/stm32l4xx_ll_rcc.h ****   *         @arg @ref LL_RCC_PLLM_DIV_7
1258:Drivers/STM32L4xx_HAL_Driver/Inc/stm32l4xx_ll_rcc.h ****   *         @arg @ref LL_RCC_PLLM_DIV_8
1259:Drivers/STM32L4xx_HAL_Driver/Inc/stm32l4xx_ll_rcc.h ****   *         @arg @ref LL_RCC_PLLM_DIV_9 (*)
1260:Drivers/STM32L4xx_HAL_Driver/Inc/stm32l4xx_ll_rcc.h ****   *         @arg @ref LL_RCC_PLLM_DIV_10 (*)
1261:Drivers/STM32L4xx_HAL_Driver/Inc/stm32l4xx_ll_rcc.h ****   *         @arg @ref LL_RCC_PLLM_DIV_11 (*)
1262:Drivers/STM32L4xx_HAL_Driver/Inc/stm32l4xx_ll_rcc.h ****   *         @arg @ref LL_RCC_PLLM_DIV_12 (*)
1263:Drivers/STM32L4xx_HAL_Driver/Inc/stm32l4xx_ll_rcc.h ****   *         @arg @ref LL_RCC_PLLM_DIV_13 (*)
1264:Drivers/STM32L4xx_HAL_Driver/Inc/stm32l4xx_ll_rcc.h ****   *         @arg @ref LL_RCC_PLLM_DIV_14 (*)
1265:Drivers/STM32L4xx_HAL_Driver/Inc/stm32l4xx_ll_rcc.h ****   *         @arg @ref LL_RCC_PLLM_DIV_15 (*)
1266:Drivers/STM32L4xx_HAL_Driver/Inc/stm32l4xx_ll_rcc.h ****   *         @arg @ref LL_RCC_PLLM_DIV_16 (*)
1267:Drivers/STM32L4xx_HAL_Driver/Inc/stm32l4xx_ll_rcc.h ****   *
1268:Drivers/STM32L4xx_HAL_Driver/Inc/stm32l4xx_ll_rcc.h ****   *         (*) value not defined in all devices.
1269:Drivers/STM32L4xx_HAL_Driver/Inc/stm32l4xx_ll_rcc.h ****   * @param  __PLLN__ Between 8 and 86 or 127 depending on devices
1270:Drivers/STM32L4xx_HAL_Driver/Inc/stm32l4xx_ll_rcc.h ****   * @param  __PLLR__ This parameter can be one of the following values:
1271:Drivers/STM32L4xx_HAL_Driver/Inc/stm32l4xx_ll_rcc.h ****   *         @arg @ref LL_RCC_PLLR_DIV_2
1272:Drivers/STM32L4xx_HAL_Driver/Inc/stm32l4xx_ll_rcc.h ****   *         @arg @ref LL_RCC_PLLR_DIV_4
1273:Drivers/STM32L4xx_HAL_Driver/Inc/stm32l4xx_ll_rcc.h ****   *         @arg @ref LL_RCC_PLLR_DIV_6
1274:Drivers/STM32L4xx_HAL_Driver/Inc/stm32l4xx_ll_rcc.h ****   *         @arg @ref LL_RCC_PLLR_DIV_8
1275:Drivers/STM32L4xx_HAL_Driver/Inc/stm32l4xx_ll_rcc.h ****   * @retval PLL clock frequency (in Hz)
1276:Drivers/STM32L4xx_HAL_Driver/Inc/stm32l4xx_ll_rcc.h ****   */
1277:Drivers/STM32L4xx_HAL_Driver/Inc/stm32l4xx_ll_rcc.h **** #define __LL_RCC_CALC_PLLCLK_FREQ(__INPUTFREQ__, __PLLM__, __PLLN__, __PLLR__) ((__INPUTFREQ__) / (
1278:Drivers/STM32L4xx_HAL_Driver/Inc/stm32l4xx_ll_rcc.h ****                    ((((__PLLR__) >> RCC_PLLCFGR_PLLR_Pos) + 1U) * 2U))
1279:Drivers/STM32L4xx_HAL_Driver/Inc/stm32l4xx_ll_rcc.h **** 
1280:Drivers/STM32L4xx_HAL_Driver/Inc/stm32l4xx_ll_rcc.h **** #if defined(RCC_PLLSAI1_SUPPORT)
1281:Drivers/STM32L4xx_HAL_Driver/Inc/stm32l4xx_ll_rcc.h **** #if defined(RCC_PLLP_DIV_2_31_SUPPORT)
1282:Drivers/STM32L4xx_HAL_Driver/Inc/stm32l4xx_ll_rcc.h **** /**
1283:Drivers/STM32L4xx_HAL_Driver/Inc/stm32l4xx_ll_rcc.h ****   * @brief  Helper macro to calculate the PLLCLK frequency used on SAI domain
1284:Drivers/STM32L4xx_HAL_Driver/Inc/stm32l4xx_ll_rcc.h ****   * @note ex: @ref __LL_RCC_CALC_PLLCLK_SAI_FREQ (HSE_VALUE,@ref LL_RCC_PLL_GetDivider (),
1285:Drivers/STM32L4xx_HAL_Driver/Inc/stm32l4xx_ll_rcc.h ****   *             @ref LL_RCC_PLL_GetN (), @ref LL_RCC_PLL_GetP ());
1286:Drivers/STM32L4xx_HAL_Driver/Inc/stm32l4xx_ll_rcc.h ****   * @param  __INPUTFREQ__ PLL Input frequency (based on MSI/HSE/HSI)
1287:Drivers/STM32L4xx_HAL_Driver/Inc/stm32l4xx_ll_rcc.h ****   * @param  __PLLM__ This parameter can be one of the following values:
1288:Drivers/STM32L4xx_HAL_Driver/Inc/stm32l4xx_ll_rcc.h ****   *         @arg @ref LL_RCC_PLLM_DIV_1
1289:Drivers/STM32L4xx_HAL_Driver/Inc/stm32l4xx_ll_rcc.h ****   *         @arg @ref LL_RCC_PLLM_DIV_2
1290:Drivers/STM32L4xx_HAL_Driver/Inc/stm32l4xx_ll_rcc.h ****   *         @arg @ref LL_RCC_PLLM_DIV_3
1291:Drivers/STM32L4xx_HAL_Driver/Inc/stm32l4xx_ll_rcc.h ****   *         @arg @ref LL_RCC_PLLM_DIV_4
1292:Drivers/STM32L4xx_HAL_Driver/Inc/stm32l4xx_ll_rcc.h ****   *         @arg @ref LL_RCC_PLLM_DIV_5
1293:Drivers/STM32L4xx_HAL_Driver/Inc/stm32l4xx_ll_rcc.h ****   *         @arg @ref LL_RCC_PLLM_DIV_6
1294:Drivers/STM32L4xx_HAL_Driver/Inc/stm32l4xx_ll_rcc.h ****   *         @arg @ref LL_RCC_PLLM_DIV_7
1295:Drivers/STM32L4xx_HAL_Driver/Inc/stm32l4xx_ll_rcc.h ****   *         @arg @ref LL_RCC_PLLM_DIV_8
ARM GAS  C:\Temp\ccAfawe4.s 			page 28


1296:Drivers/STM32L4xx_HAL_Driver/Inc/stm32l4xx_ll_rcc.h ****   *         @arg @ref LL_RCC_PLLM_DIV_9 (*)
1297:Drivers/STM32L4xx_HAL_Driver/Inc/stm32l4xx_ll_rcc.h ****   *         @arg @ref LL_RCC_PLLM_DIV_10 (*)
1298:Drivers/STM32L4xx_HAL_Driver/Inc/stm32l4xx_ll_rcc.h ****   *         @arg @ref LL_RCC_PLLM_DIV_11 (*)
1299:Drivers/STM32L4xx_HAL_Driver/Inc/stm32l4xx_ll_rcc.h ****   *         @arg @ref LL_RCC_PLLM_DIV_12 (*)
1300:Drivers/STM32L4xx_HAL_Driver/Inc/stm32l4xx_ll_rcc.h ****   *         @arg @ref LL_RCC_PLLM_DIV_13 (*)
1301:Drivers/STM32L4xx_HAL_Driver/Inc/stm32l4xx_ll_rcc.h ****   *         @arg @ref LL_RCC_PLLM_DIV_14 (*)
1302:Drivers/STM32L4xx_HAL_Driver/Inc/stm32l4xx_ll_rcc.h ****   *         @arg @ref LL_RCC_PLLM_DIV_15 (*)
1303:Drivers/STM32L4xx_HAL_Driver/Inc/stm32l4xx_ll_rcc.h ****   *         @arg @ref LL_RCC_PLLM_DIV_16 (*)
1304:Drivers/STM32L4xx_HAL_Driver/Inc/stm32l4xx_ll_rcc.h ****   *
1305:Drivers/STM32L4xx_HAL_Driver/Inc/stm32l4xx_ll_rcc.h ****   *         (*) value not defined in all devices.
1306:Drivers/STM32L4xx_HAL_Driver/Inc/stm32l4xx_ll_rcc.h ****   * @param  __PLLN__ Between 8 and 86 or 127 depending on devices
1307:Drivers/STM32L4xx_HAL_Driver/Inc/stm32l4xx_ll_rcc.h ****   * @param  __PLLP__ This parameter can be one of the following values:
1308:Drivers/STM32L4xx_HAL_Driver/Inc/stm32l4xx_ll_rcc.h ****   *         @arg @ref LL_RCC_PLLP_DIV_2
1309:Drivers/STM32L4xx_HAL_Driver/Inc/stm32l4xx_ll_rcc.h ****   *         @arg @ref LL_RCC_PLLP_DIV_3
1310:Drivers/STM32L4xx_HAL_Driver/Inc/stm32l4xx_ll_rcc.h ****   *         @arg @ref LL_RCC_PLLP_DIV_4
1311:Drivers/STM32L4xx_HAL_Driver/Inc/stm32l4xx_ll_rcc.h ****   *         @arg @ref LL_RCC_PLLP_DIV_5
1312:Drivers/STM32L4xx_HAL_Driver/Inc/stm32l4xx_ll_rcc.h ****   *         @arg @ref LL_RCC_PLLP_DIV_6
1313:Drivers/STM32L4xx_HAL_Driver/Inc/stm32l4xx_ll_rcc.h ****   *         @arg @ref LL_RCC_PLLP_DIV_7
1314:Drivers/STM32L4xx_HAL_Driver/Inc/stm32l4xx_ll_rcc.h ****   *         @arg @ref LL_RCC_PLLP_DIV_8
1315:Drivers/STM32L4xx_HAL_Driver/Inc/stm32l4xx_ll_rcc.h ****   *         @arg @ref LL_RCC_PLLP_DIV_9
1316:Drivers/STM32L4xx_HAL_Driver/Inc/stm32l4xx_ll_rcc.h ****   *         @arg @ref LL_RCC_PLLP_DIV_10
1317:Drivers/STM32L4xx_HAL_Driver/Inc/stm32l4xx_ll_rcc.h ****   *         @arg @ref LL_RCC_PLLP_DIV_11
1318:Drivers/STM32L4xx_HAL_Driver/Inc/stm32l4xx_ll_rcc.h ****   *         @arg @ref LL_RCC_PLLP_DIV_12
1319:Drivers/STM32L4xx_HAL_Driver/Inc/stm32l4xx_ll_rcc.h ****   *         @arg @ref LL_RCC_PLLP_DIV_13
1320:Drivers/STM32L4xx_HAL_Driver/Inc/stm32l4xx_ll_rcc.h ****   *         @arg @ref LL_RCC_PLLP_DIV_14
1321:Drivers/STM32L4xx_HAL_Driver/Inc/stm32l4xx_ll_rcc.h ****   *         @arg @ref LL_RCC_PLLP_DIV_15
1322:Drivers/STM32L4xx_HAL_Driver/Inc/stm32l4xx_ll_rcc.h ****   *         @arg @ref LL_RCC_PLLP_DIV_16
1323:Drivers/STM32L4xx_HAL_Driver/Inc/stm32l4xx_ll_rcc.h ****   *         @arg @ref LL_RCC_PLLP_DIV_17
1324:Drivers/STM32L4xx_HAL_Driver/Inc/stm32l4xx_ll_rcc.h ****   *         @arg @ref LL_RCC_PLLP_DIV_18
1325:Drivers/STM32L4xx_HAL_Driver/Inc/stm32l4xx_ll_rcc.h ****   *         @arg @ref LL_RCC_PLLP_DIV_19
1326:Drivers/STM32L4xx_HAL_Driver/Inc/stm32l4xx_ll_rcc.h ****   *         @arg @ref LL_RCC_PLLP_DIV_20
1327:Drivers/STM32L4xx_HAL_Driver/Inc/stm32l4xx_ll_rcc.h ****   *         @arg @ref LL_RCC_PLLP_DIV_21
1328:Drivers/STM32L4xx_HAL_Driver/Inc/stm32l4xx_ll_rcc.h ****   *         @arg @ref LL_RCC_PLLP_DIV_22
1329:Drivers/STM32L4xx_HAL_Driver/Inc/stm32l4xx_ll_rcc.h ****   *         @arg @ref LL_RCC_PLLP_DIV_23
1330:Drivers/STM32L4xx_HAL_Driver/Inc/stm32l4xx_ll_rcc.h ****   *         @arg @ref LL_RCC_PLLP_DIV_24
1331:Drivers/STM32L4xx_HAL_Driver/Inc/stm32l4xx_ll_rcc.h ****   *         @arg @ref LL_RCC_PLLP_DIV_25
1332:Drivers/STM32L4xx_HAL_Driver/Inc/stm32l4xx_ll_rcc.h ****   *         @arg @ref LL_RCC_PLLP_DIV_26
1333:Drivers/STM32L4xx_HAL_Driver/Inc/stm32l4xx_ll_rcc.h ****   *         @arg @ref LL_RCC_PLLP_DIV_27
1334:Drivers/STM32L4xx_HAL_Driver/Inc/stm32l4xx_ll_rcc.h ****   *         @arg @ref LL_RCC_PLLP_DIV_28
1335:Drivers/STM32L4xx_HAL_Driver/Inc/stm32l4xx_ll_rcc.h ****   *         @arg @ref LL_RCC_PLLP_DIV_29
1336:Drivers/STM32L4xx_HAL_Driver/Inc/stm32l4xx_ll_rcc.h ****   *         @arg @ref LL_RCC_PLLP_DIV_30
1337:Drivers/STM32L4xx_HAL_Driver/Inc/stm32l4xx_ll_rcc.h ****   *         @arg @ref LL_RCC_PLLP_DIV_31
1338:Drivers/STM32L4xx_HAL_Driver/Inc/stm32l4xx_ll_rcc.h ****   * @retval PLL clock frequency (in Hz)
1339:Drivers/STM32L4xx_HAL_Driver/Inc/stm32l4xx_ll_rcc.h ****   */
1340:Drivers/STM32L4xx_HAL_Driver/Inc/stm32l4xx_ll_rcc.h **** #define __LL_RCC_CALC_PLLCLK_SAI_FREQ(__INPUTFREQ__, __PLLM__, __PLLN__, __PLLP__) ((__INPUTFREQ__)
1341:Drivers/STM32L4xx_HAL_Driver/Inc/stm32l4xx_ll_rcc.h ****                    ((__PLLP__) >> RCC_PLLCFGR_PLLPDIV_Pos))
1342:Drivers/STM32L4xx_HAL_Driver/Inc/stm32l4xx_ll_rcc.h **** 
1343:Drivers/STM32L4xx_HAL_Driver/Inc/stm32l4xx_ll_rcc.h **** #else
1344:Drivers/STM32L4xx_HAL_Driver/Inc/stm32l4xx_ll_rcc.h **** /**
1345:Drivers/STM32L4xx_HAL_Driver/Inc/stm32l4xx_ll_rcc.h ****   * @brief  Helper macro to calculate the PLLCLK frequency used on SAI domain
1346:Drivers/STM32L4xx_HAL_Driver/Inc/stm32l4xx_ll_rcc.h ****   * @note ex: @ref __LL_RCC_CALC_PLLCLK_SAI_FREQ (HSE_VALUE,@ref LL_RCC_PLL_GetDivider (),
1347:Drivers/STM32L4xx_HAL_Driver/Inc/stm32l4xx_ll_rcc.h ****   *             @ref LL_RCC_PLL_GetN (), @ref LL_RCC_PLL_GetP ());
1348:Drivers/STM32L4xx_HAL_Driver/Inc/stm32l4xx_ll_rcc.h ****   * @param  __INPUTFREQ__ PLL Input frequency (based on MSI/HSE/HSI)
1349:Drivers/STM32L4xx_HAL_Driver/Inc/stm32l4xx_ll_rcc.h ****   * @param  __PLLM__ This parameter can be one of the following values:
1350:Drivers/STM32L4xx_HAL_Driver/Inc/stm32l4xx_ll_rcc.h ****   *         @arg @ref LL_RCC_PLLM_DIV_1
1351:Drivers/STM32L4xx_HAL_Driver/Inc/stm32l4xx_ll_rcc.h ****   *         @arg @ref LL_RCC_PLLM_DIV_2
1352:Drivers/STM32L4xx_HAL_Driver/Inc/stm32l4xx_ll_rcc.h ****   *         @arg @ref LL_RCC_PLLM_DIV_3
ARM GAS  C:\Temp\ccAfawe4.s 			page 29


1353:Drivers/STM32L4xx_HAL_Driver/Inc/stm32l4xx_ll_rcc.h ****   *         @arg @ref LL_RCC_PLLM_DIV_4
1354:Drivers/STM32L4xx_HAL_Driver/Inc/stm32l4xx_ll_rcc.h ****   *         @arg @ref LL_RCC_PLLM_DIV_5
1355:Drivers/STM32L4xx_HAL_Driver/Inc/stm32l4xx_ll_rcc.h ****   *         @arg @ref LL_RCC_PLLM_DIV_6
1356:Drivers/STM32L4xx_HAL_Driver/Inc/stm32l4xx_ll_rcc.h ****   *         @arg @ref LL_RCC_PLLM_DIV_7
1357:Drivers/STM32L4xx_HAL_Driver/Inc/stm32l4xx_ll_rcc.h ****   *         @arg @ref LL_RCC_PLLM_DIV_8
1358:Drivers/STM32L4xx_HAL_Driver/Inc/stm32l4xx_ll_rcc.h ****   * @param  __PLLN__ Between 8 and 86
1359:Drivers/STM32L4xx_HAL_Driver/Inc/stm32l4xx_ll_rcc.h ****   * @param  __PLLP__ This parameter can be one of the following values:
1360:Drivers/STM32L4xx_HAL_Driver/Inc/stm32l4xx_ll_rcc.h ****   *         @arg @ref LL_RCC_PLLP_DIV_7
1361:Drivers/STM32L4xx_HAL_Driver/Inc/stm32l4xx_ll_rcc.h ****   *         @arg @ref LL_RCC_PLLP_DIV_17
1362:Drivers/STM32L4xx_HAL_Driver/Inc/stm32l4xx_ll_rcc.h ****   * @retval PLL clock frequency (in Hz)
1363:Drivers/STM32L4xx_HAL_Driver/Inc/stm32l4xx_ll_rcc.h ****   */
1364:Drivers/STM32L4xx_HAL_Driver/Inc/stm32l4xx_ll_rcc.h **** #define __LL_RCC_CALC_PLLCLK_SAI_FREQ(__INPUTFREQ__, __PLLM__, __PLLN__, __PLLP__) ((__INPUTFREQ__)
1365:Drivers/STM32L4xx_HAL_Driver/Inc/stm32l4xx_ll_rcc.h ****                    (((__PLLP__) == LL_RCC_PLLP_DIV_7) ? 7U : 17U))
1366:Drivers/STM32L4xx_HAL_Driver/Inc/stm32l4xx_ll_rcc.h **** 
1367:Drivers/STM32L4xx_HAL_Driver/Inc/stm32l4xx_ll_rcc.h **** #endif /* RCC_PLLP_DIV_2_31_SUPPORT */
1368:Drivers/STM32L4xx_HAL_Driver/Inc/stm32l4xx_ll_rcc.h **** #endif /* RCC_PLLSAI1_SUPPORT */
1369:Drivers/STM32L4xx_HAL_Driver/Inc/stm32l4xx_ll_rcc.h **** 
1370:Drivers/STM32L4xx_HAL_Driver/Inc/stm32l4xx_ll_rcc.h **** /**
1371:Drivers/STM32L4xx_HAL_Driver/Inc/stm32l4xx_ll_rcc.h ****   * @brief  Helper macro to calculate the PLLCLK frequency used on 48M domain
1372:Drivers/STM32L4xx_HAL_Driver/Inc/stm32l4xx_ll_rcc.h ****   * @note ex: @ref __LL_RCC_CALC_PLLCLK_48M_FREQ (HSE_VALUE,@ref LL_RCC_PLL_GetDivider (),
1373:Drivers/STM32L4xx_HAL_Driver/Inc/stm32l4xx_ll_rcc.h ****   *             @ref LL_RCC_PLL_GetN (), @ref LL_RCC_PLL_GetQ ());
1374:Drivers/STM32L4xx_HAL_Driver/Inc/stm32l4xx_ll_rcc.h ****   * @param  __INPUTFREQ__ PLL Input frequency (based on MSI/HSE/HSI)
1375:Drivers/STM32L4xx_HAL_Driver/Inc/stm32l4xx_ll_rcc.h ****   * @param  __PLLM__ This parameter can be one of the following values:
1376:Drivers/STM32L4xx_HAL_Driver/Inc/stm32l4xx_ll_rcc.h ****   *         @arg @ref LL_RCC_PLLM_DIV_1
1377:Drivers/STM32L4xx_HAL_Driver/Inc/stm32l4xx_ll_rcc.h ****   *         @arg @ref LL_RCC_PLLM_DIV_2
1378:Drivers/STM32L4xx_HAL_Driver/Inc/stm32l4xx_ll_rcc.h ****   *         @arg @ref LL_RCC_PLLM_DIV_3
1379:Drivers/STM32L4xx_HAL_Driver/Inc/stm32l4xx_ll_rcc.h ****   *         @arg @ref LL_RCC_PLLM_DIV_4
1380:Drivers/STM32L4xx_HAL_Driver/Inc/stm32l4xx_ll_rcc.h ****   *         @arg @ref LL_RCC_PLLM_DIV_5
1381:Drivers/STM32L4xx_HAL_Driver/Inc/stm32l4xx_ll_rcc.h ****   *         @arg @ref LL_RCC_PLLM_DIV_6
1382:Drivers/STM32L4xx_HAL_Driver/Inc/stm32l4xx_ll_rcc.h ****   *         @arg @ref LL_RCC_PLLM_DIV_7
1383:Drivers/STM32L4xx_HAL_Driver/Inc/stm32l4xx_ll_rcc.h ****   *         @arg @ref LL_RCC_PLLM_DIV_8
1384:Drivers/STM32L4xx_HAL_Driver/Inc/stm32l4xx_ll_rcc.h ****   *         @arg @ref LL_RCC_PLLM_DIV_9 (*)
1385:Drivers/STM32L4xx_HAL_Driver/Inc/stm32l4xx_ll_rcc.h ****   *         @arg @ref LL_RCC_PLLM_DIV_10 (*)
1386:Drivers/STM32L4xx_HAL_Driver/Inc/stm32l4xx_ll_rcc.h ****   *         @arg @ref LL_RCC_PLLM_DIV_11 (*)
1387:Drivers/STM32L4xx_HAL_Driver/Inc/stm32l4xx_ll_rcc.h ****   *         @arg @ref LL_RCC_PLLM_DIV_12 (*)
1388:Drivers/STM32L4xx_HAL_Driver/Inc/stm32l4xx_ll_rcc.h ****   *         @arg @ref LL_RCC_PLLM_DIV_13 (*)
1389:Drivers/STM32L4xx_HAL_Driver/Inc/stm32l4xx_ll_rcc.h ****   *         @arg @ref LL_RCC_PLLM_DIV_14 (*)
1390:Drivers/STM32L4xx_HAL_Driver/Inc/stm32l4xx_ll_rcc.h ****   *         @arg @ref LL_RCC_PLLM_DIV_15 (*)
1391:Drivers/STM32L4xx_HAL_Driver/Inc/stm32l4xx_ll_rcc.h ****   *         @arg @ref LL_RCC_PLLM_DIV_16 (*)
1392:Drivers/STM32L4xx_HAL_Driver/Inc/stm32l4xx_ll_rcc.h ****   *
1393:Drivers/STM32L4xx_HAL_Driver/Inc/stm32l4xx_ll_rcc.h ****   *         (*) value not defined in all devices.
1394:Drivers/STM32L4xx_HAL_Driver/Inc/stm32l4xx_ll_rcc.h ****   * @param  __PLLN__ Between 8 and 86 or 127 depending on devices
1395:Drivers/STM32L4xx_HAL_Driver/Inc/stm32l4xx_ll_rcc.h ****   * @param  __PLLQ__ This parameter can be one of the following values:
1396:Drivers/STM32L4xx_HAL_Driver/Inc/stm32l4xx_ll_rcc.h ****   *         @arg @ref LL_RCC_PLLQ_DIV_2
1397:Drivers/STM32L4xx_HAL_Driver/Inc/stm32l4xx_ll_rcc.h ****   *         @arg @ref LL_RCC_PLLQ_DIV_4
1398:Drivers/STM32L4xx_HAL_Driver/Inc/stm32l4xx_ll_rcc.h ****   *         @arg @ref LL_RCC_PLLQ_DIV_6
1399:Drivers/STM32L4xx_HAL_Driver/Inc/stm32l4xx_ll_rcc.h ****   *         @arg @ref LL_RCC_PLLQ_DIV_8
1400:Drivers/STM32L4xx_HAL_Driver/Inc/stm32l4xx_ll_rcc.h ****   * @retval PLL clock frequency (in Hz)
1401:Drivers/STM32L4xx_HAL_Driver/Inc/stm32l4xx_ll_rcc.h ****   */
1402:Drivers/STM32L4xx_HAL_Driver/Inc/stm32l4xx_ll_rcc.h **** #define __LL_RCC_CALC_PLLCLK_48M_FREQ(__INPUTFREQ__, __PLLM__, __PLLN__, __PLLQ__) ((__INPUTFREQ__)
1403:Drivers/STM32L4xx_HAL_Driver/Inc/stm32l4xx_ll_rcc.h ****                    ((((__PLLQ__) >> RCC_PLLCFGR_PLLQ_Pos) + 1U) << 1U))
1404:Drivers/STM32L4xx_HAL_Driver/Inc/stm32l4xx_ll_rcc.h **** 
1405:Drivers/STM32L4xx_HAL_Driver/Inc/stm32l4xx_ll_rcc.h **** #if defined(RCC_PLLSAI1_SUPPORT)
1406:Drivers/STM32L4xx_HAL_Driver/Inc/stm32l4xx_ll_rcc.h **** #if defined(RCC_PLLSAI1M_DIV_1_16_SUPPORT) && defined(RCC_PLLSAI1P_DIV_2_31_SUPPORT)
1407:Drivers/STM32L4xx_HAL_Driver/Inc/stm32l4xx_ll_rcc.h **** /**
1408:Drivers/STM32L4xx_HAL_Driver/Inc/stm32l4xx_ll_rcc.h ****   * @brief  Helper macro to calculate the PLLSAI1 frequency used for SAI domain
1409:Drivers/STM32L4xx_HAL_Driver/Inc/stm32l4xx_ll_rcc.h ****   * @note ex: @ref __LL_RCC_CALC_PLLSAI1_SAI_FREQ (HSE_VALUE,@ref LL_RCC_PLLSAI1_GetDivider (),
ARM GAS  C:\Temp\ccAfawe4.s 			page 30


1410:Drivers/STM32L4xx_HAL_Driver/Inc/stm32l4xx_ll_rcc.h ****   *             @ref LL_RCC_PLLSAI1_GetN (), @ref LL_RCC_PLLSAI1_GetP ());
1411:Drivers/STM32L4xx_HAL_Driver/Inc/stm32l4xx_ll_rcc.h ****   * @param  __INPUTFREQ__ PLL Input frequency (based on MSI/HSE/HSI)
1412:Drivers/STM32L4xx_HAL_Driver/Inc/stm32l4xx_ll_rcc.h ****   * @param  __PLLSAI1M__ This parameter can be one of the following values:
1413:Drivers/STM32L4xx_HAL_Driver/Inc/stm32l4xx_ll_rcc.h ****   *         @arg @ref LL_RCC_PLLSAI1M_DIV_1
1414:Drivers/STM32L4xx_HAL_Driver/Inc/stm32l4xx_ll_rcc.h ****   *         @arg @ref LL_RCC_PLLSAI1M_DIV_2
1415:Drivers/STM32L4xx_HAL_Driver/Inc/stm32l4xx_ll_rcc.h ****   *         @arg @ref LL_RCC_PLLSAI1M_DIV_3
1416:Drivers/STM32L4xx_HAL_Driver/Inc/stm32l4xx_ll_rcc.h ****   *         @arg @ref LL_RCC_PLLSAI1M_DIV_4
1417:Drivers/STM32L4xx_HAL_Driver/Inc/stm32l4xx_ll_rcc.h ****   *         @arg @ref LL_RCC_PLLSAI1M_DIV_5
1418:Drivers/STM32L4xx_HAL_Driver/Inc/stm32l4xx_ll_rcc.h ****   *         @arg @ref LL_RCC_PLLSAI1M_DIV_6
1419:Drivers/STM32L4xx_HAL_Driver/Inc/stm32l4xx_ll_rcc.h ****   *         @arg @ref LL_RCC_PLLSAI1M_DIV_7
1420:Drivers/STM32L4xx_HAL_Driver/Inc/stm32l4xx_ll_rcc.h ****   *         @arg @ref LL_RCC_PLLSAI1M_DIV_8
1421:Drivers/STM32L4xx_HAL_Driver/Inc/stm32l4xx_ll_rcc.h ****   *         @arg @ref LL_RCC_PLLSAI1M_DIV_9
1422:Drivers/STM32L4xx_HAL_Driver/Inc/stm32l4xx_ll_rcc.h ****   *         @arg @ref LL_RCC_PLLSAI1M_DIV_10
1423:Drivers/STM32L4xx_HAL_Driver/Inc/stm32l4xx_ll_rcc.h ****   *         @arg @ref LL_RCC_PLLSAI1M_DIV_11
1424:Drivers/STM32L4xx_HAL_Driver/Inc/stm32l4xx_ll_rcc.h ****   *         @arg @ref LL_RCC_PLLSAI1M_DIV_12
1425:Drivers/STM32L4xx_HAL_Driver/Inc/stm32l4xx_ll_rcc.h ****   *         @arg @ref LL_RCC_PLLSAI1M_DIV_13
1426:Drivers/STM32L4xx_HAL_Driver/Inc/stm32l4xx_ll_rcc.h ****   *         @arg @ref LL_RCC_PLLSAI1M_DIV_14
1427:Drivers/STM32L4xx_HAL_Driver/Inc/stm32l4xx_ll_rcc.h ****   *         @arg @ref LL_RCC_PLLSAI1M_DIV_15
1428:Drivers/STM32L4xx_HAL_Driver/Inc/stm32l4xx_ll_rcc.h ****   *         @arg @ref LL_RCC_PLLSAI1M_DIV_16
1429:Drivers/STM32L4xx_HAL_Driver/Inc/stm32l4xx_ll_rcc.h ****   * @param  __PLLSAI1N__ Between 8 and 86 or 127 depending on devices
1430:Drivers/STM32L4xx_HAL_Driver/Inc/stm32l4xx_ll_rcc.h ****   * @param  __PLLSAI1P__ This parameter can be one of the following values:
1431:Drivers/STM32L4xx_HAL_Driver/Inc/stm32l4xx_ll_rcc.h ****   *         @arg @ref LL_RCC_PLLSAI1P_DIV_2
1432:Drivers/STM32L4xx_HAL_Driver/Inc/stm32l4xx_ll_rcc.h ****   *         @arg @ref LL_RCC_PLLSAI1P_DIV_3
1433:Drivers/STM32L4xx_HAL_Driver/Inc/stm32l4xx_ll_rcc.h ****   *         @arg @ref LL_RCC_PLLSAI1P_DIV_4
1434:Drivers/STM32L4xx_HAL_Driver/Inc/stm32l4xx_ll_rcc.h ****   *         @arg @ref LL_RCC_PLLSAI1P_DIV_5
1435:Drivers/STM32L4xx_HAL_Driver/Inc/stm32l4xx_ll_rcc.h ****   *         @arg @ref LL_RCC_PLLSAI1P_DIV_6
1436:Drivers/STM32L4xx_HAL_Driver/Inc/stm32l4xx_ll_rcc.h ****   *         @arg @ref LL_RCC_PLLSAI1P_DIV_7
1437:Drivers/STM32L4xx_HAL_Driver/Inc/stm32l4xx_ll_rcc.h ****   *         @arg @ref LL_RCC_PLLSAI1P_DIV_8
1438:Drivers/STM32L4xx_HAL_Driver/Inc/stm32l4xx_ll_rcc.h ****   *         @arg @ref LL_RCC_PLLSAI1P_DIV_9
1439:Drivers/STM32L4xx_HAL_Driver/Inc/stm32l4xx_ll_rcc.h ****   *         @arg @ref LL_RCC_PLLSAI1P_DIV_10
1440:Drivers/STM32L4xx_HAL_Driver/Inc/stm32l4xx_ll_rcc.h ****   *         @arg @ref LL_RCC_PLLSAI1P_DIV_11
1441:Drivers/STM32L4xx_HAL_Driver/Inc/stm32l4xx_ll_rcc.h ****   *         @arg @ref LL_RCC_PLLSAI1P_DIV_12
1442:Drivers/STM32L4xx_HAL_Driver/Inc/stm32l4xx_ll_rcc.h ****   *         @arg @ref LL_RCC_PLLSAI1P_DIV_13
1443:Drivers/STM32L4xx_HAL_Driver/Inc/stm32l4xx_ll_rcc.h ****   *         @arg @ref LL_RCC_PLLSAI1P_DIV_14
1444:Drivers/STM32L4xx_HAL_Driver/Inc/stm32l4xx_ll_rcc.h ****   *         @arg @ref LL_RCC_PLLSAI1P_DIV_15
1445:Drivers/STM32L4xx_HAL_Driver/Inc/stm32l4xx_ll_rcc.h ****   *         @arg @ref LL_RCC_PLLSAI1P_DIV_16
1446:Drivers/STM32L4xx_HAL_Driver/Inc/stm32l4xx_ll_rcc.h ****   *         @arg @ref LL_RCC_PLLSAI1P_DIV_17
1447:Drivers/STM32L4xx_HAL_Driver/Inc/stm32l4xx_ll_rcc.h ****   *         @arg @ref LL_RCC_PLLSAI1P_DIV_18
1448:Drivers/STM32L4xx_HAL_Driver/Inc/stm32l4xx_ll_rcc.h ****   *         @arg @ref LL_RCC_PLLSAI1P_DIV_19
1449:Drivers/STM32L4xx_HAL_Driver/Inc/stm32l4xx_ll_rcc.h ****   *         @arg @ref LL_RCC_PLLSAI1P_DIV_20
1450:Drivers/STM32L4xx_HAL_Driver/Inc/stm32l4xx_ll_rcc.h ****   *         @arg @ref LL_RCC_PLLSAI1P_DIV_21
1451:Drivers/STM32L4xx_HAL_Driver/Inc/stm32l4xx_ll_rcc.h ****   *         @arg @ref LL_RCC_PLLSAI1P_DIV_22
1452:Drivers/STM32L4xx_HAL_Driver/Inc/stm32l4xx_ll_rcc.h ****   *         @arg @ref LL_RCC_PLLSAI1P_DIV_23
1453:Drivers/STM32L4xx_HAL_Driver/Inc/stm32l4xx_ll_rcc.h ****   *         @arg @ref LL_RCC_PLLSAI1P_DIV_24
1454:Drivers/STM32L4xx_HAL_Driver/Inc/stm32l4xx_ll_rcc.h ****   *         @arg @ref LL_RCC_PLLSAI1P_DIV_25
1455:Drivers/STM32L4xx_HAL_Driver/Inc/stm32l4xx_ll_rcc.h ****   *         @arg @ref LL_RCC_PLLSAI1P_DIV_26
1456:Drivers/STM32L4xx_HAL_Driver/Inc/stm32l4xx_ll_rcc.h ****   *         @arg @ref LL_RCC_PLLSAI1P_DIV_27
1457:Drivers/STM32L4xx_HAL_Driver/Inc/stm32l4xx_ll_rcc.h ****   *         @arg @ref LL_RCC_PLLSAI1P_DIV_28
1458:Drivers/STM32L4xx_HAL_Driver/Inc/stm32l4xx_ll_rcc.h ****   *         @arg @ref LL_RCC_PLLSAI1P_DIV_29
1459:Drivers/STM32L4xx_HAL_Driver/Inc/stm32l4xx_ll_rcc.h ****   *         @arg @ref LL_RCC_PLLSAI1P_DIV_30
1460:Drivers/STM32L4xx_HAL_Driver/Inc/stm32l4xx_ll_rcc.h ****   *         @arg @ref LL_RCC_PLLSAI1P_DIV_31
1461:Drivers/STM32L4xx_HAL_Driver/Inc/stm32l4xx_ll_rcc.h ****   * @retval PLLSAI1 clock frequency (in Hz)
1462:Drivers/STM32L4xx_HAL_Driver/Inc/stm32l4xx_ll_rcc.h ****   */
1463:Drivers/STM32L4xx_HAL_Driver/Inc/stm32l4xx_ll_rcc.h **** #define __LL_RCC_CALC_PLLSAI1_SAI_FREQ(__INPUTFREQ__, __PLLSAI1M__, __PLLSAI1N__, __PLLSAI1P__) \
1464:Drivers/STM32L4xx_HAL_Driver/Inc/stm32l4xx_ll_rcc.h ****                    ((__INPUTFREQ__) / ((((__PLLSAI1M__) >> RCC_PLLSAI1CFGR_PLLSAI1M_Pos) + 1U)) * (
1465:Drivers/STM32L4xx_HAL_Driver/Inc/stm32l4xx_ll_rcc.h ****                     ((__PLLSAI1P__) >> RCC_PLLSAI1CFGR_PLLSAI1PDIV_Pos))
1466:Drivers/STM32L4xx_HAL_Driver/Inc/stm32l4xx_ll_rcc.h **** 
ARM GAS  C:\Temp\ccAfawe4.s 			page 31


1467:Drivers/STM32L4xx_HAL_Driver/Inc/stm32l4xx_ll_rcc.h **** #elif defined(RCC_PLLSAI1P_DIV_2_31_SUPPORT)
1468:Drivers/STM32L4xx_HAL_Driver/Inc/stm32l4xx_ll_rcc.h **** /**
1469:Drivers/STM32L4xx_HAL_Driver/Inc/stm32l4xx_ll_rcc.h ****   * @brief  Helper macro to calculate the PLLSAI1 frequency used for SAI domain
1470:Drivers/STM32L4xx_HAL_Driver/Inc/stm32l4xx_ll_rcc.h ****   * @note ex: @ref __LL_RCC_CALC_PLLSAI1_SAI_FREQ (HSE_VALUE,@ref LL_RCC_PLL_GetDivider (),
1471:Drivers/STM32L4xx_HAL_Driver/Inc/stm32l4xx_ll_rcc.h ****   *             @ref LL_RCC_PLLSAI1_GetN (), @ref LL_RCC_PLLSAI1_GetP ());
1472:Drivers/STM32L4xx_HAL_Driver/Inc/stm32l4xx_ll_rcc.h ****   * @param  __INPUTFREQ__ PLL Input frequency (based on MSI/HSE/HSI)
1473:Drivers/STM32L4xx_HAL_Driver/Inc/stm32l4xx_ll_rcc.h ****   * @param  __PLLM__ This parameter can be one of the following values:
1474:Drivers/STM32L4xx_HAL_Driver/Inc/stm32l4xx_ll_rcc.h ****   *         @arg @ref LL_RCC_PLLM_DIV_1
1475:Drivers/STM32L4xx_HAL_Driver/Inc/stm32l4xx_ll_rcc.h ****   *         @arg @ref LL_RCC_PLLM_DIV_2
1476:Drivers/STM32L4xx_HAL_Driver/Inc/stm32l4xx_ll_rcc.h ****   *         @arg @ref LL_RCC_PLLM_DIV_3
1477:Drivers/STM32L4xx_HAL_Driver/Inc/stm32l4xx_ll_rcc.h ****   *         @arg @ref LL_RCC_PLLM_DIV_4
1478:Drivers/STM32L4xx_HAL_Driver/Inc/stm32l4xx_ll_rcc.h ****   *         @arg @ref LL_RCC_PLLM_DIV_5
1479:Drivers/STM32L4xx_HAL_Driver/Inc/stm32l4xx_ll_rcc.h ****   *         @arg @ref LL_RCC_PLLM_DIV_6
1480:Drivers/STM32L4xx_HAL_Driver/Inc/stm32l4xx_ll_rcc.h ****   *         @arg @ref LL_RCC_PLLM_DIV_7
1481:Drivers/STM32L4xx_HAL_Driver/Inc/stm32l4xx_ll_rcc.h ****   *         @arg @ref LL_RCC_PLLM_DIV_8
1482:Drivers/STM32L4xx_HAL_Driver/Inc/stm32l4xx_ll_rcc.h ****   * @param  __PLLSAI1N__ Between 8 and 86 or 127 depending on devices
1483:Drivers/STM32L4xx_HAL_Driver/Inc/stm32l4xx_ll_rcc.h ****   * @param  __PLLSAI1P__ This parameter can be one of the following values:
1484:Drivers/STM32L4xx_HAL_Driver/Inc/stm32l4xx_ll_rcc.h ****   *         @arg @ref LL_RCC_PLLSAI1P_DIV_2
1485:Drivers/STM32L4xx_HAL_Driver/Inc/stm32l4xx_ll_rcc.h ****   *         @arg @ref LL_RCC_PLLSAI1P_DIV_3
1486:Drivers/STM32L4xx_HAL_Driver/Inc/stm32l4xx_ll_rcc.h ****   *         @arg @ref LL_RCC_PLLSAI1P_DIV_4
1487:Drivers/STM32L4xx_HAL_Driver/Inc/stm32l4xx_ll_rcc.h ****   *         @arg @ref LL_RCC_PLLSAI1P_DIV_5
1488:Drivers/STM32L4xx_HAL_Driver/Inc/stm32l4xx_ll_rcc.h ****   *         @arg @ref LL_RCC_PLLSAI1P_DIV_6
1489:Drivers/STM32L4xx_HAL_Driver/Inc/stm32l4xx_ll_rcc.h ****   *         @arg @ref LL_RCC_PLLSAI1P_DIV_7
1490:Drivers/STM32L4xx_HAL_Driver/Inc/stm32l4xx_ll_rcc.h ****   *         @arg @ref LL_RCC_PLLSAI1P_DIV_8
1491:Drivers/STM32L4xx_HAL_Driver/Inc/stm32l4xx_ll_rcc.h ****   *         @arg @ref LL_RCC_PLLSAI1P_DIV_9
1492:Drivers/STM32L4xx_HAL_Driver/Inc/stm32l4xx_ll_rcc.h ****   *         @arg @ref LL_RCC_PLLSAI1P_DIV_10
1493:Drivers/STM32L4xx_HAL_Driver/Inc/stm32l4xx_ll_rcc.h ****   *         @arg @ref LL_RCC_PLLSAI1P_DIV_11
1494:Drivers/STM32L4xx_HAL_Driver/Inc/stm32l4xx_ll_rcc.h ****   *         @arg @ref LL_RCC_PLLSAI1P_DIV_12
1495:Drivers/STM32L4xx_HAL_Driver/Inc/stm32l4xx_ll_rcc.h ****   *         @arg @ref LL_RCC_PLLSAI1P_DIV_13
1496:Drivers/STM32L4xx_HAL_Driver/Inc/stm32l4xx_ll_rcc.h ****   *         @arg @ref LL_RCC_PLLSAI1P_DIV_14
1497:Drivers/STM32L4xx_HAL_Driver/Inc/stm32l4xx_ll_rcc.h ****   *         @arg @ref LL_RCC_PLLSAI1P_DIV_15
1498:Drivers/STM32L4xx_HAL_Driver/Inc/stm32l4xx_ll_rcc.h ****   *         @arg @ref LL_RCC_PLLSAI1P_DIV_16
1499:Drivers/STM32L4xx_HAL_Driver/Inc/stm32l4xx_ll_rcc.h ****   *         @arg @ref LL_RCC_PLLSAI1P_DIV_17
1500:Drivers/STM32L4xx_HAL_Driver/Inc/stm32l4xx_ll_rcc.h ****   *         @arg @ref LL_RCC_PLLSAI1P_DIV_18
1501:Drivers/STM32L4xx_HAL_Driver/Inc/stm32l4xx_ll_rcc.h ****   *         @arg @ref LL_RCC_PLLSAI1P_DIV_19
1502:Drivers/STM32L4xx_HAL_Driver/Inc/stm32l4xx_ll_rcc.h ****   *         @arg @ref LL_RCC_PLLSAI1P_DIV_20
1503:Drivers/STM32L4xx_HAL_Driver/Inc/stm32l4xx_ll_rcc.h ****   *         @arg @ref LL_RCC_PLLSAI1P_DIV_21
1504:Drivers/STM32L4xx_HAL_Driver/Inc/stm32l4xx_ll_rcc.h ****   *         @arg @ref LL_RCC_PLLSAI1P_DIV_22
1505:Drivers/STM32L4xx_HAL_Driver/Inc/stm32l4xx_ll_rcc.h ****   *         @arg @ref LL_RCC_PLLSAI1P_DIV_23
1506:Drivers/STM32L4xx_HAL_Driver/Inc/stm32l4xx_ll_rcc.h ****   *         @arg @ref LL_RCC_PLLSAI1P_DIV_24
1507:Drivers/STM32L4xx_HAL_Driver/Inc/stm32l4xx_ll_rcc.h ****   *         @arg @ref LL_RCC_PLLSAI1P_DIV_25
1508:Drivers/STM32L4xx_HAL_Driver/Inc/stm32l4xx_ll_rcc.h ****   *         @arg @ref LL_RCC_PLLSAI1P_DIV_26
1509:Drivers/STM32L4xx_HAL_Driver/Inc/stm32l4xx_ll_rcc.h ****   *         @arg @ref LL_RCC_PLLSAI1P_DIV_27
1510:Drivers/STM32L4xx_HAL_Driver/Inc/stm32l4xx_ll_rcc.h ****   *         @arg @ref LL_RCC_PLLSAI1P_DIV_28
1511:Drivers/STM32L4xx_HAL_Driver/Inc/stm32l4xx_ll_rcc.h ****   *         @arg @ref LL_RCC_PLLSAI1P_DIV_29
1512:Drivers/STM32L4xx_HAL_Driver/Inc/stm32l4xx_ll_rcc.h ****   *         @arg @ref LL_RCC_PLLSAI1P_DIV_30
1513:Drivers/STM32L4xx_HAL_Driver/Inc/stm32l4xx_ll_rcc.h ****   *         @arg @ref LL_RCC_PLLSAI1P_DIV_31
1514:Drivers/STM32L4xx_HAL_Driver/Inc/stm32l4xx_ll_rcc.h ****   * @retval PLLSAI1 clock frequency (in Hz)
1515:Drivers/STM32L4xx_HAL_Driver/Inc/stm32l4xx_ll_rcc.h ****   */
1516:Drivers/STM32L4xx_HAL_Driver/Inc/stm32l4xx_ll_rcc.h **** #define __LL_RCC_CALC_PLLSAI1_SAI_FREQ(__INPUTFREQ__, __PLLM__, __PLLSAI1N__, __PLLSAI1P__) \
1517:Drivers/STM32L4xx_HAL_Driver/Inc/stm32l4xx_ll_rcc.h ****                    ((__INPUTFREQ__) / ((((__PLLM__)>> RCC_PLLCFGR_PLLM_Pos) + 1U)) * (__PLLSAI1N__)
1518:Drivers/STM32L4xx_HAL_Driver/Inc/stm32l4xx_ll_rcc.h ****                     ((__PLLSAI1P__) >> RCC_PLLSAI1CFGR_PLLSAI1PDIV_Pos))
1519:Drivers/STM32L4xx_HAL_Driver/Inc/stm32l4xx_ll_rcc.h **** 
1520:Drivers/STM32L4xx_HAL_Driver/Inc/stm32l4xx_ll_rcc.h **** #else
1521:Drivers/STM32L4xx_HAL_Driver/Inc/stm32l4xx_ll_rcc.h **** /**
1522:Drivers/STM32L4xx_HAL_Driver/Inc/stm32l4xx_ll_rcc.h ****   * @brief  Helper macro to calculate the PLLSAI1 frequency used for SAI domain
1523:Drivers/STM32L4xx_HAL_Driver/Inc/stm32l4xx_ll_rcc.h ****   * @note ex: @ref __LL_RCC_CALC_PLLSAI1_SAI_FREQ (HSE_VALUE,@ref LL_RCC_PLL_GetDivider (),
ARM GAS  C:\Temp\ccAfawe4.s 			page 32


1524:Drivers/STM32L4xx_HAL_Driver/Inc/stm32l4xx_ll_rcc.h ****   *             @ref LL_RCC_PLLSAI1_GetN (), @ref LL_RCC_PLLSAI1_GetP ());
1525:Drivers/STM32L4xx_HAL_Driver/Inc/stm32l4xx_ll_rcc.h ****   * @param  __INPUTFREQ__ PLL Input frequency (based on MSI/HSE/HSI)
1526:Drivers/STM32L4xx_HAL_Driver/Inc/stm32l4xx_ll_rcc.h ****   * @param  __PLLM__ This parameter can be one of the following values:
1527:Drivers/STM32L4xx_HAL_Driver/Inc/stm32l4xx_ll_rcc.h ****   *         @arg @ref LL_RCC_PLLM_DIV_1
1528:Drivers/STM32L4xx_HAL_Driver/Inc/stm32l4xx_ll_rcc.h ****   *         @arg @ref LL_RCC_PLLM_DIV_2
1529:Drivers/STM32L4xx_HAL_Driver/Inc/stm32l4xx_ll_rcc.h ****   *         @arg @ref LL_RCC_PLLM_DIV_3
1530:Drivers/STM32L4xx_HAL_Driver/Inc/stm32l4xx_ll_rcc.h ****   *         @arg @ref LL_RCC_PLLM_DIV_4
1531:Drivers/STM32L4xx_HAL_Driver/Inc/stm32l4xx_ll_rcc.h ****   *         @arg @ref LL_RCC_PLLM_DIV_5
1532:Drivers/STM32L4xx_HAL_Driver/Inc/stm32l4xx_ll_rcc.h ****   *         @arg @ref LL_RCC_PLLM_DIV_6
1533:Drivers/STM32L4xx_HAL_Driver/Inc/stm32l4xx_ll_rcc.h ****   *         @arg @ref LL_RCC_PLLM_DIV_7
1534:Drivers/STM32L4xx_HAL_Driver/Inc/stm32l4xx_ll_rcc.h ****   *         @arg @ref LL_RCC_PLLM_DIV_8
1535:Drivers/STM32L4xx_HAL_Driver/Inc/stm32l4xx_ll_rcc.h ****   * @param  __PLLSAI1N__ Between 8 and 86
1536:Drivers/STM32L4xx_HAL_Driver/Inc/stm32l4xx_ll_rcc.h ****   * @param  __PLLSAI1P__ This parameter can be one of the following values:
1537:Drivers/STM32L4xx_HAL_Driver/Inc/stm32l4xx_ll_rcc.h ****   *         @arg @ref LL_RCC_PLLSAI1P_DIV_7
1538:Drivers/STM32L4xx_HAL_Driver/Inc/stm32l4xx_ll_rcc.h ****   *         @arg @ref LL_RCC_PLLSAI1P_DIV_17
1539:Drivers/STM32L4xx_HAL_Driver/Inc/stm32l4xx_ll_rcc.h ****   * @retval PLLSAI1 clock frequency (in Hz)
1540:Drivers/STM32L4xx_HAL_Driver/Inc/stm32l4xx_ll_rcc.h ****   */
1541:Drivers/STM32L4xx_HAL_Driver/Inc/stm32l4xx_ll_rcc.h **** #define __LL_RCC_CALC_PLLSAI1_SAI_FREQ(__INPUTFREQ__, __PLLM__, __PLLSAI1N__, __PLLSAI1P__) \
1542:Drivers/STM32L4xx_HAL_Driver/Inc/stm32l4xx_ll_rcc.h ****                    ((__INPUTFREQ__) / ((((__PLLM__)>> RCC_PLLCFGR_PLLM_Pos) + 1U)) * (__PLLSAI1N__)
1543:Drivers/STM32L4xx_HAL_Driver/Inc/stm32l4xx_ll_rcc.h ****                     (((__PLLSAI1P__) == LL_RCC_PLLSAI1P_DIV_7) ? 7U : 17U))
1544:Drivers/STM32L4xx_HAL_Driver/Inc/stm32l4xx_ll_rcc.h **** 
1545:Drivers/STM32L4xx_HAL_Driver/Inc/stm32l4xx_ll_rcc.h **** #endif /* RCC_PLLSAI1P_DIV_2_31_SUPPORT */
1546:Drivers/STM32L4xx_HAL_Driver/Inc/stm32l4xx_ll_rcc.h **** 
1547:Drivers/STM32L4xx_HAL_Driver/Inc/stm32l4xx_ll_rcc.h **** #if defined(RCC_PLLSAI1M_DIV_1_16_SUPPORT)
1548:Drivers/STM32L4xx_HAL_Driver/Inc/stm32l4xx_ll_rcc.h **** /**
1549:Drivers/STM32L4xx_HAL_Driver/Inc/stm32l4xx_ll_rcc.h ****   * @brief  Helper macro to calculate the PLLSAI1 frequency used on 48M domain
1550:Drivers/STM32L4xx_HAL_Driver/Inc/stm32l4xx_ll_rcc.h ****   * @note ex: @ref __LL_RCC_CALC_PLLSAI1_48M_FREQ (HSE_VALUE,@ref LL_RCC_PLLSAI1_GetDivider (),
1551:Drivers/STM32L4xx_HAL_Driver/Inc/stm32l4xx_ll_rcc.h ****   *             @ref LL_RCC_PLLSAI1_GetN (), @ref LL_RCC_PLLSAI1_GetQ ());
1552:Drivers/STM32L4xx_HAL_Driver/Inc/stm32l4xx_ll_rcc.h ****   * @param  __INPUTFREQ__ PLL Input frequency (based on MSI/HSE/HSI)
1553:Drivers/STM32L4xx_HAL_Driver/Inc/stm32l4xx_ll_rcc.h ****   * @param  __PLLSAI1M__ This parameter can be one of the following values:
1554:Drivers/STM32L4xx_HAL_Driver/Inc/stm32l4xx_ll_rcc.h ****   *         @arg @ref LL_RCC_PLLSAI1M_DIV_1
1555:Drivers/STM32L4xx_HAL_Driver/Inc/stm32l4xx_ll_rcc.h ****   *         @arg @ref LL_RCC_PLLSAI1M_DIV_2
1556:Drivers/STM32L4xx_HAL_Driver/Inc/stm32l4xx_ll_rcc.h ****   *         @arg @ref LL_RCC_PLLSAI1M_DIV_3
1557:Drivers/STM32L4xx_HAL_Driver/Inc/stm32l4xx_ll_rcc.h ****   *         @arg @ref LL_RCC_PLLSAI1M_DIV_4
1558:Drivers/STM32L4xx_HAL_Driver/Inc/stm32l4xx_ll_rcc.h ****   *         @arg @ref LL_RCC_PLLSAI1M_DIV_5
1559:Drivers/STM32L4xx_HAL_Driver/Inc/stm32l4xx_ll_rcc.h ****   *         @arg @ref LL_RCC_PLLSAI1M_DIV_6
1560:Drivers/STM32L4xx_HAL_Driver/Inc/stm32l4xx_ll_rcc.h ****   *         @arg @ref LL_RCC_PLLSAI1M_DIV_7
1561:Drivers/STM32L4xx_HAL_Driver/Inc/stm32l4xx_ll_rcc.h ****   *         @arg @ref LL_RCC_PLLSAI1M_DIV_8
1562:Drivers/STM32L4xx_HAL_Driver/Inc/stm32l4xx_ll_rcc.h ****   *         @arg @ref LL_RCC_PLLSAI1M_DIV_9
1563:Drivers/STM32L4xx_HAL_Driver/Inc/stm32l4xx_ll_rcc.h ****   *         @arg @ref LL_RCC_PLLSAI1M_DIV_10
1564:Drivers/STM32L4xx_HAL_Driver/Inc/stm32l4xx_ll_rcc.h ****   *         @arg @ref LL_RCC_PLLSAI1M_DIV_11
1565:Drivers/STM32L4xx_HAL_Driver/Inc/stm32l4xx_ll_rcc.h ****   *         @arg @ref LL_RCC_PLLSAI1M_DIV_12
1566:Drivers/STM32L4xx_HAL_Driver/Inc/stm32l4xx_ll_rcc.h ****   *         @arg @ref LL_RCC_PLLSAI1M_DIV_13
1567:Drivers/STM32L4xx_HAL_Driver/Inc/stm32l4xx_ll_rcc.h ****   *         @arg @ref LL_RCC_PLLSAI1M_DIV_14
1568:Drivers/STM32L4xx_HAL_Driver/Inc/stm32l4xx_ll_rcc.h ****   *         @arg @ref LL_RCC_PLLSAI1M_DIV_15
1569:Drivers/STM32L4xx_HAL_Driver/Inc/stm32l4xx_ll_rcc.h ****   *         @arg @ref LL_RCC_PLLSAI1M_DIV_16
1570:Drivers/STM32L4xx_HAL_Driver/Inc/stm32l4xx_ll_rcc.h ****   * @param  __PLLSAI1N__ Between 8 and 86 or 127 depending on devices
1571:Drivers/STM32L4xx_HAL_Driver/Inc/stm32l4xx_ll_rcc.h ****   * @param  __PLLSAI1Q__ This parameter can be one of the following values:
1572:Drivers/STM32L4xx_HAL_Driver/Inc/stm32l4xx_ll_rcc.h ****   *         @arg @ref LL_RCC_PLLSAI1Q_DIV_2
1573:Drivers/STM32L4xx_HAL_Driver/Inc/stm32l4xx_ll_rcc.h ****   *         @arg @ref LL_RCC_PLLSAI1Q_DIV_4
1574:Drivers/STM32L4xx_HAL_Driver/Inc/stm32l4xx_ll_rcc.h ****   *         @arg @ref LL_RCC_PLLSAI1Q_DIV_6
1575:Drivers/STM32L4xx_HAL_Driver/Inc/stm32l4xx_ll_rcc.h ****   *         @arg @ref LL_RCC_PLLSAI1Q_DIV_8
1576:Drivers/STM32L4xx_HAL_Driver/Inc/stm32l4xx_ll_rcc.h ****   * @retval PLLSAI1 clock frequency (in Hz)
1577:Drivers/STM32L4xx_HAL_Driver/Inc/stm32l4xx_ll_rcc.h ****   */
1578:Drivers/STM32L4xx_HAL_Driver/Inc/stm32l4xx_ll_rcc.h **** #define __LL_RCC_CALC_PLLSAI1_48M_FREQ(__INPUTFREQ__, __PLLSAI1M__, __PLLSAI1N__, __PLLSAI1Q__) \
1579:Drivers/STM32L4xx_HAL_Driver/Inc/stm32l4xx_ll_rcc.h ****                    ((__INPUTFREQ__) / ((((__PLLSAI1M__) >> RCC_PLLSAI1CFGR_PLLSAI1M_Pos) + 1U)) * (
1580:Drivers/STM32L4xx_HAL_Driver/Inc/stm32l4xx_ll_rcc.h ****                     ((((__PLLSAI1Q__) >> RCC_PLLSAI1CFGR_PLLSAI1Q_Pos) + 1U) << 1U))
ARM GAS  C:\Temp\ccAfawe4.s 			page 33


1581:Drivers/STM32L4xx_HAL_Driver/Inc/stm32l4xx_ll_rcc.h **** 
1582:Drivers/STM32L4xx_HAL_Driver/Inc/stm32l4xx_ll_rcc.h **** #else
1583:Drivers/STM32L4xx_HAL_Driver/Inc/stm32l4xx_ll_rcc.h **** /**
1584:Drivers/STM32L4xx_HAL_Driver/Inc/stm32l4xx_ll_rcc.h ****   * @brief  Helper macro to calculate the PLLSAI1 frequency used on 48M domain
1585:Drivers/STM32L4xx_HAL_Driver/Inc/stm32l4xx_ll_rcc.h ****   * @note ex: @ref __LL_RCC_CALC_PLLSAI1_48M_FREQ (HSE_VALUE,@ref LL_RCC_PLL_GetDivider (),
1586:Drivers/STM32L4xx_HAL_Driver/Inc/stm32l4xx_ll_rcc.h ****   *             @ref LL_RCC_PLLSAI1_GetN (), @ref LL_RCC_PLLSAI1_GetQ ());
1587:Drivers/STM32L4xx_HAL_Driver/Inc/stm32l4xx_ll_rcc.h ****   * @param  __INPUTFREQ__ PLL Input frequency (based on MSI/HSE/HSI)
1588:Drivers/STM32L4xx_HAL_Driver/Inc/stm32l4xx_ll_rcc.h ****   * @param  __PLLM__ This parameter can be one of the following values:
1589:Drivers/STM32L4xx_HAL_Driver/Inc/stm32l4xx_ll_rcc.h ****   *         @arg @ref LL_RCC_PLLM_DIV_1
1590:Drivers/STM32L4xx_HAL_Driver/Inc/stm32l4xx_ll_rcc.h ****   *         @arg @ref LL_RCC_PLLM_DIV_2
1591:Drivers/STM32L4xx_HAL_Driver/Inc/stm32l4xx_ll_rcc.h ****   *         @arg @ref LL_RCC_PLLM_DIV_3
1592:Drivers/STM32L4xx_HAL_Driver/Inc/stm32l4xx_ll_rcc.h ****   *         @arg @ref LL_RCC_PLLM_DIV_4
1593:Drivers/STM32L4xx_HAL_Driver/Inc/stm32l4xx_ll_rcc.h ****   *         @arg @ref LL_RCC_PLLM_DIV_5
1594:Drivers/STM32L4xx_HAL_Driver/Inc/stm32l4xx_ll_rcc.h ****   *         @arg @ref LL_RCC_PLLM_DIV_6
1595:Drivers/STM32L4xx_HAL_Driver/Inc/stm32l4xx_ll_rcc.h ****   *         @arg @ref LL_RCC_PLLM_DIV_7
1596:Drivers/STM32L4xx_HAL_Driver/Inc/stm32l4xx_ll_rcc.h ****   *         @arg @ref LL_RCC_PLLM_DIV_8
1597:Drivers/STM32L4xx_HAL_Driver/Inc/stm32l4xx_ll_rcc.h ****   * @param  __PLLSAI1N__ Between 8 and 86
1598:Drivers/STM32L4xx_HAL_Driver/Inc/stm32l4xx_ll_rcc.h ****   * @param  __PLLSAI1Q__ This parameter can be one of the following values:
1599:Drivers/STM32L4xx_HAL_Driver/Inc/stm32l4xx_ll_rcc.h ****   *         @arg @ref LL_RCC_PLLSAI1Q_DIV_2
1600:Drivers/STM32L4xx_HAL_Driver/Inc/stm32l4xx_ll_rcc.h ****   *         @arg @ref LL_RCC_PLLSAI1Q_DIV_4
1601:Drivers/STM32L4xx_HAL_Driver/Inc/stm32l4xx_ll_rcc.h ****   *         @arg @ref LL_RCC_PLLSAI1Q_DIV_6
1602:Drivers/STM32L4xx_HAL_Driver/Inc/stm32l4xx_ll_rcc.h ****   *         @arg @ref LL_RCC_PLLSAI1Q_DIV_8
1603:Drivers/STM32L4xx_HAL_Driver/Inc/stm32l4xx_ll_rcc.h ****   * @retval PLLSAI1 clock frequency (in Hz)
1604:Drivers/STM32L4xx_HAL_Driver/Inc/stm32l4xx_ll_rcc.h ****   */
1605:Drivers/STM32L4xx_HAL_Driver/Inc/stm32l4xx_ll_rcc.h **** #define __LL_RCC_CALC_PLLSAI1_48M_FREQ(__INPUTFREQ__, __PLLM__, __PLLSAI1N__, __PLLSAI1Q__) \
1606:Drivers/STM32L4xx_HAL_Driver/Inc/stm32l4xx_ll_rcc.h ****                    ((__INPUTFREQ__) / ((((__PLLM__)>> RCC_PLLCFGR_PLLM_Pos) + 1U)) * (__PLLSAI1N__)
1607:Drivers/STM32L4xx_HAL_Driver/Inc/stm32l4xx_ll_rcc.h ****                     ((((__PLLSAI1Q__) >> RCC_PLLSAI1CFGR_PLLSAI1Q_Pos) + 1U) << 1U))
1608:Drivers/STM32L4xx_HAL_Driver/Inc/stm32l4xx_ll_rcc.h **** 
1609:Drivers/STM32L4xx_HAL_Driver/Inc/stm32l4xx_ll_rcc.h **** #endif /* RCC_PLLSAI1M_DIV_1_16_SUPPORT */
1610:Drivers/STM32L4xx_HAL_Driver/Inc/stm32l4xx_ll_rcc.h **** 
1611:Drivers/STM32L4xx_HAL_Driver/Inc/stm32l4xx_ll_rcc.h **** #if defined(RCC_PLLSAI1M_DIV_1_16_SUPPORT)
1612:Drivers/STM32L4xx_HAL_Driver/Inc/stm32l4xx_ll_rcc.h **** /**
1613:Drivers/STM32L4xx_HAL_Driver/Inc/stm32l4xx_ll_rcc.h ****   * @brief  Helper macro to calculate the PLLSAI1 frequency used on ADC domain
1614:Drivers/STM32L4xx_HAL_Driver/Inc/stm32l4xx_ll_rcc.h ****   * @note ex: @ref __LL_RCC_CALC_PLLSAI1_ADC_FREQ (HSE_VALUE,@ref LL_RCC_PLLSAI1_GetDivider (),
1615:Drivers/STM32L4xx_HAL_Driver/Inc/stm32l4xx_ll_rcc.h ****   *             @ref LL_RCC_PLLSAI1_GetN (), @ref LL_RCC_PLLSAI1_GetR ());
1616:Drivers/STM32L4xx_HAL_Driver/Inc/stm32l4xx_ll_rcc.h ****   * @param  __INPUTFREQ__ PLL Input frequency (based on MSI/HSE/HSI)
1617:Drivers/STM32L4xx_HAL_Driver/Inc/stm32l4xx_ll_rcc.h ****   * @param  __PLLSAI1M__ This parameter can be one of the following values:
1618:Drivers/STM32L4xx_HAL_Driver/Inc/stm32l4xx_ll_rcc.h ****   *         @arg @ref LL_RCC_PLLSAI1M_DIV_1
1619:Drivers/STM32L4xx_HAL_Driver/Inc/stm32l4xx_ll_rcc.h ****   *         @arg @ref LL_RCC_PLLSAI1M_DIV_2
1620:Drivers/STM32L4xx_HAL_Driver/Inc/stm32l4xx_ll_rcc.h ****   *         @arg @ref LL_RCC_PLLSAI1M_DIV_3
1621:Drivers/STM32L4xx_HAL_Driver/Inc/stm32l4xx_ll_rcc.h ****   *         @arg @ref LL_RCC_PLLSAI1M_DIV_4
1622:Drivers/STM32L4xx_HAL_Driver/Inc/stm32l4xx_ll_rcc.h ****   *         @arg @ref LL_RCC_PLLSAI1M_DIV_5
1623:Drivers/STM32L4xx_HAL_Driver/Inc/stm32l4xx_ll_rcc.h ****   *         @arg @ref LL_RCC_PLLSAI1M_DIV_6
1624:Drivers/STM32L4xx_HAL_Driver/Inc/stm32l4xx_ll_rcc.h ****   *         @arg @ref LL_RCC_PLLSAI1M_DIV_7
1625:Drivers/STM32L4xx_HAL_Driver/Inc/stm32l4xx_ll_rcc.h ****   *         @arg @ref LL_RCC_PLLSAI1M_DIV_8
1626:Drivers/STM32L4xx_HAL_Driver/Inc/stm32l4xx_ll_rcc.h ****   *         @arg @ref LL_RCC_PLLSAI1M_DIV_9
1627:Drivers/STM32L4xx_HAL_Driver/Inc/stm32l4xx_ll_rcc.h ****   *         @arg @ref LL_RCC_PLLSAI1M_DIV_10
1628:Drivers/STM32L4xx_HAL_Driver/Inc/stm32l4xx_ll_rcc.h ****   *         @arg @ref LL_RCC_PLLSAI1M_DIV_11
1629:Drivers/STM32L4xx_HAL_Driver/Inc/stm32l4xx_ll_rcc.h ****   *         @arg @ref LL_RCC_PLLSAI1M_DIV_12
1630:Drivers/STM32L4xx_HAL_Driver/Inc/stm32l4xx_ll_rcc.h ****   *         @arg @ref LL_RCC_PLLSAI1M_DIV_13
1631:Drivers/STM32L4xx_HAL_Driver/Inc/stm32l4xx_ll_rcc.h ****   *         @arg @ref LL_RCC_PLLSAI1M_DIV_14
1632:Drivers/STM32L4xx_HAL_Driver/Inc/stm32l4xx_ll_rcc.h ****   *         @arg @ref LL_RCC_PLLSAI1M_DIV_15
1633:Drivers/STM32L4xx_HAL_Driver/Inc/stm32l4xx_ll_rcc.h ****   *         @arg @ref LL_RCC_PLLSAI1M_DIV_16
1634:Drivers/STM32L4xx_HAL_Driver/Inc/stm32l4xx_ll_rcc.h ****   * @param  __PLLSAI1N__ Between 8 and 86 or 127 depending on devices
1635:Drivers/STM32L4xx_HAL_Driver/Inc/stm32l4xx_ll_rcc.h ****   * @param  __PLLSAI1R__ This parameter can be one of the following values:
1636:Drivers/STM32L4xx_HAL_Driver/Inc/stm32l4xx_ll_rcc.h ****   *         @arg @ref LL_RCC_PLLSAI1R_DIV_2
1637:Drivers/STM32L4xx_HAL_Driver/Inc/stm32l4xx_ll_rcc.h ****   *         @arg @ref LL_RCC_PLLSAI1R_DIV_4
ARM GAS  C:\Temp\ccAfawe4.s 			page 34


1638:Drivers/STM32L4xx_HAL_Driver/Inc/stm32l4xx_ll_rcc.h ****   *         @arg @ref LL_RCC_PLLSAI1R_DIV_6
1639:Drivers/STM32L4xx_HAL_Driver/Inc/stm32l4xx_ll_rcc.h ****   *         @arg @ref LL_RCC_PLLSAI1R_DIV_8
1640:Drivers/STM32L4xx_HAL_Driver/Inc/stm32l4xx_ll_rcc.h ****   * @retval PLLSAI1 clock frequency (in Hz)
1641:Drivers/STM32L4xx_HAL_Driver/Inc/stm32l4xx_ll_rcc.h ****   */
1642:Drivers/STM32L4xx_HAL_Driver/Inc/stm32l4xx_ll_rcc.h **** #define __LL_RCC_CALC_PLLSAI1_ADC_FREQ(__INPUTFREQ__, __PLLSAI1M__, __PLLSAI1N__, __PLLSAI1R__) \
1643:Drivers/STM32L4xx_HAL_Driver/Inc/stm32l4xx_ll_rcc.h ****                    ((__INPUTFREQ__) / ((((__PLLSAI1M__) >> RCC_PLLSAI1CFGR_PLLSAI1M_Pos) + 1U)) * (
1644:Drivers/STM32L4xx_HAL_Driver/Inc/stm32l4xx_ll_rcc.h ****                     ((((__PLLSAI1R__) >> RCC_PLLSAI1CFGR_PLLSAI1R_Pos) + 1U) << 1U))
1645:Drivers/STM32L4xx_HAL_Driver/Inc/stm32l4xx_ll_rcc.h **** 
1646:Drivers/STM32L4xx_HAL_Driver/Inc/stm32l4xx_ll_rcc.h **** #else
1647:Drivers/STM32L4xx_HAL_Driver/Inc/stm32l4xx_ll_rcc.h **** /**
1648:Drivers/STM32L4xx_HAL_Driver/Inc/stm32l4xx_ll_rcc.h ****   * @brief  Helper macro to calculate the PLLSAI1 frequency used on ADC domain
1649:Drivers/STM32L4xx_HAL_Driver/Inc/stm32l4xx_ll_rcc.h ****   * @note ex: @ref __LL_RCC_CALC_PLLSAI1_ADC_FREQ (HSE_VALUE,@ref LL_RCC_PLL_GetDivider (),
1650:Drivers/STM32L4xx_HAL_Driver/Inc/stm32l4xx_ll_rcc.h ****   *             @ref LL_RCC_PLLSAI1_GetN (), @ref LL_RCC_PLLSAI1_GetR ());
1651:Drivers/STM32L4xx_HAL_Driver/Inc/stm32l4xx_ll_rcc.h ****   * @param  __INPUTFREQ__ PLL Input frequency (based on MSI/HSE/HSI)
1652:Drivers/STM32L4xx_HAL_Driver/Inc/stm32l4xx_ll_rcc.h ****   * @param  __PLLM__ This parameter can be one of the following values:
1653:Drivers/STM32L4xx_HAL_Driver/Inc/stm32l4xx_ll_rcc.h ****   *         @arg @ref LL_RCC_PLLM_DIV_1
1654:Drivers/STM32L4xx_HAL_Driver/Inc/stm32l4xx_ll_rcc.h ****   *         @arg @ref LL_RCC_PLLM_DIV_2
1655:Drivers/STM32L4xx_HAL_Driver/Inc/stm32l4xx_ll_rcc.h ****   *         @arg @ref LL_RCC_PLLM_DIV_3
1656:Drivers/STM32L4xx_HAL_Driver/Inc/stm32l4xx_ll_rcc.h ****   *         @arg @ref LL_RCC_PLLM_DIV_4
1657:Drivers/STM32L4xx_HAL_Driver/Inc/stm32l4xx_ll_rcc.h ****   *         @arg @ref LL_RCC_PLLM_DIV_5
1658:Drivers/STM32L4xx_HAL_Driver/Inc/stm32l4xx_ll_rcc.h ****   *         @arg @ref LL_RCC_PLLM_DIV_6
1659:Drivers/STM32L4xx_HAL_Driver/Inc/stm32l4xx_ll_rcc.h ****   *         @arg @ref LL_RCC_PLLM_DIV_7
1660:Drivers/STM32L4xx_HAL_Driver/Inc/stm32l4xx_ll_rcc.h ****   *         @arg @ref LL_RCC_PLLM_DIV_8
1661:Drivers/STM32L4xx_HAL_Driver/Inc/stm32l4xx_ll_rcc.h ****   * @param  __PLLSAI1N__ Between 8 and 86
1662:Drivers/STM32L4xx_HAL_Driver/Inc/stm32l4xx_ll_rcc.h ****   * @param  __PLLSAI1R__ This parameter can be one of the following values:
1663:Drivers/STM32L4xx_HAL_Driver/Inc/stm32l4xx_ll_rcc.h ****   *         @arg @ref LL_RCC_PLLSAI1R_DIV_2
1664:Drivers/STM32L4xx_HAL_Driver/Inc/stm32l4xx_ll_rcc.h ****   *         @arg @ref LL_RCC_PLLSAI1R_DIV_4
1665:Drivers/STM32L4xx_HAL_Driver/Inc/stm32l4xx_ll_rcc.h ****   *         @arg @ref LL_RCC_PLLSAI1R_DIV_6
1666:Drivers/STM32L4xx_HAL_Driver/Inc/stm32l4xx_ll_rcc.h ****   *         @arg @ref LL_RCC_PLLSAI1R_DIV_8
1667:Drivers/STM32L4xx_HAL_Driver/Inc/stm32l4xx_ll_rcc.h ****   * @retval PLLSAI1 clock frequency (in Hz)
1668:Drivers/STM32L4xx_HAL_Driver/Inc/stm32l4xx_ll_rcc.h ****   */
1669:Drivers/STM32L4xx_HAL_Driver/Inc/stm32l4xx_ll_rcc.h **** #define __LL_RCC_CALC_PLLSAI1_ADC_FREQ(__INPUTFREQ__, __PLLM__, __PLLSAI1N__, __PLLSAI1R__) \
1670:Drivers/STM32L4xx_HAL_Driver/Inc/stm32l4xx_ll_rcc.h ****                    ((__INPUTFREQ__) / ((((__PLLM__)>> RCC_PLLCFGR_PLLM_Pos) + 1U)) * (__PLLSAI1N__)
1671:Drivers/STM32L4xx_HAL_Driver/Inc/stm32l4xx_ll_rcc.h ****                     ((((__PLLSAI1R__) >> RCC_PLLSAI1CFGR_PLLSAI1R_Pos) + 1U) << 1U))
1672:Drivers/STM32L4xx_HAL_Driver/Inc/stm32l4xx_ll_rcc.h **** 
1673:Drivers/STM32L4xx_HAL_Driver/Inc/stm32l4xx_ll_rcc.h **** #endif /* RCC_PLLSAI1M_DIV_1_16_SUPPORT */
1674:Drivers/STM32L4xx_HAL_Driver/Inc/stm32l4xx_ll_rcc.h **** #endif /* RCC_PLLSAI1_SUPPORT */
1675:Drivers/STM32L4xx_HAL_Driver/Inc/stm32l4xx_ll_rcc.h **** 
1676:Drivers/STM32L4xx_HAL_Driver/Inc/stm32l4xx_ll_rcc.h **** #if defined(RCC_PLLSAI2M_DIV_1_16_SUPPORT) && defined(RCC_PLLSAI2P_DIV_2_31_SUPPORT)
1677:Drivers/STM32L4xx_HAL_Driver/Inc/stm32l4xx_ll_rcc.h **** /**
1678:Drivers/STM32L4xx_HAL_Driver/Inc/stm32l4xx_ll_rcc.h ****   * @brief  Helper macro to calculate the PLLSAI2 frequency used for SAI domain
1679:Drivers/STM32L4xx_HAL_Driver/Inc/stm32l4xx_ll_rcc.h ****   * @note ex: @ref __LL_RCC_CALC_PLLSAI2_SAI_FREQ (HSE_VALUE,@ref LL_RCC_PLLSAI2_GetDivider (),
1680:Drivers/STM32L4xx_HAL_Driver/Inc/stm32l4xx_ll_rcc.h ****   *             @ref LL_RCC_PLLSAI2_GetN (), @ref LL_RCC_PLLSAI2_GetP ());
1681:Drivers/STM32L4xx_HAL_Driver/Inc/stm32l4xx_ll_rcc.h ****   * @param  __INPUTFREQ__ PLL Input frequency (based on MSI/HSE/HSI)
1682:Drivers/STM32L4xx_HAL_Driver/Inc/stm32l4xx_ll_rcc.h ****   * @param  __PLLSAI2M__ This parameter can be one of the following values:
1683:Drivers/STM32L4xx_HAL_Driver/Inc/stm32l4xx_ll_rcc.h ****   *         @arg @ref LL_RCC_PLLSAI2M_DIV_1
1684:Drivers/STM32L4xx_HAL_Driver/Inc/stm32l4xx_ll_rcc.h ****   *         @arg @ref LL_RCC_PLLSAI2M_DIV_2
1685:Drivers/STM32L4xx_HAL_Driver/Inc/stm32l4xx_ll_rcc.h ****   *         @arg @ref LL_RCC_PLLSAI2M_DIV_3
1686:Drivers/STM32L4xx_HAL_Driver/Inc/stm32l4xx_ll_rcc.h ****   *         @arg @ref LL_RCC_PLLSAI2M_DIV_4
1687:Drivers/STM32L4xx_HAL_Driver/Inc/stm32l4xx_ll_rcc.h ****   *         @arg @ref LL_RCC_PLLSAI2M_DIV_5
1688:Drivers/STM32L4xx_HAL_Driver/Inc/stm32l4xx_ll_rcc.h ****   *         @arg @ref LL_RCC_PLLSAI2M_DIV_6
1689:Drivers/STM32L4xx_HAL_Driver/Inc/stm32l4xx_ll_rcc.h ****   *         @arg @ref LL_RCC_PLLSAI2M_DIV_7
1690:Drivers/STM32L4xx_HAL_Driver/Inc/stm32l4xx_ll_rcc.h ****   *         @arg @ref LL_RCC_PLLSAI2M_DIV_8
1691:Drivers/STM32L4xx_HAL_Driver/Inc/stm32l4xx_ll_rcc.h ****   *         @arg @ref LL_RCC_PLLSAI2M_DIV_9
1692:Drivers/STM32L4xx_HAL_Driver/Inc/stm32l4xx_ll_rcc.h ****   *         @arg @ref LL_RCC_PLLSAI2M_DIV_10
1693:Drivers/STM32L4xx_HAL_Driver/Inc/stm32l4xx_ll_rcc.h ****   *         @arg @ref LL_RCC_PLLSAI2M_DIV_11
1694:Drivers/STM32L4xx_HAL_Driver/Inc/stm32l4xx_ll_rcc.h ****   *         @arg @ref LL_RCC_PLLSAI2M_DIV_12
ARM GAS  C:\Temp\ccAfawe4.s 			page 35


1695:Drivers/STM32L4xx_HAL_Driver/Inc/stm32l4xx_ll_rcc.h ****   *         @arg @ref LL_RCC_PLLSAI2M_DIV_13
1696:Drivers/STM32L4xx_HAL_Driver/Inc/stm32l4xx_ll_rcc.h ****   *         @arg @ref LL_RCC_PLLSAI2M_DIV_14
1697:Drivers/STM32L4xx_HAL_Driver/Inc/stm32l4xx_ll_rcc.h ****   *         @arg @ref LL_RCC_PLLSAI2M_DIV_15
1698:Drivers/STM32L4xx_HAL_Driver/Inc/stm32l4xx_ll_rcc.h ****   *         @arg @ref LL_RCC_PLLSAI2M_DIV_16
1699:Drivers/STM32L4xx_HAL_Driver/Inc/stm32l4xx_ll_rcc.h ****   * @param  __PLLSAI2N__ Between 8 and 86 or 127 depending on devices
1700:Drivers/STM32L4xx_HAL_Driver/Inc/stm32l4xx_ll_rcc.h ****   * @param  __PLLSAI2P__ This parameter can be one of the following values:
1701:Drivers/STM32L4xx_HAL_Driver/Inc/stm32l4xx_ll_rcc.h ****   *         @arg @ref LL_RCC_PLLSAI2P_DIV_2
1702:Drivers/STM32L4xx_HAL_Driver/Inc/stm32l4xx_ll_rcc.h ****   *         @arg @ref LL_RCC_PLLSAI2P_DIV_3
1703:Drivers/STM32L4xx_HAL_Driver/Inc/stm32l4xx_ll_rcc.h ****   *         @arg @ref LL_RCC_PLLSAI2P_DIV_4
1704:Drivers/STM32L4xx_HAL_Driver/Inc/stm32l4xx_ll_rcc.h ****   *         @arg @ref LL_RCC_PLLSAI2P_DIV_5
1705:Drivers/STM32L4xx_HAL_Driver/Inc/stm32l4xx_ll_rcc.h ****   *         @arg @ref LL_RCC_PLLSAI2P_DIV_6
1706:Drivers/STM32L4xx_HAL_Driver/Inc/stm32l4xx_ll_rcc.h ****   *         @arg @ref LL_RCC_PLLSAI2P_DIV_7
1707:Drivers/STM32L4xx_HAL_Driver/Inc/stm32l4xx_ll_rcc.h ****   *         @arg @ref LL_RCC_PLLSAI2P_DIV_8
1708:Drivers/STM32L4xx_HAL_Driver/Inc/stm32l4xx_ll_rcc.h ****   *         @arg @ref LL_RCC_PLLSAI2P_DIV_9
1709:Drivers/STM32L4xx_HAL_Driver/Inc/stm32l4xx_ll_rcc.h ****   *         @arg @ref LL_RCC_PLLSAI2P_DIV_10
1710:Drivers/STM32L4xx_HAL_Driver/Inc/stm32l4xx_ll_rcc.h ****   *         @arg @ref LL_RCC_PLLSAI2P_DIV_11
1711:Drivers/STM32L4xx_HAL_Driver/Inc/stm32l4xx_ll_rcc.h ****   *         @arg @ref LL_RCC_PLLSAI2P_DIV_12
1712:Drivers/STM32L4xx_HAL_Driver/Inc/stm32l4xx_ll_rcc.h ****   *         @arg @ref LL_RCC_PLLSAI2P_DIV_13
1713:Drivers/STM32L4xx_HAL_Driver/Inc/stm32l4xx_ll_rcc.h ****   *         @arg @ref LL_RCC_PLLSAI2P_DIV_14
1714:Drivers/STM32L4xx_HAL_Driver/Inc/stm32l4xx_ll_rcc.h ****   *         @arg @ref LL_RCC_PLLSAI2P_DIV_15
1715:Drivers/STM32L4xx_HAL_Driver/Inc/stm32l4xx_ll_rcc.h ****   *         @arg @ref LL_RCC_PLLSAI2P_DIV_16
1716:Drivers/STM32L4xx_HAL_Driver/Inc/stm32l4xx_ll_rcc.h ****   *         @arg @ref LL_RCC_PLLSAI2P_DIV_17
1717:Drivers/STM32L4xx_HAL_Driver/Inc/stm32l4xx_ll_rcc.h ****   *         @arg @ref LL_RCC_PLLSAI2P_DIV_18
1718:Drivers/STM32L4xx_HAL_Driver/Inc/stm32l4xx_ll_rcc.h ****   *         @arg @ref LL_RCC_PLLSAI2P_DIV_19
1719:Drivers/STM32L4xx_HAL_Driver/Inc/stm32l4xx_ll_rcc.h ****   *         @arg @ref LL_RCC_PLLSAI2P_DIV_20
1720:Drivers/STM32L4xx_HAL_Driver/Inc/stm32l4xx_ll_rcc.h ****   *         @arg @ref LL_RCC_PLLSAI2P_DIV_21
1721:Drivers/STM32L4xx_HAL_Driver/Inc/stm32l4xx_ll_rcc.h ****   *         @arg @ref LL_RCC_PLLSAI2P_DIV_22
1722:Drivers/STM32L4xx_HAL_Driver/Inc/stm32l4xx_ll_rcc.h ****   *         @arg @ref LL_RCC_PLLSAI2P_DIV_23
1723:Drivers/STM32L4xx_HAL_Driver/Inc/stm32l4xx_ll_rcc.h ****   *         @arg @ref LL_RCC_PLLSAI2P_DIV_24
1724:Drivers/STM32L4xx_HAL_Driver/Inc/stm32l4xx_ll_rcc.h ****   *         @arg @ref LL_RCC_PLLSAI2P_DIV_25
1725:Drivers/STM32L4xx_HAL_Driver/Inc/stm32l4xx_ll_rcc.h ****   *         @arg @ref LL_RCC_PLLSAI2P_DIV_26
1726:Drivers/STM32L4xx_HAL_Driver/Inc/stm32l4xx_ll_rcc.h ****   *         @arg @ref LL_RCC_PLLSAI2P_DIV_27
1727:Drivers/STM32L4xx_HAL_Driver/Inc/stm32l4xx_ll_rcc.h ****   *         @arg @ref LL_RCC_PLLSAI2P_DIV_28
1728:Drivers/STM32L4xx_HAL_Driver/Inc/stm32l4xx_ll_rcc.h ****   *         @arg @ref LL_RCC_PLLSAI2P_DIV_29
1729:Drivers/STM32L4xx_HAL_Driver/Inc/stm32l4xx_ll_rcc.h ****   *         @arg @ref LL_RCC_PLLSAI2P_DIV_30
1730:Drivers/STM32L4xx_HAL_Driver/Inc/stm32l4xx_ll_rcc.h ****   *         @arg @ref LL_RCC_PLLSAI2P_DIV_31
1731:Drivers/STM32L4xx_HAL_Driver/Inc/stm32l4xx_ll_rcc.h ****   * @retval PLLSAI2 clock frequency (in Hz)
1732:Drivers/STM32L4xx_HAL_Driver/Inc/stm32l4xx_ll_rcc.h ****   */
1733:Drivers/STM32L4xx_HAL_Driver/Inc/stm32l4xx_ll_rcc.h **** #define __LL_RCC_CALC_PLLSAI2_SAI_FREQ(__INPUTFREQ__, __PLLSAI2M__, __PLLSAI2N__, __PLLSAI2P__) \
1734:Drivers/STM32L4xx_HAL_Driver/Inc/stm32l4xx_ll_rcc.h ****                    ((__INPUTFREQ__) / ((((__PLLSAI2M__) >> RCC_PLLSAI2CFGR_PLLSAI2M_Pos) + 1U)) * (
1735:Drivers/STM32L4xx_HAL_Driver/Inc/stm32l4xx_ll_rcc.h ****                     ((__PLLSAI2P__) >> RCC_PLLSAI2CFGR_PLLSAI2PDIV_Pos))
1736:Drivers/STM32L4xx_HAL_Driver/Inc/stm32l4xx_ll_rcc.h **** 
1737:Drivers/STM32L4xx_HAL_Driver/Inc/stm32l4xx_ll_rcc.h **** #elif defined(RCC_PLLSAI2P_DIV_2_31_SUPPORT)
1738:Drivers/STM32L4xx_HAL_Driver/Inc/stm32l4xx_ll_rcc.h **** /**
1739:Drivers/STM32L4xx_HAL_Driver/Inc/stm32l4xx_ll_rcc.h ****   * @brief  Helper macro to calculate the PLLSAI2 frequency used for SAI domain
1740:Drivers/STM32L4xx_HAL_Driver/Inc/stm32l4xx_ll_rcc.h ****   * @note ex: @ref __LL_RCC_CALC_PLLSAI2_SAI_FREQ (HSE_VALUE,@ref LL_RCC_PLL_GetDivider (),
1741:Drivers/STM32L4xx_HAL_Driver/Inc/stm32l4xx_ll_rcc.h ****   *             @ref LL_RCC_PLLSAI2_GetN (), @ref LL_RCC_PLLSAI2_GetP ());
1742:Drivers/STM32L4xx_HAL_Driver/Inc/stm32l4xx_ll_rcc.h ****   * @param  __INPUTFREQ__ PLL Input frequency (based on MSI/HSE/HSI)
1743:Drivers/STM32L4xx_HAL_Driver/Inc/stm32l4xx_ll_rcc.h ****   * @param  __PLLM__ This parameter can be one of the following values:
1744:Drivers/STM32L4xx_HAL_Driver/Inc/stm32l4xx_ll_rcc.h ****   *         @arg @ref LL_RCC_PLLM_DIV_1
1745:Drivers/STM32L4xx_HAL_Driver/Inc/stm32l4xx_ll_rcc.h ****   *         @arg @ref LL_RCC_PLLM_DIV_2
1746:Drivers/STM32L4xx_HAL_Driver/Inc/stm32l4xx_ll_rcc.h ****   *         @arg @ref LL_RCC_PLLM_DIV_3
1747:Drivers/STM32L4xx_HAL_Driver/Inc/stm32l4xx_ll_rcc.h ****   *         @arg @ref LL_RCC_PLLM_DIV_4
1748:Drivers/STM32L4xx_HAL_Driver/Inc/stm32l4xx_ll_rcc.h ****   *         @arg @ref LL_RCC_PLLM_DIV_5
1749:Drivers/STM32L4xx_HAL_Driver/Inc/stm32l4xx_ll_rcc.h ****   *         @arg @ref LL_RCC_PLLM_DIV_6
1750:Drivers/STM32L4xx_HAL_Driver/Inc/stm32l4xx_ll_rcc.h ****   *         @arg @ref LL_RCC_PLLM_DIV_7
1751:Drivers/STM32L4xx_HAL_Driver/Inc/stm32l4xx_ll_rcc.h ****   *         @arg @ref LL_RCC_PLLM_DIV_8
ARM GAS  C:\Temp\ccAfawe4.s 			page 36


1752:Drivers/STM32L4xx_HAL_Driver/Inc/stm32l4xx_ll_rcc.h ****   * @param  __PLLSAI2N__ Between 8 and 86 or 127 depending on devices
1753:Drivers/STM32L4xx_HAL_Driver/Inc/stm32l4xx_ll_rcc.h ****   * @param  __PLLSAI2P__ This parameter can be one of the following values:
1754:Drivers/STM32L4xx_HAL_Driver/Inc/stm32l4xx_ll_rcc.h ****   *         @arg @ref LL_RCC_PLLSAI2P_DIV_2
1755:Drivers/STM32L4xx_HAL_Driver/Inc/stm32l4xx_ll_rcc.h ****   *         @arg @ref LL_RCC_PLLSAI2P_DIV_3
1756:Drivers/STM32L4xx_HAL_Driver/Inc/stm32l4xx_ll_rcc.h ****   *         @arg @ref LL_RCC_PLLSAI2P_DIV_4
1757:Drivers/STM32L4xx_HAL_Driver/Inc/stm32l4xx_ll_rcc.h ****   *         @arg @ref LL_RCC_PLLSAI2P_DIV_5
1758:Drivers/STM32L4xx_HAL_Driver/Inc/stm32l4xx_ll_rcc.h ****   *         @arg @ref LL_RCC_PLLSAI2P_DIV_6
1759:Drivers/STM32L4xx_HAL_Driver/Inc/stm32l4xx_ll_rcc.h ****   *         @arg @ref LL_RCC_PLLSAI2P_DIV_7
1760:Drivers/STM32L4xx_HAL_Driver/Inc/stm32l4xx_ll_rcc.h ****   *         @arg @ref LL_RCC_PLLSAI2P_DIV_8
1761:Drivers/STM32L4xx_HAL_Driver/Inc/stm32l4xx_ll_rcc.h ****   *         @arg @ref LL_RCC_PLLSAI2P_DIV_9
1762:Drivers/STM32L4xx_HAL_Driver/Inc/stm32l4xx_ll_rcc.h ****   *         @arg @ref LL_RCC_PLLSAI2P_DIV_10
1763:Drivers/STM32L4xx_HAL_Driver/Inc/stm32l4xx_ll_rcc.h ****   *         @arg @ref LL_RCC_PLLSAI2P_DIV_11
1764:Drivers/STM32L4xx_HAL_Driver/Inc/stm32l4xx_ll_rcc.h ****   *         @arg @ref LL_RCC_PLLSAI2P_DIV_12
1765:Drivers/STM32L4xx_HAL_Driver/Inc/stm32l4xx_ll_rcc.h ****   *         @arg @ref LL_RCC_PLLSAI2P_DIV_13
1766:Drivers/STM32L4xx_HAL_Driver/Inc/stm32l4xx_ll_rcc.h ****   *         @arg @ref LL_RCC_PLLSAI2P_DIV_14
1767:Drivers/STM32L4xx_HAL_Driver/Inc/stm32l4xx_ll_rcc.h ****   *         @arg @ref LL_RCC_PLLSAI2P_DIV_15
1768:Drivers/STM32L4xx_HAL_Driver/Inc/stm32l4xx_ll_rcc.h ****   *         @arg @ref LL_RCC_PLLSAI2P_DIV_16
1769:Drivers/STM32L4xx_HAL_Driver/Inc/stm32l4xx_ll_rcc.h ****   *         @arg @ref LL_RCC_PLLSAI2P_DIV_17
1770:Drivers/STM32L4xx_HAL_Driver/Inc/stm32l4xx_ll_rcc.h ****   *         @arg @ref LL_RCC_PLLSAI2P_DIV_18
1771:Drivers/STM32L4xx_HAL_Driver/Inc/stm32l4xx_ll_rcc.h ****   *         @arg @ref LL_RCC_PLLSAI2P_DIV_19
1772:Drivers/STM32L4xx_HAL_Driver/Inc/stm32l4xx_ll_rcc.h ****   *         @arg @ref LL_RCC_PLLSAI2P_DIV_20
1773:Drivers/STM32L4xx_HAL_Driver/Inc/stm32l4xx_ll_rcc.h ****   *         @arg @ref LL_RCC_PLLSAI2P_DIV_21
1774:Drivers/STM32L4xx_HAL_Driver/Inc/stm32l4xx_ll_rcc.h ****   *         @arg @ref LL_RCC_PLLSAI2P_DIV_22
1775:Drivers/STM32L4xx_HAL_Driver/Inc/stm32l4xx_ll_rcc.h ****   *         @arg @ref LL_RCC_PLLSAI2P_DIV_23
1776:Drivers/STM32L4xx_HAL_Driver/Inc/stm32l4xx_ll_rcc.h ****   *         @arg @ref LL_RCC_PLLSAI2P_DIV_24
1777:Drivers/STM32L4xx_HAL_Driver/Inc/stm32l4xx_ll_rcc.h ****   *         @arg @ref LL_RCC_PLLSAI2P_DIV_25
1778:Drivers/STM32L4xx_HAL_Driver/Inc/stm32l4xx_ll_rcc.h ****   *         @arg @ref LL_RCC_PLLSAI2P_DIV_26
1779:Drivers/STM32L4xx_HAL_Driver/Inc/stm32l4xx_ll_rcc.h ****   *         @arg @ref LL_RCC_PLLSAI2P_DIV_27
1780:Drivers/STM32L4xx_HAL_Driver/Inc/stm32l4xx_ll_rcc.h ****   *         @arg @ref LL_RCC_PLLSAI2P_DIV_28
1781:Drivers/STM32L4xx_HAL_Driver/Inc/stm32l4xx_ll_rcc.h ****   *         @arg @ref LL_RCC_PLLSAI2P_DIV_29
1782:Drivers/STM32L4xx_HAL_Driver/Inc/stm32l4xx_ll_rcc.h ****   *         @arg @ref LL_RCC_PLLSAI2P_DIV_30
1783:Drivers/STM32L4xx_HAL_Driver/Inc/stm32l4xx_ll_rcc.h ****   *         @arg @ref LL_RCC_PLLSAI2P_DIV_31
1784:Drivers/STM32L4xx_HAL_Driver/Inc/stm32l4xx_ll_rcc.h ****   * @retval PLLSAI2 clock frequency (in Hz)
1785:Drivers/STM32L4xx_HAL_Driver/Inc/stm32l4xx_ll_rcc.h ****   */
1786:Drivers/STM32L4xx_HAL_Driver/Inc/stm32l4xx_ll_rcc.h **** #define __LL_RCC_CALC_PLLSAI2_SAI_FREQ(__INPUTFREQ__, __PLLM__, __PLLSAI2N__, __PLLSAI2P__) \
1787:Drivers/STM32L4xx_HAL_Driver/Inc/stm32l4xx_ll_rcc.h ****                    ((__INPUTFREQ__) / ((((__PLLM__)>> RCC_PLLCFGR_PLLM_Pos) + 1U)) * (__PLLSAI2N__)
1788:Drivers/STM32L4xx_HAL_Driver/Inc/stm32l4xx_ll_rcc.h ****                     ((__PLLSAI2P__) >> RCC_PLLSAI2CFGR_PLLSAI2PDIV_Pos))
1789:Drivers/STM32L4xx_HAL_Driver/Inc/stm32l4xx_ll_rcc.h **** 
1790:Drivers/STM32L4xx_HAL_Driver/Inc/stm32l4xx_ll_rcc.h **** #else
1791:Drivers/STM32L4xx_HAL_Driver/Inc/stm32l4xx_ll_rcc.h **** /**
1792:Drivers/STM32L4xx_HAL_Driver/Inc/stm32l4xx_ll_rcc.h ****   * @brief  Helper macro to calculate the PLLSAI2 frequency used for SAI domain
1793:Drivers/STM32L4xx_HAL_Driver/Inc/stm32l4xx_ll_rcc.h ****   * @note ex: @ref __LL_RCC_CALC_PLLSAI2_SAI_FREQ (HSE_VALUE,@ref LL_RCC_PLL_GetDivider (),
1794:Drivers/STM32L4xx_HAL_Driver/Inc/stm32l4xx_ll_rcc.h ****   *             @ref LL_RCC_PLLSAI2_GetN (), @ref LL_RCC_PLLSAI2_GetP ());
1795:Drivers/STM32L4xx_HAL_Driver/Inc/stm32l4xx_ll_rcc.h ****   * @param  __INPUTFREQ__ PLL Input frequency (based on MSI/HSE/HSI)
1796:Drivers/STM32L4xx_HAL_Driver/Inc/stm32l4xx_ll_rcc.h ****   * @param  __PLLM__ This parameter can be one of the following values:
1797:Drivers/STM32L4xx_HAL_Driver/Inc/stm32l4xx_ll_rcc.h ****   *         @arg @ref LL_RCC_PLLM_DIV_1
1798:Drivers/STM32L4xx_HAL_Driver/Inc/stm32l4xx_ll_rcc.h ****   *         @arg @ref LL_RCC_PLLM_DIV_2
1799:Drivers/STM32L4xx_HAL_Driver/Inc/stm32l4xx_ll_rcc.h ****   *         @arg @ref LL_RCC_PLLM_DIV_3
1800:Drivers/STM32L4xx_HAL_Driver/Inc/stm32l4xx_ll_rcc.h ****   *         @arg @ref LL_RCC_PLLM_DIV_4
1801:Drivers/STM32L4xx_HAL_Driver/Inc/stm32l4xx_ll_rcc.h ****   *         @arg @ref LL_RCC_PLLM_DIV_5
1802:Drivers/STM32L4xx_HAL_Driver/Inc/stm32l4xx_ll_rcc.h ****   *         @arg @ref LL_RCC_PLLM_DIV_6
1803:Drivers/STM32L4xx_HAL_Driver/Inc/stm32l4xx_ll_rcc.h ****   *         @arg @ref LL_RCC_PLLM_DIV_7
1804:Drivers/STM32L4xx_HAL_Driver/Inc/stm32l4xx_ll_rcc.h ****   *         @arg @ref LL_RCC_PLLM_DIV_8
1805:Drivers/STM32L4xx_HAL_Driver/Inc/stm32l4xx_ll_rcc.h ****   * @param  __PLLSAI2N__ Between 8 and 86
1806:Drivers/STM32L4xx_HAL_Driver/Inc/stm32l4xx_ll_rcc.h ****   * @param  __PLLSAI2P__ This parameter can be one of the following values:
1807:Drivers/STM32L4xx_HAL_Driver/Inc/stm32l4xx_ll_rcc.h ****   *         @arg @ref LL_RCC_PLLSAI2P_DIV_7
1808:Drivers/STM32L4xx_HAL_Driver/Inc/stm32l4xx_ll_rcc.h ****   *         @arg @ref LL_RCC_PLLSAI2P_DIV_17
ARM GAS  C:\Temp\ccAfawe4.s 			page 37


1809:Drivers/STM32L4xx_HAL_Driver/Inc/stm32l4xx_ll_rcc.h ****   * @retval PLLSAI2 clock frequency (in Hz)
1810:Drivers/STM32L4xx_HAL_Driver/Inc/stm32l4xx_ll_rcc.h ****   */
1811:Drivers/STM32L4xx_HAL_Driver/Inc/stm32l4xx_ll_rcc.h **** #define __LL_RCC_CALC_PLLSAI2_SAI_FREQ(__INPUTFREQ__, __PLLM__, __PLLSAI2N__, __PLLSAI2P__) \
1812:Drivers/STM32L4xx_HAL_Driver/Inc/stm32l4xx_ll_rcc.h ****                    ((__INPUTFREQ__) / ((((__PLLM__)>> RCC_PLLCFGR_PLLM_Pos) + 1)) * (__PLLSAI2N__) 
1813:Drivers/STM32L4xx_HAL_Driver/Inc/stm32l4xx_ll_rcc.h ****                     (((__PLLSAI2P__) == LL_RCC_PLLSAI2P_DIV_7) ? 7U : 17U))
1814:Drivers/STM32L4xx_HAL_Driver/Inc/stm32l4xx_ll_rcc.h **** 
1815:Drivers/STM32L4xx_HAL_Driver/Inc/stm32l4xx_ll_rcc.h **** #endif /* RCC_PLLSAI2P_DIV_2_31_SUPPORT */
1816:Drivers/STM32L4xx_HAL_Driver/Inc/stm32l4xx_ll_rcc.h **** 
1817:Drivers/STM32L4xx_HAL_Driver/Inc/stm32l4xx_ll_rcc.h **** #if defined(LTDC)
1818:Drivers/STM32L4xx_HAL_Driver/Inc/stm32l4xx_ll_rcc.h **** /**
1819:Drivers/STM32L4xx_HAL_Driver/Inc/stm32l4xx_ll_rcc.h ****   * @brief  Helper macro to calculate the PLLSAI2 frequency used for LTDC domain
1820:Drivers/STM32L4xx_HAL_Driver/Inc/stm32l4xx_ll_rcc.h ****   * @note ex: @ref __LL_RCC_CALC_PLLSAI2_LTDC_FREQ (HSE_VALUE,@ref LL_RCC_PLLSAI2_GetDivider (),
1821:Drivers/STM32L4xx_HAL_Driver/Inc/stm32l4xx_ll_rcc.h ****   *             @ref LL_RCC_PLLSAI2_GetN (), @ref LL_RCC_PLLSAI2_GetR (), @ref LL_RCC_PLLSAI2_GetDI
1822:Drivers/STM32L4xx_HAL_Driver/Inc/stm32l4xx_ll_rcc.h ****   * @param  __INPUTFREQ__ PLL Input frequency (based on HSE/HSI/MSI)
1823:Drivers/STM32L4xx_HAL_Driver/Inc/stm32l4xx_ll_rcc.h ****   * @param  __PLLSAI2M__ This parameter can be one of the following values:
1824:Drivers/STM32L4xx_HAL_Driver/Inc/stm32l4xx_ll_rcc.h ****   *         @arg @ref LL_RCC_PLLSAI2M_DIV_1
1825:Drivers/STM32L4xx_HAL_Driver/Inc/stm32l4xx_ll_rcc.h ****   *         @arg @ref LL_RCC_PLLSAI2M_DIV_2
1826:Drivers/STM32L4xx_HAL_Driver/Inc/stm32l4xx_ll_rcc.h ****   *         @arg @ref LL_RCC_PLLSAI2M_DIV_3
1827:Drivers/STM32L4xx_HAL_Driver/Inc/stm32l4xx_ll_rcc.h ****   *         @arg @ref LL_RCC_PLLSAI2M_DIV_4
1828:Drivers/STM32L4xx_HAL_Driver/Inc/stm32l4xx_ll_rcc.h ****   *         @arg @ref LL_RCC_PLLSAI2M_DIV_5
1829:Drivers/STM32L4xx_HAL_Driver/Inc/stm32l4xx_ll_rcc.h ****   *         @arg @ref LL_RCC_PLLSAI2M_DIV_6
1830:Drivers/STM32L4xx_HAL_Driver/Inc/stm32l4xx_ll_rcc.h ****   *         @arg @ref LL_RCC_PLLSAI2M_DIV_7
1831:Drivers/STM32L4xx_HAL_Driver/Inc/stm32l4xx_ll_rcc.h ****   *         @arg @ref LL_RCC_PLLSAI2M_DIV_8
1832:Drivers/STM32L4xx_HAL_Driver/Inc/stm32l4xx_ll_rcc.h ****   *         @arg @ref LL_RCC_PLLSAI2M_DIV_9
1833:Drivers/STM32L4xx_HAL_Driver/Inc/stm32l4xx_ll_rcc.h ****   *         @arg @ref LL_RCC_PLLSAI2M_DIV_10
1834:Drivers/STM32L4xx_HAL_Driver/Inc/stm32l4xx_ll_rcc.h ****   *         @arg @ref LL_RCC_PLLSAI2M_DIV_11
1835:Drivers/STM32L4xx_HAL_Driver/Inc/stm32l4xx_ll_rcc.h ****   *         @arg @ref LL_RCC_PLLSAI2M_DIV_12
1836:Drivers/STM32L4xx_HAL_Driver/Inc/stm32l4xx_ll_rcc.h ****   *         @arg @ref LL_RCC_PLLSAI2M_DIV_13
1837:Drivers/STM32L4xx_HAL_Driver/Inc/stm32l4xx_ll_rcc.h ****   *         @arg @ref LL_RCC_PLLSAI2M_DIV_14
1838:Drivers/STM32L4xx_HAL_Driver/Inc/stm32l4xx_ll_rcc.h ****   *         @arg @ref LL_RCC_PLLSAI2M_DIV_15
1839:Drivers/STM32L4xx_HAL_Driver/Inc/stm32l4xx_ll_rcc.h ****   *         @arg @ref LL_RCC_PLLSAI2M_DIV_16
1840:Drivers/STM32L4xx_HAL_Driver/Inc/stm32l4xx_ll_rcc.h ****   * @param  __PLLSAI2N__ Between 8 and 127
1841:Drivers/STM32L4xx_HAL_Driver/Inc/stm32l4xx_ll_rcc.h ****   * @param  __PLLSAI2R__ This parameter can be one of the following values:
1842:Drivers/STM32L4xx_HAL_Driver/Inc/stm32l4xx_ll_rcc.h ****   *         @arg @ref LL_RCC_PLLSAI2R_DIV_2
1843:Drivers/STM32L4xx_HAL_Driver/Inc/stm32l4xx_ll_rcc.h ****   *         @arg @ref LL_RCC_PLLSAI2R_DIV_4
1844:Drivers/STM32L4xx_HAL_Driver/Inc/stm32l4xx_ll_rcc.h ****   *         @arg @ref LL_RCC_PLLSAI2R_DIV_6
1845:Drivers/STM32L4xx_HAL_Driver/Inc/stm32l4xx_ll_rcc.h ****   *         @arg @ref LL_RCC_PLLSAI2R_DIV_8
1846:Drivers/STM32L4xx_HAL_Driver/Inc/stm32l4xx_ll_rcc.h ****   * @param  __PLLSAI2DIVR__ This parameter can be one of the following values:
1847:Drivers/STM32L4xx_HAL_Driver/Inc/stm32l4xx_ll_rcc.h ****   *         @arg @ref LL_RCC_PLLSAI2DIVR_DIV_2
1848:Drivers/STM32L4xx_HAL_Driver/Inc/stm32l4xx_ll_rcc.h ****   *         @arg @ref LL_RCC_PLLSAI2DIVR_DIV_4
1849:Drivers/STM32L4xx_HAL_Driver/Inc/stm32l4xx_ll_rcc.h ****   *         @arg @ref LL_RCC_PLLSAI2DIVR_DIV_8
1850:Drivers/STM32L4xx_HAL_Driver/Inc/stm32l4xx_ll_rcc.h ****   *         @arg @ref LL_RCC_PLLSAI2DIVR_DIV_16
1851:Drivers/STM32L4xx_HAL_Driver/Inc/stm32l4xx_ll_rcc.h ****   * @retval PLLSAI2 clock frequency (in Hz)
1852:Drivers/STM32L4xx_HAL_Driver/Inc/stm32l4xx_ll_rcc.h ****   */
1853:Drivers/STM32L4xx_HAL_Driver/Inc/stm32l4xx_ll_rcc.h **** #define __LL_RCC_CALC_PLLSAI2_LTDC_FREQ(__INPUTFREQ__, __PLLSAI2M__, __PLLSAI2N__, __PLLSAI2R__, __
1854:Drivers/STM32L4xx_HAL_Driver/Inc/stm32l4xx_ll_rcc.h ****                    (((__INPUTFREQ__) / (((__PLLSAI2M__)>> RCC_PLLSAI2CFGR_PLLSAI2M_Pos) + 1U)) * (_
1855:Drivers/STM32L4xx_HAL_Driver/Inc/stm32l4xx_ll_rcc.h ****                     (((((__PLLSAI2R__) >> RCC_PLLSAI2CFGR_PLLSAI2R_Pos ) + 1U) << 1U) * (2UL << ((_
1856:Drivers/STM32L4xx_HAL_Driver/Inc/stm32l4xx_ll_rcc.h **** #elif defined(RCC_PLLSAI2_SUPPORT)
1857:Drivers/STM32L4xx_HAL_Driver/Inc/stm32l4xx_ll_rcc.h **** /**
1858:Drivers/STM32L4xx_HAL_Driver/Inc/stm32l4xx_ll_rcc.h ****   * @brief  Helper macro to calculate the PLLSAI2 frequency used on ADC domain
1859:Drivers/STM32L4xx_HAL_Driver/Inc/stm32l4xx_ll_rcc.h ****   * @note ex: @ref __LL_RCC_CALC_PLLSAI2_ADC_FREQ (HSE_VALUE,@ref LL_RCC_PLL_GetDivider (),
1860:Drivers/STM32L4xx_HAL_Driver/Inc/stm32l4xx_ll_rcc.h ****   *             @ref LL_RCC_PLLSAI2_GetN (), @ref LL_RCC_PLLSAI2_GetR ());
1861:Drivers/STM32L4xx_HAL_Driver/Inc/stm32l4xx_ll_rcc.h ****   * @param  __INPUTFREQ__ PLL Input frequency (based on MSI/HSE/HSI)
1862:Drivers/STM32L4xx_HAL_Driver/Inc/stm32l4xx_ll_rcc.h ****   * @param  __PLLM__ This parameter can be one of the following values:
1863:Drivers/STM32L4xx_HAL_Driver/Inc/stm32l4xx_ll_rcc.h ****   *         @arg @ref LL_RCC_PLLM_DIV_1
1864:Drivers/STM32L4xx_HAL_Driver/Inc/stm32l4xx_ll_rcc.h ****   *         @arg @ref LL_RCC_PLLM_DIV_2
1865:Drivers/STM32L4xx_HAL_Driver/Inc/stm32l4xx_ll_rcc.h ****   *         @arg @ref LL_RCC_PLLM_DIV_3
ARM GAS  C:\Temp\ccAfawe4.s 			page 38


1866:Drivers/STM32L4xx_HAL_Driver/Inc/stm32l4xx_ll_rcc.h ****   *         @arg @ref LL_RCC_PLLM_DIV_4
1867:Drivers/STM32L4xx_HAL_Driver/Inc/stm32l4xx_ll_rcc.h ****   *         @arg @ref LL_RCC_PLLM_DIV_5
1868:Drivers/STM32L4xx_HAL_Driver/Inc/stm32l4xx_ll_rcc.h ****   *         @arg @ref LL_RCC_PLLM_DIV_6
1869:Drivers/STM32L4xx_HAL_Driver/Inc/stm32l4xx_ll_rcc.h ****   *         @arg @ref LL_RCC_PLLM_DIV_7
1870:Drivers/STM32L4xx_HAL_Driver/Inc/stm32l4xx_ll_rcc.h ****   *         @arg @ref LL_RCC_PLLM_DIV_8
1871:Drivers/STM32L4xx_HAL_Driver/Inc/stm32l4xx_ll_rcc.h ****   * @param  __PLLSAI2N__ Between 8 and 86
1872:Drivers/STM32L4xx_HAL_Driver/Inc/stm32l4xx_ll_rcc.h ****   * @param  __PLLSAI2R__ This parameter can be one of the following values:
1873:Drivers/STM32L4xx_HAL_Driver/Inc/stm32l4xx_ll_rcc.h ****   *         @arg @ref LL_RCC_PLLSAI2R_DIV_2
1874:Drivers/STM32L4xx_HAL_Driver/Inc/stm32l4xx_ll_rcc.h ****   *         @arg @ref LL_RCC_PLLSAI2R_DIV_4
1875:Drivers/STM32L4xx_HAL_Driver/Inc/stm32l4xx_ll_rcc.h ****   *         @arg @ref LL_RCC_PLLSAI2R_DIV_6
1876:Drivers/STM32L4xx_HAL_Driver/Inc/stm32l4xx_ll_rcc.h ****   *         @arg @ref LL_RCC_PLLSAI2R_DIV_8
1877:Drivers/STM32L4xx_HAL_Driver/Inc/stm32l4xx_ll_rcc.h ****   * @retval PLLSAI2 clock frequency (in Hz)
1878:Drivers/STM32L4xx_HAL_Driver/Inc/stm32l4xx_ll_rcc.h ****   */
1879:Drivers/STM32L4xx_HAL_Driver/Inc/stm32l4xx_ll_rcc.h **** #define __LL_RCC_CALC_PLLSAI2_ADC_FREQ(__INPUTFREQ__, __PLLM__, __PLLSAI2N__, __PLLSAI2R__) \
1880:Drivers/STM32L4xx_HAL_Driver/Inc/stm32l4xx_ll_rcc.h ****                    ((__INPUTFREQ__) / ((((__PLLM__)>> RCC_PLLCFGR_PLLM_Pos) + 1U)) * (__PLLSAI2N__)
1881:Drivers/STM32L4xx_HAL_Driver/Inc/stm32l4xx_ll_rcc.h ****                     ((((__PLLSAI2R__) >> RCC_PLLSAI2CFGR_PLLSAI2R_Pos ) + 1U) << 1U))
1882:Drivers/STM32L4xx_HAL_Driver/Inc/stm32l4xx_ll_rcc.h **** 
1883:Drivers/STM32L4xx_HAL_Driver/Inc/stm32l4xx_ll_rcc.h **** #endif /* LTDC */
1884:Drivers/STM32L4xx_HAL_Driver/Inc/stm32l4xx_ll_rcc.h **** 
1885:Drivers/STM32L4xx_HAL_Driver/Inc/stm32l4xx_ll_rcc.h **** #if defined(DSI)
1886:Drivers/STM32L4xx_HAL_Driver/Inc/stm32l4xx_ll_rcc.h **** /**
1887:Drivers/STM32L4xx_HAL_Driver/Inc/stm32l4xx_ll_rcc.h ****   * @brief  Helper macro to calculate the PLLDSICLK frequency used on DSI
1888:Drivers/STM32L4xx_HAL_Driver/Inc/stm32l4xx_ll_rcc.h ****   * @note ex: @ref __LL_RCC_CALC_PLLSAI2_DSI_FREQ (HSE_VALUE,@ref LL_RCC_PLLSAI2_GetDivider (),
1889:Drivers/STM32L4xx_HAL_Driver/Inc/stm32l4xx_ll_rcc.h ****   *             @ref LL_RCC_PLLSAI2_GetN (), @ref LL_RCC_PLLSAI2_GetQ ());
1890:Drivers/STM32L4xx_HAL_Driver/Inc/stm32l4xx_ll_rcc.h ****   * @param  __INPUTFREQ__ PLL Input frequency (based on HSE/HSI/MSI)
1891:Drivers/STM32L4xx_HAL_Driver/Inc/stm32l4xx_ll_rcc.h ****   * @param  __PLLSAI2M__ This parameter can be one of the following values:
1892:Drivers/STM32L4xx_HAL_Driver/Inc/stm32l4xx_ll_rcc.h ****   *         @arg @ref LL_RCC_PLLSAI2M_DIV_1
1893:Drivers/STM32L4xx_HAL_Driver/Inc/stm32l4xx_ll_rcc.h ****   *         @arg @ref LL_RCC_PLLSAI2M_DIV_2
1894:Drivers/STM32L4xx_HAL_Driver/Inc/stm32l4xx_ll_rcc.h ****   *         @arg @ref LL_RCC_PLLSAI2M_DIV_3
1895:Drivers/STM32L4xx_HAL_Driver/Inc/stm32l4xx_ll_rcc.h ****   *         @arg @ref LL_RCC_PLLSAI2M_DIV_4
1896:Drivers/STM32L4xx_HAL_Driver/Inc/stm32l4xx_ll_rcc.h ****   *         @arg @ref LL_RCC_PLLSAI2M_DIV_5
1897:Drivers/STM32L4xx_HAL_Driver/Inc/stm32l4xx_ll_rcc.h ****   *         @arg @ref LL_RCC_PLLSAI2M_DIV_6
1898:Drivers/STM32L4xx_HAL_Driver/Inc/stm32l4xx_ll_rcc.h ****   *         @arg @ref LL_RCC_PLLSAI2M_DIV_7
1899:Drivers/STM32L4xx_HAL_Driver/Inc/stm32l4xx_ll_rcc.h ****   *         @arg @ref LL_RCC_PLLSAI2M_DIV_8
1900:Drivers/STM32L4xx_HAL_Driver/Inc/stm32l4xx_ll_rcc.h ****   *         @arg @ref LL_RCC_PLLSAI2M_DIV_9
1901:Drivers/STM32L4xx_HAL_Driver/Inc/stm32l4xx_ll_rcc.h ****   *         @arg @ref LL_RCC_PLLSAI2M_DIV_10
1902:Drivers/STM32L4xx_HAL_Driver/Inc/stm32l4xx_ll_rcc.h ****   *         @arg @ref LL_RCC_PLLSAI2M_DIV_11
1903:Drivers/STM32L4xx_HAL_Driver/Inc/stm32l4xx_ll_rcc.h ****   *         @arg @ref LL_RCC_PLLSAI2M_DIV_12
1904:Drivers/STM32L4xx_HAL_Driver/Inc/stm32l4xx_ll_rcc.h ****   *         @arg @ref LL_RCC_PLLSAI2M_DIV_13
1905:Drivers/STM32L4xx_HAL_Driver/Inc/stm32l4xx_ll_rcc.h ****   *         @arg @ref LL_RCC_PLLSAI2M_DIV_14
1906:Drivers/STM32L4xx_HAL_Driver/Inc/stm32l4xx_ll_rcc.h ****   *         @arg @ref LL_RCC_PLLSAI2M_DIV_15
1907:Drivers/STM32L4xx_HAL_Driver/Inc/stm32l4xx_ll_rcc.h ****   *         @arg @ref LL_RCC_PLLSAI2M_DIV_16
1908:Drivers/STM32L4xx_HAL_Driver/Inc/stm32l4xx_ll_rcc.h ****   * @param  __PLLSAI2N__ Between 8 and 127
1909:Drivers/STM32L4xx_HAL_Driver/Inc/stm32l4xx_ll_rcc.h ****   * @param  __PLLSAI2Q__ This parameter can be one of the following values:
1910:Drivers/STM32L4xx_HAL_Driver/Inc/stm32l4xx_ll_rcc.h ****   *         @arg @ref LL_RCC_PLLSAI2Q_DIV_2
1911:Drivers/STM32L4xx_HAL_Driver/Inc/stm32l4xx_ll_rcc.h ****   *         @arg @ref LL_RCC_PLLSAI2Q_DIV_4
1912:Drivers/STM32L4xx_HAL_Driver/Inc/stm32l4xx_ll_rcc.h ****   *         @arg @ref LL_RCC_PLLSAI2Q_DIV_6
1913:Drivers/STM32L4xx_HAL_Driver/Inc/stm32l4xx_ll_rcc.h ****   *         @arg @ref LL_RCC_PLLSAI2Q_DIV_8
1914:Drivers/STM32L4xx_HAL_Driver/Inc/stm32l4xx_ll_rcc.h ****   * @retval PLL clock frequency (in Hz)
1915:Drivers/STM32L4xx_HAL_Driver/Inc/stm32l4xx_ll_rcc.h ****   */
1916:Drivers/STM32L4xx_HAL_Driver/Inc/stm32l4xx_ll_rcc.h **** #define __LL_RCC_CALC_PLLSAI2_DSI_FREQ(__INPUTFREQ__, __PLLSAI2M__, __PLLSAI2N__, __PLLSAI2Q__) \
1917:Drivers/STM32L4xx_HAL_Driver/Inc/stm32l4xx_ll_rcc.h ****                    ((__INPUTFREQ__) / ((((__PLLSAI2M__) >> RCC_PLLSAI2CFGR_PLLSAI2M_Pos) + 1U)) * (
1918:Drivers/STM32L4xx_HAL_Driver/Inc/stm32l4xx_ll_rcc.h ****                     ((((__PLLSAI2Q__) >> RCC_PLLSAI2CFGR_PLLSAI2Q_Pos) + 1U) << 1U))
1919:Drivers/STM32L4xx_HAL_Driver/Inc/stm32l4xx_ll_rcc.h **** #endif /* DSI */
1920:Drivers/STM32L4xx_HAL_Driver/Inc/stm32l4xx_ll_rcc.h **** 
1921:Drivers/STM32L4xx_HAL_Driver/Inc/stm32l4xx_ll_rcc.h **** 
1922:Drivers/STM32L4xx_HAL_Driver/Inc/stm32l4xx_ll_rcc.h **** 
ARM GAS  C:\Temp\ccAfawe4.s 			page 39


1923:Drivers/STM32L4xx_HAL_Driver/Inc/stm32l4xx_ll_rcc.h **** /**
1924:Drivers/STM32L4xx_HAL_Driver/Inc/stm32l4xx_ll_rcc.h ****   * @brief  Helper macro to calculate the HCLK frequency
1925:Drivers/STM32L4xx_HAL_Driver/Inc/stm32l4xx_ll_rcc.h ****   * @param  __SYSCLKFREQ__ SYSCLK frequency (based on MSI/HSE/HSI/PLLCLK)
1926:Drivers/STM32L4xx_HAL_Driver/Inc/stm32l4xx_ll_rcc.h ****   * @param  __AHBPRESCALER__ This parameter can be one of the following values:
1927:Drivers/STM32L4xx_HAL_Driver/Inc/stm32l4xx_ll_rcc.h ****   *         @arg @ref LL_RCC_SYSCLK_DIV_1
1928:Drivers/STM32L4xx_HAL_Driver/Inc/stm32l4xx_ll_rcc.h ****   *         @arg @ref LL_RCC_SYSCLK_DIV_2
1929:Drivers/STM32L4xx_HAL_Driver/Inc/stm32l4xx_ll_rcc.h ****   *         @arg @ref LL_RCC_SYSCLK_DIV_4
1930:Drivers/STM32L4xx_HAL_Driver/Inc/stm32l4xx_ll_rcc.h ****   *         @arg @ref LL_RCC_SYSCLK_DIV_8
1931:Drivers/STM32L4xx_HAL_Driver/Inc/stm32l4xx_ll_rcc.h ****   *         @arg @ref LL_RCC_SYSCLK_DIV_16
1932:Drivers/STM32L4xx_HAL_Driver/Inc/stm32l4xx_ll_rcc.h ****   *         @arg @ref LL_RCC_SYSCLK_DIV_64
1933:Drivers/STM32L4xx_HAL_Driver/Inc/stm32l4xx_ll_rcc.h ****   *         @arg @ref LL_RCC_SYSCLK_DIV_128
1934:Drivers/STM32L4xx_HAL_Driver/Inc/stm32l4xx_ll_rcc.h ****   *         @arg @ref LL_RCC_SYSCLK_DIV_256
1935:Drivers/STM32L4xx_HAL_Driver/Inc/stm32l4xx_ll_rcc.h ****   *         @arg @ref LL_RCC_SYSCLK_DIV_512
1936:Drivers/STM32L4xx_HAL_Driver/Inc/stm32l4xx_ll_rcc.h ****   * @retval HCLK clock frequency (in Hz)
1937:Drivers/STM32L4xx_HAL_Driver/Inc/stm32l4xx_ll_rcc.h ****   */
1938:Drivers/STM32L4xx_HAL_Driver/Inc/stm32l4xx_ll_rcc.h **** #define __LL_RCC_CALC_HCLK_FREQ(__SYSCLKFREQ__, __AHBPRESCALER__) ((__SYSCLKFREQ__) >> AHBPrescTabl
1939:Drivers/STM32L4xx_HAL_Driver/Inc/stm32l4xx_ll_rcc.h **** 
1940:Drivers/STM32L4xx_HAL_Driver/Inc/stm32l4xx_ll_rcc.h **** /**
1941:Drivers/STM32L4xx_HAL_Driver/Inc/stm32l4xx_ll_rcc.h ****   * @brief  Helper macro to calculate the PCLK1 frequency (ABP1)
1942:Drivers/STM32L4xx_HAL_Driver/Inc/stm32l4xx_ll_rcc.h ****   * @param  __HCLKFREQ__ HCLK frequency
1943:Drivers/STM32L4xx_HAL_Driver/Inc/stm32l4xx_ll_rcc.h ****   * @param  __APB1PRESCALER__ This parameter can be one of the following values:
1944:Drivers/STM32L4xx_HAL_Driver/Inc/stm32l4xx_ll_rcc.h ****   *         @arg @ref LL_RCC_APB1_DIV_1
1945:Drivers/STM32L4xx_HAL_Driver/Inc/stm32l4xx_ll_rcc.h ****   *         @arg @ref LL_RCC_APB1_DIV_2
1946:Drivers/STM32L4xx_HAL_Driver/Inc/stm32l4xx_ll_rcc.h ****   *         @arg @ref LL_RCC_APB1_DIV_4
1947:Drivers/STM32L4xx_HAL_Driver/Inc/stm32l4xx_ll_rcc.h ****   *         @arg @ref LL_RCC_APB1_DIV_8
1948:Drivers/STM32L4xx_HAL_Driver/Inc/stm32l4xx_ll_rcc.h ****   *         @arg @ref LL_RCC_APB1_DIV_16
1949:Drivers/STM32L4xx_HAL_Driver/Inc/stm32l4xx_ll_rcc.h ****   * @retval PCLK1 clock frequency (in Hz)
1950:Drivers/STM32L4xx_HAL_Driver/Inc/stm32l4xx_ll_rcc.h ****   */
1951:Drivers/STM32L4xx_HAL_Driver/Inc/stm32l4xx_ll_rcc.h **** #define __LL_RCC_CALC_PCLK1_FREQ(__HCLKFREQ__, __APB1PRESCALER__) ((__HCLKFREQ__) >> APBPrescTable[
1952:Drivers/STM32L4xx_HAL_Driver/Inc/stm32l4xx_ll_rcc.h **** 
1953:Drivers/STM32L4xx_HAL_Driver/Inc/stm32l4xx_ll_rcc.h **** /**
1954:Drivers/STM32L4xx_HAL_Driver/Inc/stm32l4xx_ll_rcc.h ****   * @brief  Helper macro to calculate the PCLK2 frequency (ABP2)
1955:Drivers/STM32L4xx_HAL_Driver/Inc/stm32l4xx_ll_rcc.h ****   * @param  __HCLKFREQ__ HCLK frequency
1956:Drivers/STM32L4xx_HAL_Driver/Inc/stm32l4xx_ll_rcc.h ****   * @param  __APB2PRESCALER__ This parameter can be one of the following values:
1957:Drivers/STM32L4xx_HAL_Driver/Inc/stm32l4xx_ll_rcc.h ****   *         @arg @ref LL_RCC_APB2_DIV_1
1958:Drivers/STM32L4xx_HAL_Driver/Inc/stm32l4xx_ll_rcc.h ****   *         @arg @ref LL_RCC_APB2_DIV_2
1959:Drivers/STM32L4xx_HAL_Driver/Inc/stm32l4xx_ll_rcc.h ****   *         @arg @ref LL_RCC_APB2_DIV_4
1960:Drivers/STM32L4xx_HAL_Driver/Inc/stm32l4xx_ll_rcc.h ****   *         @arg @ref LL_RCC_APB2_DIV_8
1961:Drivers/STM32L4xx_HAL_Driver/Inc/stm32l4xx_ll_rcc.h ****   *         @arg @ref LL_RCC_APB2_DIV_16
1962:Drivers/STM32L4xx_HAL_Driver/Inc/stm32l4xx_ll_rcc.h ****   * @retval PCLK2 clock frequency (in Hz)
1963:Drivers/STM32L4xx_HAL_Driver/Inc/stm32l4xx_ll_rcc.h ****   */
1964:Drivers/STM32L4xx_HAL_Driver/Inc/stm32l4xx_ll_rcc.h **** #define __LL_RCC_CALC_PCLK2_FREQ(__HCLKFREQ__, __APB2PRESCALER__) ((__HCLKFREQ__) >> APBPrescTable[
1965:Drivers/STM32L4xx_HAL_Driver/Inc/stm32l4xx_ll_rcc.h **** 
1966:Drivers/STM32L4xx_HAL_Driver/Inc/stm32l4xx_ll_rcc.h **** /**
1967:Drivers/STM32L4xx_HAL_Driver/Inc/stm32l4xx_ll_rcc.h ****   * @brief  Helper macro to calculate the MSI frequency (in Hz)
1968:Drivers/STM32L4xx_HAL_Driver/Inc/stm32l4xx_ll_rcc.h ****   * @note __MSISEL__ can be retrieved thanks to function LL_RCC_MSI_IsEnabledRangeSelect()
1969:Drivers/STM32L4xx_HAL_Driver/Inc/stm32l4xx_ll_rcc.h ****   * @note if __MSISEL__ is equal to LL_RCC_MSIRANGESEL_STANDBY,
1970:Drivers/STM32L4xx_HAL_Driver/Inc/stm32l4xx_ll_rcc.h ****   *        __MSIRANGE__can be retrieved by LL_RCC_MSI_GetRangeAfterStandby()
1971:Drivers/STM32L4xx_HAL_Driver/Inc/stm32l4xx_ll_rcc.h ****   *        else by LL_RCC_MSI_GetRange()
1972:Drivers/STM32L4xx_HAL_Driver/Inc/stm32l4xx_ll_rcc.h ****   *        ex: __LL_RCC_CALC_MSI_FREQ(LL_RCC_MSI_IsEnabledRangeSelect(),
1973:Drivers/STM32L4xx_HAL_Driver/Inc/stm32l4xx_ll_rcc.h ****   *              (LL_RCC_MSI_IsEnabledRangeSelect()?
1974:Drivers/STM32L4xx_HAL_Driver/Inc/stm32l4xx_ll_rcc.h ****   *               LL_RCC_MSI_GetRange():
1975:Drivers/STM32L4xx_HAL_Driver/Inc/stm32l4xx_ll_rcc.h ****   *               LL_RCC_MSI_GetRangeAfterStandby()))
1976:Drivers/STM32L4xx_HAL_Driver/Inc/stm32l4xx_ll_rcc.h ****   * @param  __MSISEL__ This parameter can be one of the following values:
1977:Drivers/STM32L4xx_HAL_Driver/Inc/stm32l4xx_ll_rcc.h ****   *         @arg @ref LL_RCC_MSIRANGESEL_STANDBY
1978:Drivers/STM32L4xx_HAL_Driver/Inc/stm32l4xx_ll_rcc.h ****   *         @arg @ref LL_RCC_MSIRANGESEL_RUN
1979:Drivers/STM32L4xx_HAL_Driver/Inc/stm32l4xx_ll_rcc.h ****   * @param  __MSIRANGE__ This parameter can be one of the following values:
ARM GAS  C:\Temp\ccAfawe4.s 			page 40


1980:Drivers/STM32L4xx_HAL_Driver/Inc/stm32l4xx_ll_rcc.h ****   *         @arg @ref LL_RCC_MSIRANGE_0
1981:Drivers/STM32L4xx_HAL_Driver/Inc/stm32l4xx_ll_rcc.h ****   *         @arg @ref LL_RCC_MSIRANGE_1
1982:Drivers/STM32L4xx_HAL_Driver/Inc/stm32l4xx_ll_rcc.h ****   *         @arg @ref LL_RCC_MSIRANGE_2
1983:Drivers/STM32L4xx_HAL_Driver/Inc/stm32l4xx_ll_rcc.h ****   *         @arg @ref LL_RCC_MSIRANGE_3
1984:Drivers/STM32L4xx_HAL_Driver/Inc/stm32l4xx_ll_rcc.h ****   *         @arg @ref LL_RCC_MSIRANGE_4
1985:Drivers/STM32L4xx_HAL_Driver/Inc/stm32l4xx_ll_rcc.h ****   *         @arg @ref LL_RCC_MSIRANGE_5
1986:Drivers/STM32L4xx_HAL_Driver/Inc/stm32l4xx_ll_rcc.h ****   *         @arg @ref LL_RCC_MSIRANGE_6
1987:Drivers/STM32L4xx_HAL_Driver/Inc/stm32l4xx_ll_rcc.h ****   *         @arg @ref LL_RCC_MSIRANGE_7
1988:Drivers/STM32L4xx_HAL_Driver/Inc/stm32l4xx_ll_rcc.h ****   *         @arg @ref LL_RCC_MSIRANGE_8
1989:Drivers/STM32L4xx_HAL_Driver/Inc/stm32l4xx_ll_rcc.h ****   *         @arg @ref LL_RCC_MSIRANGE_9
1990:Drivers/STM32L4xx_HAL_Driver/Inc/stm32l4xx_ll_rcc.h ****   *         @arg @ref LL_RCC_MSIRANGE_10
1991:Drivers/STM32L4xx_HAL_Driver/Inc/stm32l4xx_ll_rcc.h ****   *         @arg @ref LL_RCC_MSIRANGE_11
1992:Drivers/STM32L4xx_HAL_Driver/Inc/stm32l4xx_ll_rcc.h ****   *         @arg @ref LL_RCC_MSISRANGE_4
1993:Drivers/STM32L4xx_HAL_Driver/Inc/stm32l4xx_ll_rcc.h ****   *         @arg @ref LL_RCC_MSISRANGE_5
1994:Drivers/STM32L4xx_HAL_Driver/Inc/stm32l4xx_ll_rcc.h ****   *         @arg @ref LL_RCC_MSISRANGE_6
1995:Drivers/STM32L4xx_HAL_Driver/Inc/stm32l4xx_ll_rcc.h ****   *         @arg @ref LL_RCC_MSISRANGE_7
1996:Drivers/STM32L4xx_HAL_Driver/Inc/stm32l4xx_ll_rcc.h ****   * @retval MSI clock frequency (in Hz)
1997:Drivers/STM32L4xx_HAL_Driver/Inc/stm32l4xx_ll_rcc.h ****   */
1998:Drivers/STM32L4xx_HAL_Driver/Inc/stm32l4xx_ll_rcc.h **** #define __LL_RCC_CALC_MSI_FREQ(__MSISEL__, __MSIRANGE__)   (((__MSISEL__) == LL_RCC_MSIRANGESEL_STA
1999:Drivers/STM32L4xx_HAL_Driver/Inc/stm32l4xx_ll_rcc.h ****                            (MSIRangeTable[(__MSIRANGE__) >> 8U]) : \
2000:Drivers/STM32L4xx_HAL_Driver/Inc/stm32l4xx_ll_rcc.h ****                            (MSIRangeTable[(__MSIRANGE__) >> 4U]))
2001:Drivers/STM32L4xx_HAL_Driver/Inc/stm32l4xx_ll_rcc.h **** 
2002:Drivers/STM32L4xx_HAL_Driver/Inc/stm32l4xx_ll_rcc.h **** /**
2003:Drivers/STM32L4xx_HAL_Driver/Inc/stm32l4xx_ll_rcc.h ****   * @}
2004:Drivers/STM32L4xx_HAL_Driver/Inc/stm32l4xx_ll_rcc.h ****   */
2005:Drivers/STM32L4xx_HAL_Driver/Inc/stm32l4xx_ll_rcc.h **** 
2006:Drivers/STM32L4xx_HAL_Driver/Inc/stm32l4xx_ll_rcc.h **** /**
2007:Drivers/STM32L4xx_HAL_Driver/Inc/stm32l4xx_ll_rcc.h ****   * @}
2008:Drivers/STM32L4xx_HAL_Driver/Inc/stm32l4xx_ll_rcc.h ****   */
2009:Drivers/STM32L4xx_HAL_Driver/Inc/stm32l4xx_ll_rcc.h **** 
2010:Drivers/STM32L4xx_HAL_Driver/Inc/stm32l4xx_ll_rcc.h **** /* Exported functions --------------------------------------------------------*/
2011:Drivers/STM32L4xx_HAL_Driver/Inc/stm32l4xx_ll_rcc.h **** /** @defgroup RCC_LL_Exported_Functions RCC Exported Functions
2012:Drivers/STM32L4xx_HAL_Driver/Inc/stm32l4xx_ll_rcc.h ****   * @{
2013:Drivers/STM32L4xx_HAL_Driver/Inc/stm32l4xx_ll_rcc.h ****   */
2014:Drivers/STM32L4xx_HAL_Driver/Inc/stm32l4xx_ll_rcc.h **** 
2015:Drivers/STM32L4xx_HAL_Driver/Inc/stm32l4xx_ll_rcc.h **** /** @defgroup RCC_LL_EF_HSE HSE
2016:Drivers/STM32L4xx_HAL_Driver/Inc/stm32l4xx_ll_rcc.h ****   * @{
2017:Drivers/STM32L4xx_HAL_Driver/Inc/stm32l4xx_ll_rcc.h ****   */
2018:Drivers/STM32L4xx_HAL_Driver/Inc/stm32l4xx_ll_rcc.h **** 
2019:Drivers/STM32L4xx_HAL_Driver/Inc/stm32l4xx_ll_rcc.h **** /**
2020:Drivers/STM32L4xx_HAL_Driver/Inc/stm32l4xx_ll_rcc.h ****   * @brief  Enable the Clock Security System.
2021:Drivers/STM32L4xx_HAL_Driver/Inc/stm32l4xx_ll_rcc.h ****   * @rmtoll CR           CSSON         LL_RCC_HSE_EnableCSS
2022:Drivers/STM32L4xx_HAL_Driver/Inc/stm32l4xx_ll_rcc.h ****   * @retval None
2023:Drivers/STM32L4xx_HAL_Driver/Inc/stm32l4xx_ll_rcc.h ****   */
2024:Drivers/STM32L4xx_HAL_Driver/Inc/stm32l4xx_ll_rcc.h **** __STATIC_INLINE void LL_RCC_HSE_EnableCSS(void)
2025:Drivers/STM32L4xx_HAL_Driver/Inc/stm32l4xx_ll_rcc.h **** {
2026:Drivers/STM32L4xx_HAL_Driver/Inc/stm32l4xx_ll_rcc.h ****   SET_BIT(RCC->CR, RCC_CR_CSSON);
2027:Drivers/STM32L4xx_HAL_Driver/Inc/stm32l4xx_ll_rcc.h **** }
2028:Drivers/STM32L4xx_HAL_Driver/Inc/stm32l4xx_ll_rcc.h **** 
2029:Drivers/STM32L4xx_HAL_Driver/Inc/stm32l4xx_ll_rcc.h **** /**
2030:Drivers/STM32L4xx_HAL_Driver/Inc/stm32l4xx_ll_rcc.h ****   * @brief  Enable HSE external oscillator (HSE Bypass)
2031:Drivers/STM32L4xx_HAL_Driver/Inc/stm32l4xx_ll_rcc.h ****   * @rmtoll CR           HSEBYP        LL_RCC_HSE_EnableBypass
2032:Drivers/STM32L4xx_HAL_Driver/Inc/stm32l4xx_ll_rcc.h ****   * @retval None
2033:Drivers/STM32L4xx_HAL_Driver/Inc/stm32l4xx_ll_rcc.h ****   */
2034:Drivers/STM32L4xx_HAL_Driver/Inc/stm32l4xx_ll_rcc.h **** __STATIC_INLINE void LL_RCC_HSE_EnableBypass(void)
2035:Drivers/STM32L4xx_HAL_Driver/Inc/stm32l4xx_ll_rcc.h **** {
2036:Drivers/STM32L4xx_HAL_Driver/Inc/stm32l4xx_ll_rcc.h ****   SET_BIT(RCC->CR, RCC_CR_HSEBYP);
ARM GAS  C:\Temp\ccAfawe4.s 			page 41


2037:Drivers/STM32L4xx_HAL_Driver/Inc/stm32l4xx_ll_rcc.h **** }
2038:Drivers/STM32L4xx_HAL_Driver/Inc/stm32l4xx_ll_rcc.h **** 
2039:Drivers/STM32L4xx_HAL_Driver/Inc/stm32l4xx_ll_rcc.h **** /**
2040:Drivers/STM32L4xx_HAL_Driver/Inc/stm32l4xx_ll_rcc.h ****   * @brief  Disable HSE external oscillator (HSE Bypass)
2041:Drivers/STM32L4xx_HAL_Driver/Inc/stm32l4xx_ll_rcc.h ****   * @rmtoll CR           HSEBYP        LL_RCC_HSE_DisableBypass
2042:Drivers/STM32L4xx_HAL_Driver/Inc/stm32l4xx_ll_rcc.h ****   * @retval None
2043:Drivers/STM32L4xx_HAL_Driver/Inc/stm32l4xx_ll_rcc.h ****   */
2044:Drivers/STM32L4xx_HAL_Driver/Inc/stm32l4xx_ll_rcc.h **** __STATIC_INLINE void LL_RCC_HSE_DisableBypass(void)
2045:Drivers/STM32L4xx_HAL_Driver/Inc/stm32l4xx_ll_rcc.h **** {
2046:Drivers/STM32L4xx_HAL_Driver/Inc/stm32l4xx_ll_rcc.h ****   CLEAR_BIT(RCC->CR, RCC_CR_HSEBYP);
2047:Drivers/STM32L4xx_HAL_Driver/Inc/stm32l4xx_ll_rcc.h **** }
2048:Drivers/STM32L4xx_HAL_Driver/Inc/stm32l4xx_ll_rcc.h **** 
2049:Drivers/STM32L4xx_HAL_Driver/Inc/stm32l4xx_ll_rcc.h **** /**
2050:Drivers/STM32L4xx_HAL_Driver/Inc/stm32l4xx_ll_rcc.h ****   * @brief  Enable HSE crystal oscillator (HSE ON)
2051:Drivers/STM32L4xx_HAL_Driver/Inc/stm32l4xx_ll_rcc.h ****   * @rmtoll CR           HSEON         LL_RCC_HSE_Enable
2052:Drivers/STM32L4xx_HAL_Driver/Inc/stm32l4xx_ll_rcc.h ****   * @retval None
2053:Drivers/STM32L4xx_HAL_Driver/Inc/stm32l4xx_ll_rcc.h ****   */
2054:Drivers/STM32L4xx_HAL_Driver/Inc/stm32l4xx_ll_rcc.h **** __STATIC_INLINE void LL_RCC_HSE_Enable(void)
2055:Drivers/STM32L4xx_HAL_Driver/Inc/stm32l4xx_ll_rcc.h **** {
2056:Drivers/STM32L4xx_HAL_Driver/Inc/stm32l4xx_ll_rcc.h ****   SET_BIT(RCC->CR, RCC_CR_HSEON);
2057:Drivers/STM32L4xx_HAL_Driver/Inc/stm32l4xx_ll_rcc.h **** }
2058:Drivers/STM32L4xx_HAL_Driver/Inc/stm32l4xx_ll_rcc.h **** 
2059:Drivers/STM32L4xx_HAL_Driver/Inc/stm32l4xx_ll_rcc.h **** /**
2060:Drivers/STM32L4xx_HAL_Driver/Inc/stm32l4xx_ll_rcc.h ****   * @brief  Disable HSE crystal oscillator (HSE ON)
2061:Drivers/STM32L4xx_HAL_Driver/Inc/stm32l4xx_ll_rcc.h ****   * @rmtoll CR           HSEON         LL_RCC_HSE_Disable
2062:Drivers/STM32L4xx_HAL_Driver/Inc/stm32l4xx_ll_rcc.h ****   * @retval None
2063:Drivers/STM32L4xx_HAL_Driver/Inc/stm32l4xx_ll_rcc.h ****   */
2064:Drivers/STM32L4xx_HAL_Driver/Inc/stm32l4xx_ll_rcc.h **** __STATIC_INLINE void LL_RCC_HSE_Disable(void)
2065:Drivers/STM32L4xx_HAL_Driver/Inc/stm32l4xx_ll_rcc.h **** {
2066:Drivers/STM32L4xx_HAL_Driver/Inc/stm32l4xx_ll_rcc.h ****   CLEAR_BIT(RCC->CR, RCC_CR_HSEON);
2067:Drivers/STM32L4xx_HAL_Driver/Inc/stm32l4xx_ll_rcc.h **** }
2068:Drivers/STM32L4xx_HAL_Driver/Inc/stm32l4xx_ll_rcc.h **** 
2069:Drivers/STM32L4xx_HAL_Driver/Inc/stm32l4xx_ll_rcc.h **** /**
2070:Drivers/STM32L4xx_HAL_Driver/Inc/stm32l4xx_ll_rcc.h ****   * @brief  Check if HSE oscillator Ready
2071:Drivers/STM32L4xx_HAL_Driver/Inc/stm32l4xx_ll_rcc.h ****   * @rmtoll CR           HSERDY        LL_RCC_HSE_IsReady
2072:Drivers/STM32L4xx_HAL_Driver/Inc/stm32l4xx_ll_rcc.h ****   * @retval State of bit (1 or 0).
2073:Drivers/STM32L4xx_HAL_Driver/Inc/stm32l4xx_ll_rcc.h ****   */
2074:Drivers/STM32L4xx_HAL_Driver/Inc/stm32l4xx_ll_rcc.h **** __STATIC_INLINE uint32_t LL_RCC_HSE_IsReady(void)
2075:Drivers/STM32L4xx_HAL_Driver/Inc/stm32l4xx_ll_rcc.h **** {
2076:Drivers/STM32L4xx_HAL_Driver/Inc/stm32l4xx_ll_rcc.h ****   return ((READ_BIT(RCC->CR, RCC_CR_HSERDY) == RCC_CR_HSERDY) ? 1UL : 0UL);
2077:Drivers/STM32L4xx_HAL_Driver/Inc/stm32l4xx_ll_rcc.h **** }
2078:Drivers/STM32L4xx_HAL_Driver/Inc/stm32l4xx_ll_rcc.h **** 
2079:Drivers/STM32L4xx_HAL_Driver/Inc/stm32l4xx_ll_rcc.h **** /**
2080:Drivers/STM32L4xx_HAL_Driver/Inc/stm32l4xx_ll_rcc.h ****   * @}
2081:Drivers/STM32L4xx_HAL_Driver/Inc/stm32l4xx_ll_rcc.h ****   */
2082:Drivers/STM32L4xx_HAL_Driver/Inc/stm32l4xx_ll_rcc.h **** 
2083:Drivers/STM32L4xx_HAL_Driver/Inc/stm32l4xx_ll_rcc.h **** /** @defgroup RCC_LL_EF_HSI HSI
2084:Drivers/STM32L4xx_HAL_Driver/Inc/stm32l4xx_ll_rcc.h ****   * @{
2085:Drivers/STM32L4xx_HAL_Driver/Inc/stm32l4xx_ll_rcc.h ****   */
2086:Drivers/STM32L4xx_HAL_Driver/Inc/stm32l4xx_ll_rcc.h **** 
2087:Drivers/STM32L4xx_HAL_Driver/Inc/stm32l4xx_ll_rcc.h **** /**
2088:Drivers/STM32L4xx_HAL_Driver/Inc/stm32l4xx_ll_rcc.h ****   * @brief  Enable HSI even in stop mode
2089:Drivers/STM32L4xx_HAL_Driver/Inc/stm32l4xx_ll_rcc.h ****   * @note HSI oscillator is forced ON even in Stop mode
2090:Drivers/STM32L4xx_HAL_Driver/Inc/stm32l4xx_ll_rcc.h ****   * @rmtoll CR           HSIKERON      LL_RCC_HSI_EnableInStopMode
2091:Drivers/STM32L4xx_HAL_Driver/Inc/stm32l4xx_ll_rcc.h ****   * @retval None
2092:Drivers/STM32L4xx_HAL_Driver/Inc/stm32l4xx_ll_rcc.h ****   */
2093:Drivers/STM32L4xx_HAL_Driver/Inc/stm32l4xx_ll_rcc.h **** __STATIC_INLINE void LL_RCC_HSI_EnableInStopMode(void)
ARM GAS  C:\Temp\ccAfawe4.s 			page 42


2094:Drivers/STM32L4xx_HAL_Driver/Inc/stm32l4xx_ll_rcc.h **** {
2095:Drivers/STM32L4xx_HAL_Driver/Inc/stm32l4xx_ll_rcc.h ****   SET_BIT(RCC->CR, RCC_CR_HSIKERON);
2096:Drivers/STM32L4xx_HAL_Driver/Inc/stm32l4xx_ll_rcc.h **** }
2097:Drivers/STM32L4xx_HAL_Driver/Inc/stm32l4xx_ll_rcc.h **** 
2098:Drivers/STM32L4xx_HAL_Driver/Inc/stm32l4xx_ll_rcc.h **** /**
2099:Drivers/STM32L4xx_HAL_Driver/Inc/stm32l4xx_ll_rcc.h ****   * @brief  Disable HSI in stop mode
2100:Drivers/STM32L4xx_HAL_Driver/Inc/stm32l4xx_ll_rcc.h ****   * @rmtoll CR           HSIKERON      LL_RCC_HSI_DisableInStopMode
2101:Drivers/STM32L4xx_HAL_Driver/Inc/stm32l4xx_ll_rcc.h ****   * @retval None
2102:Drivers/STM32L4xx_HAL_Driver/Inc/stm32l4xx_ll_rcc.h ****   */
2103:Drivers/STM32L4xx_HAL_Driver/Inc/stm32l4xx_ll_rcc.h **** __STATIC_INLINE void LL_RCC_HSI_DisableInStopMode(void)
2104:Drivers/STM32L4xx_HAL_Driver/Inc/stm32l4xx_ll_rcc.h **** {
2105:Drivers/STM32L4xx_HAL_Driver/Inc/stm32l4xx_ll_rcc.h ****   CLEAR_BIT(RCC->CR, RCC_CR_HSIKERON);
2106:Drivers/STM32L4xx_HAL_Driver/Inc/stm32l4xx_ll_rcc.h **** }
2107:Drivers/STM32L4xx_HAL_Driver/Inc/stm32l4xx_ll_rcc.h **** 
2108:Drivers/STM32L4xx_HAL_Driver/Inc/stm32l4xx_ll_rcc.h **** /**
2109:Drivers/STM32L4xx_HAL_Driver/Inc/stm32l4xx_ll_rcc.h ****   * @brief  Check if HSI is enabled in stop mode
2110:Drivers/STM32L4xx_HAL_Driver/Inc/stm32l4xx_ll_rcc.h ****   * @rmtoll CR           HSIKERON        LL_RCC_HSI_IsEnabledInStopMode
2111:Drivers/STM32L4xx_HAL_Driver/Inc/stm32l4xx_ll_rcc.h ****   * @retval State of bit (1 or 0).
2112:Drivers/STM32L4xx_HAL_Driver/Inc/stm32l4xx_ll_rcc.h ****   */
2113:Drivers/STM32L4xx_HAL_Driver/Inc/stm32l4xx_ll_rcc.h **** __STATIC_INLINE uint32_t LL_RCC_HSI_IsEnabledInStopMode(void)
2114:Drivers/STM32L4xx_HAL_Driver/Inc/stm32l4xx_ll_rcc.h **** {
2115:Drivers/STM32L4xx_HAL_Driver/Inc/stm32l4xx_ll_rcc.h ****   return ((READ_BIT(RCC->CR, RCC_CR_HSIKERON) == RCC_CR_HSIKERON) ? 1UL : 0UL);
2116:Drivers/STM32L4xx_HAL_Driver/Inc/stm32l4xx_ll_rcc.h **** }
2117:Drivers/STM32L4xx_HAL_Driver/Inc/stm32l4xx_ll_rcc.h **** 
2118:Drivers/STM32L4xx_HAL_Driver/Inc/stm32l4xx_ll_rcc.h **** /**
2119:Drivers/STM32L4xx_HAL_Driver/Inc/stm32l4xx_ll_rcc.h ****   * @brief  Enable HSI oscillator
2120:Drivers/STM32L4xx_HAL_Driver/Inc/stm32l4xx_ll_rcc.h ****   * @rmtoll CR           HSION         LL_RCC_HSI_Enable
2121:Drivers/STM32L4xx_HAL_Driver/Inc/stm32l4xx_ll_rcc.h ****   * @retval None
2122:Drivers/STM32L4xx_HAL_Driver/Inc/stm32l4xx_ll_rcc.h ****   */
2123:Drivers/STM32L4xx_HAL_Driver/Inc/stm32l4xx_ll_rcc.h **** __STATIC_INLINE void LL_RCC_HSI_Enable(void)
2124:Drivers/STM32L4xx_HAL_Driver/Inc/stm32l4xx_ll_rcc.h **** {
2125:Drivers/STM32L4xx_HAL_Driver/Inc/stm32l4xx_ll_rcc.h ****   SET_BIT(RCC->CR, RCC_CR_HSION);
2126:Drivers/STM32L4xx_HAL_Driver/Inc/stm32l4xx_ll_rcc.h **** }
2127:Drivers/STM32L4xx_HAL_Driver/Inc/stm32l4xx_ll_rcc.h **** 
2128:Drivers/STM32L4xx_HAL_Driver/Inc/stm32l4xx_ll_rcc.h **** /**
2129:Drivers/STM32L4xx_HAL_Driver/Inc/stm32l4xx_ll_rcc.h ****   * @brief  Disable HSI oscillator
2130:Drivers/STM32L4xx_HAL_Driver/Inc/stm32l4xx_ll_rcc.h ****   * @rmtoll CR           HSION         LL_RCC_HSI_Disable
2131:Drivers/STM32L4xx_HAL_Driver/Inc/stm32l4xx_ll_rcc.h ****   * @retval None
2132:Drivers/STM32L4xx_HAL_Driver/Inc/stm32l4xx_ll_rcc.h ****   */
2133:Drivers/STM32L4xx_HAL_Driver/Inc/stm32l4xx_ll_rcc.h **** __STATIC_INLINE void LL_RCC_HSI_Disable(void)
2134:Drivers/STM32L4xx_HAL_Driver/Inc/stm32l4xx_ll_rcc.h **** {
2135:Drivers/STM32L4xx_HAL_Driver/Inc/stm32l4xx_ll_rcc.h ****   CLEAR_BIT(RCC->CR, RCC_CR_HSION);
2136:Drivers/STM32L4xx_HAL_Driver/Inc/stm32l4xx_ll_rcc.h **** }
2137:Drivers/STM32L4xx_HAL_Driver/Inc/stm32l4xx_ll_rcc.h **** 
2138:Drivers/STM32L4xx_HAL_Driver/Inc/stm32l4xx_ll_rcc.h **** /**
2139:Drivers/STM32L4xx_HAL_Driver/Inc/stm32l4xx_ll_rcc.h ****   * @brief  Check if HSI clock is ready
2140:Drivers/STM32L4xx_HAL_Driver/Inc/stm32l4xx_ll_rcc.h ****   * @rmtoll CR           HSIRDY        LL_RCC_HSI_IsReady
2141:Drivers/STM32L4xx_HAL_Driver/Inc/stm32l4xx_ll_rcc.h ****   * @retval State of bit (1 or 0).
2142:Drivers/STM32L4xx_HAL_Driver/Inc/stm32l4xx_ll_rcc.h ****   */
2143:Drivers/STM32L4xx_HAL_Driver/Inc/stm32l4xx_ll_rcc.h **** __STATIC_INLINE uint32_t LL_RCC_HSI_IsReady(void)
2144:Drivers/STM32L4xx_HAL_Driver/Inc/stm32l4xx_ll_rcc.h **** {
2145:Drivers/STM32L4xx_HAL_Driver/Inc/stm32l4xx_ll_rcc.h ****   return ((READ_BIT(RCC->CR, RCC_CR_HSIRDY) == RCC_CR_HSIRDY) ? 1UL : 0UL);
2146:Drivers/STM32L4xx_HAL_Driver/Inc/stm32l4xx_ll_rcc.h **** }
2147:Drivers/STM32L4xx_HAL_Driver/Inc/stm32l4xx_ll_rcc.h **** 
2148:Drivers/STM32L4xx_HAL_Driver/Inc/stm32l4xx_ll_rcc.h **** /**
2149:Drivers/STM32L4xx_HAL_Driver/Inc/stm32l4xx_ll_rcc.h ****   * @brief  Enable HSI Automatic from stop mode
2150:Drivers/STM32L4xx_HAL_Driver/Inc/stm32l4xx_ll_rcc.h ****   * @rmtoll CR           HSIASFS       LL_RCC_HSI_EnableAutoFromStop
ARM GAS  C:\Temp\ccAfawe4.s 			page 43


2151:Drivers/STM32L4xx_HAL_Driver/Inc/stm32l4xx_ll_rcc.h ****   * @retval None
2152:Drivers/STM32L4xx_HAL_Driver/Inc/stm32l4xx_ll_rcc.h ****   */
2153:Drivers/STM32L4xx_HAL_Driver/Inc/stm32l4xx_ll_rcc.h **** __STATIC_INLINE void LL_RCC_HSI_EnableAutoFromStop(void)
2154:Drivers/STM32L4xx_HAL_Driver/Inc/stm32l4xx_ll_rcc.h **** {
2155:Drivers/STM32L4xx_HAL_Driver/Inc/stm32l4xx_ll_rcc.h ****   SET_BIT(RCC->CR, RCC_CR_HSIASFS);
2156:Drivers/STM32L4xx_HAL_Driver/Inc/stm32l4xx_ll_rcc.h **** }
2157:Drivers/STM32L4xx_HAL_Driver/Inc/stm32l4xx_ll_rcc.h **** 
2158:Drivers/STM32L4xx_HAL_Driver/Inc/stm32l4xx_ll_rcc.h **** /**
2159:Drivers/STM32L4xx_HAL_Driver/Inc/stm32l4xx_ll_rcc.h ****   * @brief  Disable HSI Automatic from stop mode
2160:Drivers/STM32L4xx_HAL_Driver/Inc/stm32l4xx_ll_rcc.h ****   * @rmtoll CR           HSIASFS       LL_RCC_HSI_DisableAutoFromStop
2161:Drivers/STM32L4xx_HAL_Driver/Inc/stm32l4xx_ll_rcc.h ****   * @retval None
2162:Drivers/STM32L4xx_HAL_Driver/Inc/stm32l4xx_ll_rcc.h ****   */
2163:Drivers/STM32L4xx_HAL_Driver/Inc/stm32l4xx_ll_rcc.h **** __STATIC_INLINE void LL_RCC_HSI_DisableAutoFromStop(void)
2164:Drivers/STM32L4xx_HAL_Driver/Inc/stm32l4xx_ll_rcc.h **** {
2165:Drivers/STM32L4xx_HAL_Driver/Inc/stm32l4xx_ll_rcc.h ****   CLEAR_BIT(RCC->CR, RCC_CR_HSIASFS);
2166:Drivers/STM32L4xx_HAL_Driver/Inc/stm32l4xx_ll_rcc.h **** }
2167:Drivers/STM32L4xx_HAL_Driver/Inc/stm32l4xx_ll_rcc.h **** /**
2168:Drivers/STM32L4xx_HAL_Driver/Inc/stm32l4xx_ll_rcc.h ****   * @brief  Get HSI Calibration value
2169:Drivers/STM32L4xx_HAL_Driver/Inc/stm32l4xx_ll_rcc.h ****   * @note When HSITRIM is written, HSICAL is updated with the sum of
2170:Drivers/STM32L4xx_HAL_Driver/Inc/stm32l4xx_ll_rcc.h ****   *       HSITRIM and the factory trim value
2171:Drivers/STM32L4xx_HAL_Driver/Inc/stm32l4xx_ll_rcc.h ****   * @rmtoll ICSCR        HSICAL        LL_RCC_HSI_GetCalibration
2172:Drivers/STM32L4xx_HAL_Driver/Inc/stm32l4xx_ll_rcc.h ****   * @retval Between Min_Data = 0x00 and Max_Data = 0xFF
2173:Drivers/STM32L4xx_HAL_Driver/Inc/stm32l4xx_ll_rcc.h ****   */
2174:Drivers/STM32L4xx_HAL_Driver/Inc/stm32l4xx_ll_rcc.h **** __STATIC_INLINE uint32_t LL_RCC_HSI_GetCalibration(void)
2175:Drivers/STM32L4xx_HAL_Driver/Inc/stm32l4xx_ll_rcc.h **** {
2176:Drivers/STM32L4xx_HAL_Driver/Inc/stm32l4xx_ll_rcc.h ****   return (uint32_t)(READ_BIT(RCC->ICSCR, RCC_ICSCR_HSICAL) >> RCC_ICSCR_HSICAL_Pos);
2177:Drivers/STM32L4xx_HAL_Driver/Inc/stm32l4xx_ll_rcc.h **** }
2178:Drivers/STM32L4xx_HAL_Driver/Inc/stm32l4xx_ll_rcc.h **** 
2179:Drivers/STM32L4xx_HAL_Driver/Inc/stm32l4xx_ll_rcc.h **** /**
2180:Drivers/STM32L4xx_HAL_Driver/Inc/stm32l4xx_ll_rcc.h ****   * @brief  Set HSI Calibration trimming
2181:Drivers/STM32L4xx_HAL_Driver/Inc/stm32l4xx_ll_rcc.h ****   * @note user-programmable trimming value that is added to the HSICAL
2182:Drivers/STM32L4xx_HAL_Driver/Inc/stm32l4xx_ll_rcc.h ****   * @note Default value is 16 on STM32L43x/STM32L44x/STM32L47x/STM32L48x or 64 on other devices,
2183:Drivers/STM32L4xx_HAL_Driver/Inc/stm32l4xx_ll_rcc.h ****   *       which, when added to the HSICAL value, should trim the HSI to 16 MHz +/- 1 %
2184:Drivers/STM32L4xx_HAL_Driver/Inc/stm32l4xx_ll_rcc.h ****   * @rmtoll ICSCR        HSITRIM       LL_RCC_HSI_SetCalibTrimming
2185:Drivers/STM32L4xx_HAL_Driver/Inc/stm32l4xx_ll_rcc.h ****   * @param  Value Between Min_Data = 0 and Max_Data = 31 on STM32L43x/STM32L44x/STM32L47x/STM32L48x
2186:Drivers/STM32L4xx_HAL_Driver/Inc/stm32l4xx_ll_rcc.h ****   *               between Min_Data = 0 and Max_Data = 127 on other devices
2187:Drivers/STM32L4xx_HAL_Driver/Inc/stm32l4xx_ll_rcc.h ****   * @retval None
2188:Drivers/STM32L4xx_HAL_Driver/Inc/stm32l4xx_ll_rcc.h ****   */
2189:Drivers/STM32L4xx_HAL_Driver/Inc/stm32l4xx_ll_rcc.h **** __STATIC_INLINE void LL_RCC_HSI_SetCalibTrimming(uint32_t Value)
2190:Drivers/STM32L4xx_HAL_Driver/Inc/stm32l4xx_ll_rcc.h **** {
2191:Drivers/STM32L4xx_HAL_Driver/Inc/stm32l4xx_ll_rcc.h ****   MODIFY_REG(RCC->ICSCR, RCC_ICSCR_HSITRIM, Value << RCC_ICSCR_HSITRIM_Pos);
2192:Drivers/STM32L4xx_HAL_Driver/Inc/stm32l4xx_ll_rcc.h **** }
2193:Drivers/STM32L4xx_HAL_Driver/Inc/stm32l4xx_ll_rcc.h **** 
2194:Drivers/STM32L4xx_HAL_Driver/Inc/stm32l4xx_ll_rcc.h **** /**
2195:Drivers/STM32L4xx_HAL_Driver/Inc/stm32l4xx_ll_rcc.h ****   * @brief  Get HSI Calibration trimming
