ARM GAS  C:\Temp\ccmvY2mT.s 			page 1


   1              		.cpu cortex-m4
   2              		.arch armv7e-m
   3              		.fpu fpv4-sp-d16
   4              		.eabi_attribute 27, 1
   5              		.eabi_attribute 28, 1
   6              		.eabi_attribute 20, 1
   7              		.eabi_attribute 21, 1
   8              		.eabi_attribute 23, 3
   9              		.eabi_attribute 24, 1
  10              		.eabi_attribute 25, 1
  11              		.eabi_attribute 26, 1
  12              		.eabi_attribute 30, 1
  13              		.eabi_attribute 34, 1
  14              		.eabi_attribute 18, 4
  15              		.file	"usbd_conf.c"
  16              		.text
  17              	.Ltext0:
  18              		.cfi_sections	.debug_frame
  19              		.file 1 "USB_DEVICE/Target/usbd_conf.c"
  20              		.section	.text.SystemClockConfig_Resume,"ax",%progbits
  21              		.align	1
  22              		.syntax unified
  23              		.thumb
  24              		.thumb_func
  26              	SystemClockConfig_Resume:
  27              	.LFB940:
   1:USB_DEVICE/Target/usbd_conf.c **** /* USER CODE BEGIN Header */
   2:USB_DEVICE/Target/usbd_conf.c **** /**
   3:USB_DEVICE/Target/usbd_conf.c ****   ******************************************************************************
   4:USB_DEVICE/Target/usbd_conf.c ****   * @file           : Target/usbd_conf.c
   5:USB_DEVICE/Target/usbd_conf.c ****   * @version        : v2.0_Cube
   6:USB_DEVICE/Target/usbd_conf.c ****   * @brief          : This file implements the board support package for the USB device library
   7:USB_DEVICE/Target/usbd_conf.c ****   ******************************************************************************
   8:USB_DEVICE/Target/usbd_conf.c ****   * @attention
   9:USB_DEVICE/Target/usbd_conf.c ****   *
  10:USB_DEVICE/Target/usbd_conf.c ****   * Copyright (c) 2024 STMicroelectronics.
  11:USB_DEVICE/Target/usbd_conf.c ****   * All rights reserved.
  12:USB_DEVICE/Target/usbd_conf.c ****   *
  13:USB_DEVICE/Target/usbd_conf.c ****   * This software is licensed under terms that can be found in the LICENSE file
  14:USB_DEVICE/Target/usbd_conf.c ****   * in the root directory of this software component.
  15:USB_DEVICE/Target/usbd_conf.c ****   * If no LICENSE file comes with this software, it is provided AS-IS.
  16:USB_DEVICE/Target/usbd_conf.c ****   *
  17:USB_DEVICE/Target/usbd_conf.c ****   ******************************************************************************
  18:USB_DEVICE/Target/usbd_conf.c ****   */
  19:USB_DEVICE/Target/usbd_conf.c **** /* USER CODE END Header */
  20:USB_DEVICE/Target/usbd_conf.c **** 
  21:USB_DEVICE/Target/usbd_conf.c **** /* Includes ------------------------------------------------------------------*/
  22:USB_DEVICE/Target/usbd_conf.c **** #include "stm32l4xx.h"
  23:USB_DEVICE/Target/usbd_conf.c **** #include "stm32l4xx_hal.h"
  24:USB_DEVICE/Target/usbd_conf.c **** #include "usbd_def.h"
  25:USB_DEVICE/Target/usbd_conf.c **** #include "usbd_core.h"
  26:USB_DEVICE/Target/usbd_conf.c **** #include "usbd_cdc.h"
  27:USB_DEVICE/Target/usbd_conf.c **** 
  28:USB_DEVICE/Target/usbd_conf.c **** /* USER CODE BEGIN Includes */
  29:USB_DEVICE/Target/usbd_conf.c **** 
  30:USB_DEVICE/Target/usbd_conf.c **** /* USER CODE END Includes */
  31:USB_DEVICE/Target/usbd_conf.c **** 
ARM GAS  C:\Temp\ccmvY2mT.s 			page 2


  32:USB_DEVICE/Target/usbd_conf.c **** /* Private typedef -----------------------------------------------------------*/
  33:USB_DEVICE/Target/usbd_conf.c **** /* Private define ------------------------------------------------------------*/
  34:USB_DEVICE/Target/usbd_conf.c **** /* Private macro -------------------------------------------------------------*/
  35:USB_DEVICE/Target/usbd_conf.c **** 
  36:USB_DEVICE/Target/usbd_conf.c **** /* USER CODE BEGIN PV */
  37:USB_DEVICE/Target/usbd_conf.c **** /* Private variables ---------------------------------------------------------*/
  38:USB_DEVICE/Target/usbd_conf.c **** 
  39:USB_DEVICE/Target/usbd_conf.c **** /* USER CODE END PV */
  40:USB_DEVICE/Target/usbd_conf.c **** 
  41:USB_DEVICE/Target/usbd_conf.c **** PCD_HandleTypeDef hpcd_USB_OTG_FS;
  42:USB_DEVICE/Target/usbd_conf.c **** void Error_Handler(void);
  43:USB_DEVICE/Target/usbd_conf.c **** 
  44:USB_DEVICE/Target/usbd_conf.c **** /* USER CODE BEGIN 0 */
  45:USB_DEVICE/Target/usbd_conf.c **** 
  46:USB_DEVICE/Target/usbd_conf.c **** /* USER CODE END 0 */
  47:USB_DEVICE/Target/usbd_conf.c **** 
  48:USB_DEVICE/Target/usbd_conf.c **** /* Exported function prototypes ----------------------------------------------*/
  49:USB_DEVICE/Target/usbd_conf.c **** extern USBD_StatusTypeDef USBD_LL_BatteryCharging(USBD_HandleTypeDef *pdev);
  50:USB_DEVICE/Target/usbd_conf.c **** 
  51:USB_DEVICE/Target/usbd_conf.c **** /* USER CODE BEGIN PFP */
  52:USB_DEVICE/Target/usbd_conf.c **** /* Private function prototypes -----------------------------------------------*/
  53:USB_DEVICE/Target/usbd_conf.c **** 
  54:USB_DEVICE/Target/usbd_conf.c **** /* USER CODE END PFP */
  55:USB_DEVICE/Target/usbd_conf.c **** 
  56:USB_DEVICE/Target/usbd_conf.c **** /* Private functions ---------------------------------------------------------*/
  57:USB_DEVICE/Target/usbd_conf.c **** 
  58:USB_DEVICE/Target/usbd_conf.c **** /* USER CODE BEGIN 1 */
  59:USB_DEVICE/Target/usbd_conf.c **** static void SystemClockConfig_Resume(void);
  60:USB_DEVICE/Target/usbd_conf.c **** 
  61:USB_DEVICE/Target/usbd_conf.c **** /* USER CODE END 1 */
  62:USB_DEVICE/Target/usbd_conf.c **** extern void SystemClock_Config(void);
  63:USB_DEVICE/Target/usbd_conf.c **** 
  64:USB_DEVICE/Target/usbd_conf.c **** /*******************************************************************************
  65:USB_DEVICE/Target/usbd_conf.c ****                        LL Driver Callbacks (PCD -> USB Device Library)
  66:USB_DEVICE/Target/usbd_conf.c **** *******************************************************************************/
  67:USB_DEVICE/Target/usbd_conf.c **** /* MSP Init */
  68:USB_DEVICE/Target/usbd_conf.c **** 
  69:USB_DEVICE/Target/usbd_conf.c **** void HAL_PCD_MspInit(PCD_HandleTypeDef* pcdHandle)
  70:USB_DEVICE/Target/usbd_conf.c **** {
  71:USB_DEVICE/Target/usbd_conf.c ****   GPIO_InitTypeDef GPIO_InitStruct = {0};
  72:USB_DEVICE/Target/usbd_conf.c ****   if(pcdHandle->Instance==USB_OTG_FS)
  73:USB_DEVICE/Target/usbd_conf.c ****   {
  74:USB_DEVICE/Target/usbd_conf.c ****   /* USER CODE BEGIN USB_OTG_FS_MspInit 0 */
  75:USB_DEVICE/Target/usbd_conf.c **** 
  76:USB_DEVICE/Target/usbd_conf.c ****   /* USER CODE END USB_OTG_FS_MspInit 0 */
  77:USB_DEVICE/Target/usbd_conf.c ****     LL_RCC_SetUSBClockSource(LL_RCC_USB_CLKSOURCE_PLLSAI1);
  78:USB_DEVICE/Target/usbd_conf.c **** 
  79:USB_DEVICE/Target/usbd_conf.c ****     __HAL_RCC_GPIOA_CLK_ENABLE();
  80:USB_DEVICE/Target/usbd_conf.c ****     /**USB_OTG_FS GPIO Configuration
  81:USB_DEVICE/Target/usbd_conf.c ****     PA11     ------> USB_OTG_FS_DM
  82:USB_DEVICE/Target/usbd_conf.c ****     PA12     ------> USB_OTG_FS_DP
  83:USB_DEVICE/Target/usbd_conf.c ****     */
  84:USB_DEVICE/Target/usbd_conf.c ****     GPIO_InitStruct.Pin = GPIO_PIN_11|GPIO_PIN_12;
  85:USB_DEVICE/Target/usbd_conf.c ****     GPIO_InitStruct.Mode = GPIO_MODE_AF_PP;
  86:USB_DEVICE/Target/usbd_conf.c ****     GPIO_InitStruct.Pull = GPIO_NOPULL;
  87:USB_DEVICE/Target/usbd_conf.c ****     GPIO_InitStruct.Speed = GPIO_SPEED_FREQ_VERY_HIGH;
  88:USB_DEVICE/Target/usbd_conf.c ****     GPIO_InitStruct.Alternate = GPIO_AF10_OTG_FS;
ARM GAS  C:\Temp\ccmvY2mT.s 			page 3


  89:USB_DEVICE/Target/usbd_conf.c ****     HAL_GPIO_Init(GPIOA, &GPIO_InitStruct);
  90:USB_DEVICE/Target/usbd_conf.c **** 
  91:USB_DEVICE/Target/usbd_conf.c ****     /* Peripheral clock enable */
  92:USB_DEVICE/Target/usbd_conf.c ****     __HAL_RCC_USB_OTG_FS_CLK_ENABLE();
  93:USB_DEVICE/Target/usbd_conf.c **** 
  94:USB_DEVICE/Target/usbd_conf.c ****     /* Enable VDDUSB */
  95:USB_DEVICE/Target/usbd_conf.c ****     if(__HAL_RCC_PWR_IS_CLK_DISABLED())
  96:USB_DEVICE/Target/usbd_conf.c ****     {
  97:USB_DEVICE/Target/usbd_conf.c ****       __HAL_RCC_PWR_CLK_ENABLE();
  98:USB_DEVICE/Target/usbd_conf.c ****       HAL_PWREx_EnableVddUSB();
  99:USB_DEVICE/Target/usbd_conf.c ****       __HAL_RCC_PWR_CLK_DISABLE();
 100:USB_DEVICE/Target/usbd_conf.c ****     }
 101:USB_DEVICE/Target/usbd_conf.c ****     else
 102:USB_DEVICE/Target/usbd_conf.c ****     {
 103:USB_DEVICE/Target/usbd_conf.c ****       HAL_PWREx_EnableVddUSB();
 104:USB_DEVICE/Target/usbd_conf.c ****     }
 105:USB_DEVICE/Target/usbd_conf.c **** 
 106:USB_DEVICE/Target/usbd_conf.c ****     /* Peripheral interrupt init */
 107:USB_DEVICE/Target/usbd_conf.c ****     HAL_NVIC_SetPriority(OTG_FS_IRQn, 0, 0);
 108:USB_DEVICE/Target/usbd_conf.c ****     HAL_NVIC_EnableIRQ(OTG_FS_IRQn);
 109:USB_DEVICE/Target/usbd_conf.c ****   /* USER CODE BEGIN USB_OTG_FS_MspInit 1 */
 110:USB_DEVICE/Target/usbd_conf.c **** 
 111:USB_DEVICE/Target/usbd_conf.c ****   /* USER CODE END USB_OTG_FS_MspInit 1 */
 112:USB_DEVICE/Target/usbd_conf.c ****   }
 113:USB_DEVICE/Target/usbd_conf.c **** }
 114:USB_DEVICE/Target/usbd_conf.c **** 
 115:USB_DEVICE/Target/usbd_conf.c **** void HAL_PCD_MspDeInit(PCD_HandleTypeDef* pcdHandle)
 116:USB_DEVICE/Target/usbd_conf.c **** {
 117:USB_DEVICE/Target/usbd_conf.c ****   if(pcdHandle->Instance==USB_OTG_FS)
 118:USB_DEVICE/Target/usbd_conf.c ****   {
 119:USB_DEVICE/Target/usbd_conf.c ****   /* USER CODE BEGIN USB_OTG_FS_MspDeInit 0 */
 120:USB_DEVICE/Target/usbd_conf.c **** 
 121:USB_DEVICE/Target/usbd_conf.c ****   /* USER CODE END USB_OTG_FS_MspDeInit 0 */
 122:USB_DEVICE/Target/usbd_conf.c ****     /* Peripheral clock disable */
 123:USB_DEVICE/Target/usbd_conf.c ****     __HAL_RCC_USB_OTG_FS_CLK_DISABLE();
 124:USB_DEVICE/Target/usbd_conf.c **** 
 125:USB_DEVICE/Target/usbd_conf.c ****     /**USB_OTG_FS GPIO Configuration
 126:USB_DEVICE/Target/usbd_conf.c ****     PA11     ------> USB_OTG_FS_DM
 127:USB_DEVICE/Target/usbd_conf.c ****     PA12     ------> USB_OTG_FS_DP
 128:USB_DEVICE/Target/usbd_conf.c ****     */
 129:USB_DEVICE/Target/usbd_conf.c ****     HAL_GPIO_DeInit(GPIOA, GPIO_PIN_11|GPIO_PIN_12);
 130:USB_DEVICE/Target/usbd_conf.c **** 
 131:USB_DEVICE/Target/usbd_conf.c ****     /* Disable VDDUSB */
 132:USB_DEVICE/Target/usbd_conf.c ****     if(__HAL_RCC_PWR_IS_CLK_DISABLED())
 133:USB_DEVICE/Target/usbd_conf.c ****     {
 134:USB_DEVICE/Target/usbd_conf.c ****       __HAL_RCC_PWR_CLK_ENABLE();
 135:USB_DEVICE/Target/usbd_conf.c ****       HAL_PWREx_DisableVddUSB();
 136:USB_DEVICE/Target/usbd_conf.c ****       __HAL_RCC_PWR_CLK_DISABLE();
 137:USB_DEVICE/Target/usbd_conf.c ****     }
 138:USB_DEVICE/Target/usbd_conf.c ****     else
 139:USB_DEVICE/Target/usbd_conf.c ****     {
 140:USB_DEVICE/Target/usbd_conf.c ****       HAL_PWREx_DisableVddUSB();
 141:USB_DEVICE/Target/usbd_conf.c ****     }
 142:USB_DEVICE/Target/usbd_conf.c **** 
 143:USB_DEVICE/Target/usbd_conf.c ****     /* Peripheral interrupt Deinit*/
 144:USB_DEVICE/Target/usbd_conf.c ****     HAL_NVIC_DisableIRQ(OTG_FS_IRQn);
 145:USB_DEVICE/Target/usbd_conf.c **** 
ARM GAS  C:\Temp\ccmvY2mT.s 			page 4


 146:USB_DEVICE/Target/usbd_conf.c ****   /* USER CODE BEGIN USB_OTG_FS_MspDeInit 1 */
 147:USB_DEVICE/Target/usbd_conf.c **** 
 148:USB_DEVICE/Target/usbd_conf.c ****   /* USER CODE END USB_OTG_FS_MspDeInit 1 */
 149:USB_DEVICE/Target/usbd_conf.c ****   }
 150:USB_DEVICE/Target/usbd_conf.c **** }
 151:USB_DEVICE/Target/usbd_conf.c **** 
 152:USB_DEVICE/Target/usbd_conf.c **** /**
 153:USB_DEVICE/Target/usbd_conf.c ****   * @brief  Setup stage callback
 154:USB_DEVICE/Target/usbd_conf.c ****   * @param  hpcd: PCD handle
 155:USB_DEVICE/Target/usbd_conf.c ****   * @retval None
 156:USB_DEVICE/Target/usbd_conf.c ****   */
 157:USB_DEVICE/Target/usbd_conf.c **** #if (USE_HAL_PCD_REGISTER_CALLBACKS == 1U)
 158:USB_DEVICE/Target/usbd_conf.c **** static void PCD_SetupStageCallback(PCD_HandleTypeDef *hpcd)
 159:USB_DEVICE/Target/usbd_conf.c **** #else
 160:USB_DEVICE/Target/usbd_conf.c **** void HAL_PCD_SetupStageCallback(PCD_HandleTypeDef *hpcd)
 161:USB_DEVICE/Target/usbd_conf.c **** #endif /* USE_HAL_PCD_REGISTER_CALLBACKS */
 162:USB_DEVICE/Target/usbd_conf.c **** {
 163:USB_DEVICE/Target/usbd_conf.c ****   USBD_LL_SetupStage((USBD_HandleTypeDef*)hpcd->pData, (uint8_t *)hpcd->Setup);
 164:USB_DEVICE/Target/usbd_conf.c **** }
 165:USB_DEVICE/Target/usbd_conf.c **** 
 166:USB_DEVICE/Target/usbd_conf.c **** /**
 167:USB_DEVICE/Target/usbd_conf.c ****   * @brief  Data Out stage callback.
 168:USB_DEVICE/Target/usbd_conf.c ****   * @param  hpcd: PCD handle
 169:USB_DEVICE/Target/usbd_conf.c ****   * @param  epnum: Endpoint number
 170:USB_DEVICE/Target/usbd_conf.c ****   * @retval None
 171:USB_DEVICE/Target/usbd_conf.c ****   */
 172:USB_DEVICE/Target/usbd_conf.c **** #if (USE_HAL_PCD_REGISTER_CALLBACKS == 1U)
 173:USB_DEVICE/Target/usbd_conf.c **** static void PCD_DataOutStageCallback(PCD_HandleTypeDef *hpcd, uint8_t epnum)
 174:USB_DEVICE/Target/usbd_conf.c **** #else
 175:USB_DEVICE/Target/usbd_conf.c **** void HAL_PCD_DataOutStageCallback(PCD_HandleTypeDef *hpcd, uint8_t epnum)
 176:USB_DEVICE/Target/usbd_conf.c **** #endif /* USE_HAL_PCD_REGISTER_CALLBACKS */
 177:USB_DEVICE/Target/usbd_conf.c **** {
 178:USB_DEVICE/Target/usbd_conf.c ****   USBD_LL_DataOutStage((USBD_HandleTypeDef*)hpcd->pData, epnum, hpcd->OUT_ep[epnum].xfer_buff);
 179:USB_DEVICE/Target/usbd_conf.c **** }
 180:USB_DEVICE/Target/usbd_conf.c **** 
 181:USB_DEVICE/Target/usbd_conf.c **** /**
 182:USB_DEVICE/Target/usbd_conf.c ****   * @brief  Data In stage callback.
 183:USB_DEVICE/Target/usbd_conf.c ****   * @param  hpcd: PCD handle
 184:USB_DEVICE/Target/usbd_conf.c ****   * @param  epnum: Endpoint number
 185:USB_DEVICE/Target/usbd_conf.c ****   * @retval None
 186:USB_DEVICE/Target/usbd_conf.c ****   */
 187:USB_DEVICE/Target/usbd_conf.c **** #if (USE_HAL_PCD_REGISTER_CALLBACKS == 1U)
 188:USB_DEVICE/Target/usbd_conf.c **** static void PCD_DataInStageCallback(PCD_HandleTypeDef *hpcd, uint8_t epnum)
 189:USB_DEVICE/Target/usbd_conf.c **** #else
 190:USB_DEVICE/Target/usbd_conf.c **** void HAL_PCD_DataInStageCallback(PCD_HandleTypeDef *hpcd, uint8_t epnum)
 191:USB_DEVICE/Target/usbd_conf.c **** #endif /* USE_HAL_PCD_REGISTER_CALLBACKS */
 192:USB_DEVICE/Target/usbd_conf.c **** {
 193:USB_DEVICE/Target/usbd_conf.c ****   USBD_LL_DataInStage((USBD_HandleTypeDef*)hpcd->pData, epnum, hpcd->IN_ep[epnum].xfer_buff);
 194:USB_DEVICE/Target/usbd_conf.c **** }
 195:USB_DEVICE/Target/usbd_conf.c **** 
 196:USB_DEVICE/Target/usbd_conf.c **** /**
 197:USB_DEVICE/Target/usbd_conf.c ****   * @brief  SOF callback.
 198:USB_DEVICE/Target/usbd_conf.c ****   * @param  hpcd: PCD handle
 199:USB_DEVICE/Target/usbd_conf.c ****   * @retval None
 200:USB_DEVICE/Target/usbd_conf.c ****   */
 201:USB_DEVICE/Target/usbd_conf.c **** #if (USE_HAL_PCD_REGISTER_CALLBACKS == 1U)
 202:USB_DEVICE/Target/usbd_conf.c **** static void PCD_SOFCallback(PCD_HandleTypeDef *hpcd)
ARM GAS  C:\Temp\ccmvY2mT.s 			page 5


 203:USB_DEVICE/Target/usbd_conf.c **** #else
 204:USB_DEVICE/Target/usbd_conf.c **** void HAL_PCD_SOFCallback(PCD_HandleTypeDef *hpcd)
 205:USB_DEVICE/Target/usbd_conf.c **** #endif /* USE_HAL_PCD_REGISTER_CALLBACKS */
 206:USB_DEVICE/Target/usbd_conf.c **** {
 207:USB_DEVICE/Target/usbd_conf.c ****   USBD_LL_SOF((USBD_HandleTypeDef*)hpcd->pData);
 208:USB_DEVICE/Target/usbd_conf.c **** }
 209:USB_DEVICE/Target/usbd_conf.c **** 
 210:USB_DEVICE/Target/usbd_conf.c **** /**
 211:USB_DEVICE/Target/usbd_conf.c ****   * @brief  Reset callback.
 212:USB_DEVICE/Target/usbd_conf.c ****   * @param  hpcd: PCD handle
 213:USB_DEVICE/Target/usbd_conf.c ****   * @retval None
 214:USB_DEVICE/Target/usbd_conf.c ****   */
 215:USB_DEVICE/Target/usbd_conf.c **** #if (USE_HAL_PCD_REGISTER_CALLBACKS == 1U)
 216:USB_DEVICE/Target/usbd_conf.c **** static void PCD_ResetCallback(PCD_HandleTypeDef *hpcd)
 217:USB_DEVICE/Target/usbd_conf.c **** #else
 218:USB_DEVICE/Target/usbd_conf.c **** void HAL_PCD_ResetCallback(PCD_HandleTypeDef *hpcd)
 219:USB_DEVICE/Target/usbd_conf.c **** #endif /* USE_HAL_PCD_REGISTER_CALLBACKS */
 220:USB_DEVICE/Target/usbd_conf.c **** {
 221:USB_DEVICE/Target/usbd_conf.c ****   USBD_SpeedTypeDef speed = USBD_SPEED_FULL;
 222:USB_DEVICE/Target/usbd_conf.c **** 
 223:USB_DEVICE/Target/usbd_conf.c ****   if ( hpcd->Init.speed != PCD_SPEED_FULL)
 224:USB_DEVICE/Target/usbd_conf.c ****   {
 225:USB_DEVICE/Target/usbd_conf.c ****     Error_Handler();
 226:USB_DEVICE/Target/usbd_conf.c ****   }
 227:USB_DEVICE/Target/usbd_conf.c ****     /* Set Speed. */
 228:USB_DEVICE/Target/usbd_conf.c ****   USBD_LL_SetSpeed((USBD_HandleTypeDef*)hpcd->pData, speed);
 229:USB_DEVICE/Target/usbd_conf.c **** 
 230:USB_DEVICE/Target/usbd_conf.c ****   /* Reset Device. */
 231:USB_DEVICE/Target/usbd_conf.c ****   USBD_LL_Reset((USBD_HandleTypeDef*)hpcd->pData);
 232:USB_DEVICE/Target/usbd_conf.c **** }
 233:USB_DEVICE/Target/usbd_conf.c **** 
 234:USB_DEVICE/Target/usbd_conf.c **** /**
 235:USB_DEVICE/Target/usbd_conf.c ****   * @brief  Suspend callback.
 236:USB_DEVICE/Target/usbd_conf.c ****   * When Low power mode is enabled the debug cannot be used (IAR, Keil doesn't support it)
 237:USB_DEVICE/Target/usbd_conf.c ****   * @param  hpcd: PCD handle
 238:USB_DEVICE/Target/usbd_conf.c ****   * @retval None
 239:USB_DEVICE/Target/usbd_conf.c ****   */
 240:USB_DEVICE/Target/usbd_conf.c **** #if (USE_HAL_PCD_REGISTER_CALLBACKS == 1U)
 241:USB_DEVICE/Target/usbd_conf.c **** static void PCD_SuspendCallback(PCD_HandleTypeDef *hpcd)
 242:USB_DEVICE/Target/usbd_conf.c **** #else
 243:USB_DEVICE/Target/usbd_conf.c **** void HAL_PCD_SuspendCallback(PCD_HandleTypeDef *hpcd)
 244:USB_DEVICE/Target/usbd_conf.c **** #endif /* USE_HAL_PCD_REGISTER_CALLBACKS */
 245:USB_DEVICE/Target/usbd_conf.c **** {
 246:USB_DEVICE/Target/usbd_conf.c ****   __HAL_PCD_GATE_PHYCLOCK(hpcd);
 247:USB_DEVICE/Target/usbd_conf.c ****   /* Inform USB library that core enters in suspend Mode. */
 248:USB_DEVICE/Target/usbd_conf.c ****   USBD_LL_Suspend((USBD_HandleTypeDef*)hpcd->pData);
 249:USB_DEVICE/Target/usbd_conf.c ****   /* Enter in STOP mode. */
 250:USB_DEVICE/Target/usbd_conf.c ****   /* USER CODE BEGIN 2 */
 251:USB_DEVICE/Target/usbd_conf.c ****   if (hpcd->Init.low_power_enable)
 252:USB_DEVICE/Target/usbd_conf.c ****   {
 253:USB_DEVICE/Target/usbd_conf.c ****     /* Set SLEEPDEEP bit and SleepOnExit of Cortex System Control Register. */
 254:USB_DEVICE/Target/usbd_conf.c ****     SCB->SCR |= (uint32_t)((uint32_t)(SCB_SCR_SLEEPDEEP_Msk | SCB_SCR_SLEEPONEXIT_Msk));
 255:USB_DEVICE/Target/usbd_conf.c ****   }
 256:USB_DEVICE/Target/usbd_conf.c ****   /* USER CODE END 2 */
 257:USB_DEVICE/Target/usbd_conf.c **** }
 258:USB_DEVICE/Target/usbd_conf.c **** 
 259:USB_DEVICE/Target/usbd_conf.c **** /**
ARM GAS  C:\Temp\ccmvY2mT.s 			page 6


 260:USB_DEVICE/Target/usbd_conf.c ****   * @brief  Resume callback.
 261:USB_DEVICE/Target/usbd_conf.c ****   * When Low power mode is enabled the debug cannot be used (IAR, Keil doesn't support it)
 262:USB_DEVICE/Target/usbd_conf.c ****   * @param  hpcd: PCD handle
 263:USB_DEVICE/Target/usbd_conf.c ****   * @retval None
 264:USB_DEVICE/Target/usbd_conf.c ****   */
 265:USB_DEVICE/Target/usbd_conf.c **** #if (USE_HAL_PCD_REGISTER_CALLBACKS == 1U)
 266:USB_DEVICE/Target/usbd_conf.c **** static void PCD_ResumeCallback(PCD_HandleTypeDef *hpcd)
 267:USB_DEVICE/Target/usbd_conf.c **** #else
 268:USB_DEVICE/Target/usbd_conf.c **** void HAL_PCD_ResumeCallback(PCD_HandleTypeDef *hpcd)
 269:USB_DEVICE/Target/usbd_conf.c **** #endif /* USE_HAL_PCD_REGISTER_CALLBACKS */
 270:USB_DEVICE/Target/usbd_conf.c **** {
 271:USB_DEVICE/Target/usbd_conf.c ****   __HAL_PCD_UNGATE_PHYCLOCK(hpcd);
 272:USB_DEVICE/Target/usbd_conf.c **** 
 273:USB_DEVICE/Target/usbd_conf.c ****   /* USER CODE BEGIN 3 */
 274:USB_DEVICE/Target/usbd_conf.c ****   if (hpcd->Init.low_power_enable)
 275:USB_DEVICE/Target/usbd_conf.c ****   {
 276:USB_DEVICE/Target/usbd_conf.c ****     /* Reset SLEEPDEEP bit of Cortex System Control Register. */
 277:USB_DEVICE/Target/usbd_conf.c ****     SCB->SCR &= (uint32_t)~((uint32_t)(SCB_SCR_SLEEPDEEP_Msk | SCB_SCR_SLEEPONEXIT_Msk));
 278:USB_DEVICE/Target/usbd_conf.c ****     SystemClockConfig_Resume();
 279:USB_DEVICE/Target/usbd_conf.c ****   }
 280:USB_DEVICE/Target/usbd_conf.c ****   /* USER CODE END 3 */
 281:USB_DEVICE/Target/usbd_conf.c ****   USBD_LL_Resume((USBD_HandleTypeDef*)hpcd->pData);
 282:USB_DEVICE/Target/usbd_conf.c **** }
 283:USB_DEVICE/Target/usbd_conf.c **** 
 284:USB_DEVICE/Target/usbd_conf.c **** /**
 285:USB_DEVICE/Target/usbd_conf.c ****   * @brief  ISOOUTIncomplete callback.
 286:USB_DEVICE/Target/usbd_conf.c ****   * @param  hpcd: PCD handle
 287:USB_DEVICE/Target/usbd_conf.c ****   * @param  epnum: Endpoint number
 288:USB_DEVICE/Target/usbd_conf.c ****   * @retval None
 289:USB_DEVICE/Target/usbd_conf.c ****   */
 290:USB_DEVICE/Target/usbd_conf.c **** #if (USE_HAL_PCD_REGISTER_CALLBACKS == 1U)
 291:USB_DEVICE/Target/usbd_conf.c **** static void PCD_ISOOUTIncompleteCallback(PCD_HandleTypeDef *hpcd, uint8_t epnum)
 292:USB_DEVICE/Target/usbd_conf.c **** #else
 293:USB_DEVICE/Target/usbd_conf.c **** void HAL_PCD_ISOOUTIncompleteCallback(PCD_HandleTypeDef *hpcd, uint8_t epnum)
 294:USB_DEVICE/Target/usbd_conf.c **** #endif /* USE_HAL_PCD_REGISTER_CALLBACKS */
 295:USB_DEVICE/Target/usbd_conf.c **** {
 296:USB_DEVICE/Target/usbd_conf.c ****   USBD_LL_IsoOUTIncomplete((USBD_HandleTypeDef*)hpcd->pData, epnum);
 297:USB_DEVICE/Target/usbd_conf.c **** }
 298:USB_DEVICE/Target/usbd_conf.c **** 
 299:USB_DEVICE/Target/usbd_conf.c **** /**
 300:USB_DEVICE/Target/usbd_conf.c ****   * @brief  ISOINIncomplete callback.
 301:USB_DEVICE/Target/usbd_conf.c ****   * @param  hpcd: PCD handle
 302:USB_DEVICE/Target/usbd_conf.c ****   * @param  epnum: Endpoint number
 303:USB_DEVICE/Target/usbd_conf.c ****   * @retval None
 304:USB_DEVICE/Target/usbd_conf.c ****   */
 305:USB_DEVICE/Target/usbd_conf.c **** #if (USE_HAL_PCD_REGISTER_CALLBACKS == 1U)
 306:USB_DEVICE/Target/usbd_conf.c **** static void PCD_ISOINIncompleteCallback(PCD_HandleTypeDef *hpcd, uint8_t epnum)
 307:USB_DEVICE/Target/usbd_conf.c **** #else
 308:USB_DEVICE/Target/usbd_conf.c **** void HAL_PCD_ISOINIncompleteCallback(PCD_HandleTypeDef *hpcd, uint8_t epnum)
 309:USB_DEVICE/Target/usbd_conf.c **** #endif /* USE_HAL_PCD_REGISTER_CALLBACKS */
 310:USB_DEVICE/Target/usbd_conf.c **** {
 311:USB_DEVICE/Target/usbd_conf.c ****   USBD_LL_IsoINIncomplete((USBD_HandleTypeDef*)hpcd->pData, epnum);
 312:USB_DEVICE/Target/usbd_conf.c **** }
 313:USB_DEVICE/Target/usbd_conf.c **** 
 314:USB_DEVICE/Target/usbd_conf.c **** /**
 315:USB_DEVICE/Target/usbd_conf.c ****   * @brief  Connect callback.
 316:USB_DEVICE/Target/usbd_conf.c ****   * @param  hpcd: PCD handle
ARM GAS  C:\Temp\ccmvY2mT.s 			page 7


 317:USB_DEVICE/Target/usbd_conf.c ****   * @retval None
 318:USB_DEVICE/Target/usbd_conf.c ****   */
 319:USB_DEVICE/Target/usbd_conf.c **** #if (USE_HAL_PCD_REGISTER_CALLBACKS == 1U)
 320:USB_DEVICE/Target/usbd_conf.c **** static void PCD_ConnectCallback(PCD_HandleTypeDef *hpcd)
 321:USB_DEVICE/Target/usbd_conf.c **** #else
 322:USB_DEVICE/Target/usbd_conf.c **** void HAL_PCD_ConnectCallback(PCD_HandleTypeDef *hpcd)
 323:USB_DEVICE/Target/usbd_conf.c **** #endif /* USE_HAL_PCD_REGISTER_CALLBACKS */
 324:USB_DEVICE/Target/usbd_conf.c **** {
 325:USB_DEVICE/Target/usbd_conf.c ****   USBD_LL_DevConnected((USBD_HandleTypeDef*)hpcd->pData);
 326:USB_DEVICE/Target/usbd_conf.c **** }
 327:USB_DEVICE/Target/usbd_conf.c **** 
 328:USB_DEVICE/Target/usbd_conf.c **** /**
 329:USB_DEVICE/Target/usbd_conf.c ****   * @brief  Disconnect callback.
 330:USB_DEVICE/Target/usbd_conf.c ****   * @param  hpcd: PCD handle
 331:USB_DEVICE/Target/usbd_conf.c ****   * @retval None
 332:USB_DEVICE/Target/usbd_conf.c ****   */
 333:USB_DEVICE/Target/usbd_conf.c **** #if (USE_HAL_PCD_REGISTER_CALLBACKS == 1U)
 334:USB_DEVICE/Target/usbd_conf.c **** static void PCD_DisconnectCallback(PCD_HandleTypeDef *hpcd)
 335:USB_DEVICE/Target/usbd_conf.c **** #else
 336:USB_DEVICE/Target/usbd_conf.c **** void HAL_PCD_DisconnectCallback(PCD_HandleTypeDef *hpcd)
 337:USB_DEVICE/Target/usbd_conf.c **** #endif /* USE_HAL_PCD_REGISTER_CALLBACKS */
 338:USB_DEVICE/Target/usbd_conf.c **** {
 339:USB_DEVICE/Target/usbd_conf.c ****   USBD_LL_DevDisconnected((USBD_HandleTypeDef*)hpcd->pData);
 340:USB_DEVICE/Target/usbd_conf.c **** }
 341:USB_DEVICE/Target/usbd_conf.c **** 
 342:USB_DEVICE/Target/usbd_conf.c **** /*******************************************************************************
 343:USB_DEVICE/Target/usbd_conf.c ****                        LL Driver Interface (USB Device Library --> PCD)
 344:USB_DEVICE/Target/usbd_conf.c **** *******************************************************************************/
 345:USB_DEVICE/Target/usbd_conf.c **** 
 346:USB_DEVICE/Target/usbd_conf.c **** /**
 347:USB_DEVICE/Target/usbd_conf.c ****   * @brief  Initializes the low level portion of the device driver.
 348:USB_DEVICE/Target/usbd_conf.c ****   * @param  pdev: Device handle
 349:USB_DEVICE/Target/usbd_conf.c ****   * @retval USBD status
 350:USB_DEVICE/Target/usbd_conf.c ****   */
 351:USB_DEVICE/Target/usbd_conf.c **** USBD_StatusTypeDef USBD_LL_Init(USBD_HandleTypeDef *pdev)
 352:USB_DEVICE/Target/usbd_conf.c **** {
 353:USB_DEVICE/Target/usbd_conf.c ****   /* Init USB Ip. */
 354:USB_DEVICE/Target/usbd_conf.c ****   if (pdev->id == DEVICE_FS) {
 355:USB_DEVICE/Target/usbd_conf.c ****   /* Enable USB power on Pwrctrl CR2 register. */
 356:USB_DEVICE/Target/usbd_conf.c ****   /* Link the driver to the stack. */
 357:USB_DEVICE/Target/usbd_conf.c ****   hpcd_USB_OTG_FS.pData = pdev;
 358:USB_DEVICE/Target/usbd_conf.c ****   pdev->pData = &hpcd_USB_OTG_FS;
 359:USB_DEVICE/Target/usbd_conf.c **** 
 360:USB_DEVICE/Target/usbd_conf.c ****   hpcd_USB_OTG_FS.Instance = USB_OTG_FS;
 361:USB_DEVICE/Target/usbd_conf.c ****   hpcd_USB_OTG_FS.Init.dev_endpoints = 6;
 362:USB_DEVICE/Target/usbd_conf.c ****   hpcd_USB_OTG_FS.Init.speed = PCD_SPEED_FULL;
 363:USB_DEVICE/Target/usbd_conf.c ****   hpcd_USB_OTG_FS.Init.phy_itface = PCD_PHY_EMBEDDED;
 364:USB_DEVICE/Target/usbd_conf.c ****   hpcd_USB_OTG_FS.Init.Sof_enable = DISABLE;
 365:USB_DEVICE/Target/usbd_conf.c ****   hpcd_USB_OTG_FS.Init.low_power_enable = DISABLE;
 366:USB_DEVICE/Target/usbd_conf.c ****   hpcd_USB_OTG_FS.Init.lpm_enable = DISABLE;
 367:USB_DEVICE/Target/usbd_conf.c ****   hpcd_USB_OTG_FS.Init.battery_charging_enable = DISABLE;
 368:USB_DEVICE/Target/usbd_conf.c ****   hpcd_USB_OTG_FS.Init.use_dedicated_ep1 = DISABLE;
 369:USB_DEVICE/Target/usbd_conf.c ****   hpcd_USB_OTG_FS.Init.vbus_sensing_enable = DISABLE;
 370:USB_DEVICE/Target/usbd_conf.c ****   if (HAL_PCD_Init(&hpcd_USB_OTG_FS) != HAL_OK)
 371:USB_DEVICE/Target/usbd_conf.c ****   {
 372:USB_DEVICE/Target/usbd_conf.c ****     Error_Handler( );
 373:USB_DEVICE/Target/usbd_conf.c ****   }
ARM GAS  C:\Temp\ccmvY2mT.s 			page 8


 374:USB_DEVICE/Target/usbd_conf.c **** 
 375:USB_DEVICE/Target/usbd_conf.c **** #if (USE_HAL_PCD_REGISTER_CALLBACKS == 1U)
 376:USB_DEVICE/Target/usbd_conf.c ****   /* Register USB PCD CallBacks */
 377:USB_DEVICE/Target/usbd_conf.c ****   HAL_PCD_RegisterCallback(&hpcd_USB_OTG_FS, HAL_PCD_SOF_CB_ID, PCD_SOFCallback);
 378:USB_DEVICE/Target/usbd_conf.c ****   HAL_PCD_RegisterCallback(&hpcd_USB_OTG_FS, HAL_PCD_SETUPSTAGE_CB_ID, PCD_SetupStageCallback);
 379:USB_DEVICE/Target/usbd_conf.c ****   HAL_PCD_RegisterCallback(&hpcd_USB_OTG_FS, HAL_PCD_RESET_CB_ID, PCD_ResetCallback);
 380:USB_DEVICE/Target/usbd_conf.c ****   HAL_PCD_RegisterCallback(&hpcd_USB_OTG_FS, HAL_PCD_SUSPEND_CB_ID, PCD_SuspendCallback);
 381:USB_DEVICE/Target/usbd_conf.c ****   HAL_PCD_RegisterCallback(&hpcd_USB_OTG_FS, HAL_PCD_RESUME_CB_ID, PCD_ResumeCallback);
 382:USB_DEVICE/Target/usbd_conf.c ****   HAL_PCD_RegisterCallback(&hpcd_USB_OTG_FS, HAL_PCD_CONNECT_CB_ID, PCD_ConnectCallback);
 383:USB_DEVICE/Target/usbd_conf.c ****   HAL_PCD_RegisterCallback(&hpcd_USB_OTG_FS, HAL_PCD_DISCONNECT_CB_ID, PCD_DisconnectCallback);
 384:USB_DEVICE/Target/usbd_conf.c **** 
 385:USB_DEVICE/Target/usbd_conf.c ****   HAL_PCD_RegisterDataOutStageCallback(&hpcd_USB_OTG_FS, PCD_DataOutStageCallback);
 386:USB_DEVICE/Target/usbd_conf.c ****   HAL_PCD_RegisterDataInStageCallback(&hpcd_USB_OTG_FS, PCD_DataInStageCallback);
 387:USB_DEVICE/Target/usbd_conf.c ****   HAL_PCD_RegisterIsoOutIncpltCallback(&hpcd_USB_OTG_FS, PCD_ISOOUTIncompleteCallback);
 388:USB_DEVICE/Target/usbd_conf.c ****   HAL_PCD_RegisterIsoInIncpltCallback(&hpcd_USB_OTG_FS, PCD_ISOINIncompleteCallback);
 389:USB_DEVICE/Target/usbd_conf.c **** #endif /* USE_HAL_PCD_REGISTER_CALLBACKS */
 390:USB_DEVICE/Target/usbd_conf.c ****   HAL_PCDEx_SetRxFiFo(&hpcd_USB_OTG_FS, 0x80);
 391:USB_DEVICE/Target/usbd_conf.c ****   HAL_PCDEx_SetTxFiFo(&hpcd_USB_OTG_FS, 0, 0x40);
 392:USB_DEVICE/Target/usbd_conf.c ****   HAL_PCDEx_SetTxFiFo(&hpcd_USB_OTG_FS, 1, 0x80);
 393:USB_DEVICE/Target/usbd_conf.c ****   }
 394:USB_DEVICE/Target/usbd_conf.c ****   return USBD_OK;
 395:USB_DEVICE/Target/usbd_conf.c **** }
 396:USB_DEVICE/Target/usbd_conf.c **** 
 397:USB_DEVICE/Target/usbd_conf.c **** /**
 398:USB_DEVICE/Target/usbd_conf.c ****   * @brief  De-Initializes the low level portion of the device driver.
 399:USB_DEVICE/Target/usbd_conf.c ****   * @param  pdev: Device handle
 400:USB_DEVICE/Target/usbd_conf.c ****   * @retval USBD status
 401:USB_DEVICE/Target/usbd_conf.c ****   */
 402:USB_DEVICE/Target/usbd_conf.c **** USBD_StatusTypeDef USBD_LL_DeInit(USBD_HandleTypeDef *pdev)
 403:USB_DEVICE/Target/usbd_conf.c **** {
 404:USB_DEVICE/Target/usbd_conf.c ****   HAL_StatusTypeDef hal_status = HAL_OK;
 405:USB_DEVICE/Target/usbd_conf.c ****   USBD_StatusTypeDef usb_status = USBD_OK;
 406:USB_DEVICE/Target/usbd_conf.c **** 
 407:USB_DEVICE/Target/usbd_conf.c ****   hal_status = HAL_PCD_DeInit(pdev->pData);
 408:USB_DEVICE/Target/usbd_conf.c **** 
 409:USB_DEVICE/Target/usbd_conf.c ****   switch (hal_status) {
 410:USB_DEVICE/Target/usbd_conf.c ****     case HAL_OK :
 411:USB_DEVICE/Target/usbd_conf.c ****       usb_status = USBD_OK;
 412:USB_DEVICE/Target/usbd_conf.c ****     break;
 413:USB_DEVICE/Target/usbd_conf.c ****     case HAL_ERROR :
 414:USB_DEVICE/Target/usbd_conf.c ****       usb_status = USBD_FAIL;
 415:USB_DEVICE/Target/usbd_conf.c ****     break;
 416:USB_DEVICE/Target/usbd_conf.c ****     case HAL_BUSY :
 417:USB_DEVICE/Target/usbd_conf.c ****       usb_status = USBD_BUSY;
 418:USB_DEVICE/Target/usbd_conf.c ****     break;
 419:USB_DEVICE/Target/usbd_conf.c ****     case HAL_TIMEOUT :
 420:USB_DEVICE/Target/usbd_conf.c ****       usb_status = USBD_FAIL;
 421:USB_DEVICE/Target/usbd_conf.c ****     break;
 422:USB_DEVICE/Target/usbd_conf.c ****     default :
 423:USB_DEVICE/Target/usbd_conf.c ****       usb_status = USBD_FAIL;
 424:USB_DEVICE/Target/usbd_conf.c ****     break;
 425:USB_DEVICE/Target/usbd_conf.c ****   }
 426:USB_DEVICE/Target/usbd_conf.c ****   return usb_status;
 427:USB_DEVICE/Target/usbd_conf.c **** }
 428:USB_DEVICE/Target/usbd_conf.c **** 
 429:USB_DEVICE/Target/usbd_conf.c **** /**
 430:USB_DEVICE/Target/usbd_conf.c ****   * @brief  Starts the low level portion of the device driver.
ARM GAS  C:\Temp\ccmvY2mT.s 			page 9


 431:USB_DEVICE/Target/usbd_conf.c ****   * @param  pdev: Device handle
 432:USB_DEVICE/Target/usbd_conf.c ****   * @retval USBD status
 433:USB_DEVICE/Target/usbd_conf.c ****   */
 434:USB_DEVICE/Target/usbd_conf.c **** USBD_StatusTypeDef USBD_LL_Start(USBD_HandleTypeDef *pdev)
 435:USB_DEVICE/Target/usbd_conf.c **** {
 436:USB_DEVICE/Target/usbd_conf.c ****   HAL_StatusTypeDef hal_status = HAL_OK;
 437:USB_DEVICE/Target/usbd_conf.c ****   USBD_StatusTypeDef usb_status = USBD_OK;
 438:USB_DEVICE/Target/usbd_conf.c **** 
 439:USB_DEVICE/Target/usbd_conf.c ****   hal_status = HAL_PCD_Start(pdev->pData);
 440:USB_DEVICE/Target/usbd_conf.c **** 
 441:USB_DEVICE/Target/usbd_conf.c ****   switch (hal_status) {
 442:USB_DEVICE/Target/usbd_conf.c ****     case HAL_OK :
 443:USB_DEVICE/Target/usbd_conf.c ****       usb_status = USBD_OK;
 444:USB_DEVICE/Target/usbd_conf.c ****     break;
 445:USB_DEVICE/Target/usbd_conf.c ****     case HAL_ERROR :
 446:USB_DEVICE/Target/usbd_conf.c ****       usb_status = USBD_FAIL;
 447:USB_DEVICE/Target/usbd_conf.c ****     break;
 448:USB_DEVICE/Target/usbd_conf.c ****     case HAL_BUSY :
 449:USB_DEVICE/Target/usbd_conf.c ****       usb_status = USBD_BUSY;
 450:USB_DEVICE/Target/usbd_conf.c ****     break;
 451:USB_DEVICE/Target/usbd_conf.c ****     case HAL_TIMEOUT :
 452:USB_DEVICE/Target/usbd_conf.c ****       usb_status = USBD_FAIL;
 453:USB_DEVICE/Target/usbd_conf.c ****     break;
 454:USB_DEVICE/Target/usbd_conf.c ****     default :
 455:USB_DEVICE/Target/usbd_conf.c ****       usb_status = USBD_FAIL;
 456:USB_DEVICE/Target/usbd_conf.c ****     break;
 457:USB_DEVICE/Target/usbd_conf.c ****   }
 458:USB_DEVICE/Target/usbd_conf.c ****   return usb_status;
 459:USB_DEVICE/Target/usbd_conf.c **** }
 460:USB_DEVICE/Target/usbd_conf.c **** 
 461:USB_DEVICE/Target/usbd_conf.c **** /**
 462:USB_DEVICE/Target/usbd_conf.c ****   * @brief  Stops the low level portion of the device driver.
 463:USB_DEVICE/Target/usbd_conf.c ****   * @param  pdev: Device handle
 464:USB_DEVICE/Target/usbd_conf.c ****   * @retval USBD status
 465:USB_DEVICE/Target/usbd_conf.c ****   */
 466:USB_DEVICE/Target/usbd_conf.c **** USBD_StatusTypeDef USBD_LL_Stop(USBD_HandleTypeDef *pdev)
 467:USB_DEVICE/Target/usbd_conf.c **** {
 468:USB_DEVICE/Target/usbd_conf.c ****   HAL_StatusTypeDef hal_status = HAL_OK;
 469:USB_DEVICE/Target/usbd_conf.c ****   USBD_StatusTypeDef usb_status = USBD_OK;
 470:USB_DEVICE/Target/usbd_conf.c **** 
 471:USB_DEVICE/Target/usbd_conf.c ****   hal_status = HAL_PCD_Stop(pdev->pData);
 472:USB_DEVICE/Target/usbd_conf.c **** 
 473:USB_DEVICE/Target/usbd_conf.c ****   switch (hal_status) {
 474:USB_DEVICE/Target/usbd_conf.c ****     case HAL_OK :
 475:USB_DEVICE/Target/usbd_conf.c ****       usb_status = USBD_OK;
 476:USB_DEVICE/Target/usbd_conf.c ****     break;
 477:USB_DEVICE/Target/usbd_conf.c ****     case HAL_ERROR :
 478:USB_DEVICE/Target/usbd_conf.c ****       usb_status = USBD_FAIL;
 479:USB_DEVICE/Target/usbd_conf.c ****     break;
 480:USB_DEVICE/Target/usbd_conf.c ****     case HAL_BUSY :
 481:USB_DEVICE/Target/usbd_conf.c ****       usb_status = USBD_BUSY;
 482:USB_DEVICE/Target/usbd_conf.c ****     break;
 483:USB_DEVICE/Target/usbd_conf.c ****     case HAL_TIMEOUT :
 484:USB_DEVICE/Target/usbd_conf.c ****       usb_status = USBD_FAIL;
 485:USB_DEVICE/Target/usbd_conf.c ****     break;
 486:USB_DEVICE/Target/usbd_conf.c ****     default :
 487:USB_DEVICE/Target/usbd_conf.c ****       usb_status = USBD_FAIL;
ARM GAS  C:\Temp\ccmvY2mT.s 			page 10


 488:USB_DEVICE/Target/usbd_conf.c ****     break;
 489:USB_DEVICE/Target/usbd_conf.c ****   }
 490:USB_DEVICE/Target/usbd_conf.c ****   return usb_status;
 491:USB_DEVICE/Target/usbd_conf.c **** }
 492:USB_DEVICE/Target/usbd_conf.c **** 
 493:USB_DEVICE/Target/usbd_conf.c **** /**
 494:USB_DEVICE/Target/usbd_conf.c ****   * @brief  Opens an endpoint of the low level driver.
 495:USB_DEVICE/Target/usbd_conf.c ****   * @param  pdev: Device handle
 496:USB_DEVICE/Target/usbd_conf.c ****   * @param  ep_addr: Endpoint number
 497:USB_DEVICE/Target/usbd_conf.c ****   * @param  ep_type: Endpoint type
 498:USB_DEVICE/Target/usbd_conf.c ****   * @param  ep_mps: Endpoint max packet size
 499:USB_DEVICE/Target/usbd_conf.c ****   * @retval USBD status
 500:USB_DEVICE/Target/usbd_conf.c ****   */
 501:USB_DEVICE/Target/usbd_conf.c **** USBD_StatusTypeDef USBD_LL_OpenEP(USBD_HandleTypeDef *pdev, uint8_t ep_addr, uint8_t ep_type, uint1
 502:USB_DEVICE/Target/usbd_conf.c **** {
 503:USB_DEVICE/Target/usbd_conf.c ****   HAL_StatusTypeDef hal_status = HAL_OK;
 504:USB_DEVICE/Target/usbd_conf.c ****   USBD_StatusTypeDef usb_status = USBD_OK;
 505:USB_DEVICE/Target/usbd_conf.c **** 
 506:USB_DEVICE/Target/usbd_conf.c ****   hal_status = HAL_PCD_EP_Open(pdev->pData, ep_addr, ep_mps, ep_type);
 507:USB_DEVICE/Target/usbd_conf.c **** 
 508:USB_DEVICE/Target/usbd_conf.c ****   switch (hal_status) {
 509:USB_DEVICE/Target/usbd_conf.c ****     case HAL_OK :
 510:USB_DEVICE/Target/usbd_conf.c ****       usb_status = USBD_OK;
 511:USB_DEVICE/Target/usbd_conf.c ****     break;
 512:USB_DEVICE/Target/usbd_conf.c ****     case HAL_ERROR :
 513:USB_DEVICE/Target/usbd_conf.c ****       usb_status = USBD_FAIL;
 514:USB_DEVICE/Target/usbd_conf.c ****     break;
 515:USB_DEVICE/Target/usbd_conf.c ****     case HAL_BUSY :
 516:USB_DEVICE/Target/usbd_conf.c ****       usb_status = USBD_BUSY;
 517:USB_DEVICE/Target/usbd_conf.c ****     break;
 518:USB_DEVICE/Target/usbd_conf.c ****     case HAL_TIMEOUT :
 519:USB_DEVICE/Target/usbd_conf.c ****       usb_status = USBD_FAIL;
 520:USB_DEVICE/Target/usbd_conf.c ****     break;
 521:USB_DEVICE/Target/usbd_conf.c ****     default :
 522:USB_DEVICE/Target/usbd_conf.c ****       usb_status = USBD_FAIL;
 523:USB_DEVICE/Target/usbd_conf.c ****     break;
 524:USB_DEVICE/Target/usbd_conf.c ****   }
 525:USB_DEVICE/Target/usbd_conf.c ****   return usb_status;
 526:USB_DEVICE/Target/usbd_conf.c **** }
 527:USB_DEVICE/Target/usbd_conf.c **** 
 528:USB_DEVICE/Target/usbd_conf.c **** /**
 529:USB_DEVICE/Target/usbd_conf.c ****   * @brief  Closes an endpoint of the low level driver.
 530:USB_DEVICE/Target/usbd_conf.c ****   * @param  pdev: Device handle
 531:USB_DEVICE/Target/usbd_conf.c ****   * @param  ep_addr: Endpoint number
 532:USB_DEVICE/Target/usbd_conf.c ****   * @retval USBD status
 533:USB_DEVICE/Target/usbd_conf.c ****   */
 534:USB_DEVICE/Target/usbd_conf.c **** USBD_StatusTypeDef USBD_LL_CloseEP(USBD_HandleTypeDef *pdev, uint8_t ep_addr)
 535:USB_DEVICE/Target/usbd_conf.c **** {
 536:USB_DEVICE/Target/usbd_conf.c ****   HAL_StatusTypeDef hal_status = HAL_OK;
 537:USB_DEVICE/Target/usbd_conf.c ****   USBD_StatusTypeDef usb_status = USBD_OK;
 538:USB_DEVICE/Target/usbd_conf.c **** 
 539:USB_DEVICE/Target/usbd_conf.c ****   hal_status = HAL_PCD_EP_Close(pdev->pData, ep_addr);
 540:USB_DEVICE/Target/usbd_conf.c **** 
 541:USB_DEVICE/Target/usbd_conf.c ****   switch (hal_status) {
 542:USB_DEVICE/Target/usbd_conf.c ****     case HAL_OK :
 543:USB_DEVICE/Target/usbd_conf.c ****       usb_status = USBD_OK;
 544:USB_DEVICE/Target/usbd_conf.c ****     break;
ARM GAS  C:\Temp\ccmvY2mT.s 			page 11


 545:USB_DEVICE/Target/usbd_conf.c ****     case HAL_ERROR :
 546:USB_DEVICE/Target/usbd_conf.c ****       usb_status = USBD_FAIL;
 547:USB_DEVICE/Target/usbd_conf.c ****     break;
 548:USB_DEVICE/Target/usbd_conf.c ****     case HAL_BUSY :
 549:USB_DEVICE/Target/usbd_conf.c ****       usb_status = USBD_BUSY;
 550:USB_DEVICE/Target/usbd_conf.c ****     break;
 551:USB_DEVICE/Target/usbd_conf.c ****     case HAL_TIMEOUT :
 552:USB_DEVICE/Target/usbd_conf.c ****       usb_status = USBD_FAIL;
 553:USB_DEVICE/Target/usbd_conf.c ****     break;
 554:USB_DEVICE/Target/usbd_conf.c ****     default :
 555:USB_DEVICE/Target/usbd_conf.c ****       usb_status = USBD_FAIL;
 556:USB_DEVICE/Target/usbd_conf.c ****     break;
 557:USB_DEVICE/Target/usbd_conf.c ****   }
 558:USB_DEVICE/Target/usbd_conf.c ****   return usb_status;
 559:USB_DEVICE/Target/usbd_conf.c **** }
 560:USB_DEVICE/Target/usbd_conf.c **** 
 561:USB_DEVICE/Target/usbd_conf.c **** /**
 562:USB_DEVICE/Target/usbd_conf.c ****   * @brief  Flushes an endpoint of the Low Level Driver.
 563:USB_DEVICE/Target/usbd_conf.c ****   * @param  pdev: Device handle
 564:USB_DEVICE/Target/usbd_conf.c ****   * @param  ep_addr: Endpoint number
 565:USB_DEVICE/Target/usbd_conf.c ****   * @retval USBD status
 566:USB_DEVICE/Target/usbd_conf.c ****   */
 567:USB_DEVICE/Target/usbd_conf.c **** USBD_StatusTypeDef USBD_LL_FlushEP(USBD_HandleTypeDef *pdev, uint8_t ep_addr)
 568:USB_DEVICE/Target/usbd_conf.c **** {
 569:USB_DEVICE/Target/usbd_conf.c ****   HAL_StatusTypeDef hal_status = HAL_OK;
 570:USB_DEVICE/Target/usbd_conf.c ****   USBD_StatusTypeDef usb_status = USBD_OK;
 571:USB_DEVICE/Target/usbd_conf.c **** 
 572:USB_DEVICE/Target/usbd_conf.c ****   hal_status = HAL_PCD_EP_Flush(pdev->pData, ep_addr);
 573:USB_DEVICE/Target/usbd_conf.c **** 
 574:USB_DEVICE/Target/usbd_conf.c ****   switch (hal_status) {
 575:USB_DEVICE/Target/usbd_conf.c ****     case HAL_OK :
 576:USB_DEVICE/Target/usbd_conf.c ****       usb_status = USBD_OK;
 577:USB_DEVICE/Target/usbd_conf.c ****     break;
 578:USB_DEVICE/Target/usbd_conf.c ****     case HAL_ERROR :
 579:USB_DEVICE/Target/usbd_conf.c ****       usb_status = USBD_FAIL;
 580:USB_DEVICE/Target/usbd_conf.c ****     break;
 581:USB_DEVICE/Target/usbd_conf.c ****     case HAL_BUSY :
 582:USB_DEVICE/Target/usbd_conf.c ****       usb_status = USBD_BUSY;
 583:USB_DEVICE/Target/usbd_conf.c ****     break;
 584:USB_DEVICE/Target/usbd_conf.c ****     case HAL_TIMEOUT :
 585:USB_DEVICE/Target/usbd_conf.c ****       usb_status = USBD_FAIL;
 586:USB_DEVICE/Target/usbd_conf.c ****     break;
 587:USB_DEVICE/Target/usbd_conf.c ****     default :
 588:USB_DEVICE/Target/usbd_conf.c ****       usb_status = USBD_FAIL;
 589:USB_DEVICE/Target/usbd_conf.c ****     break;
 590:USB_DEVICE/Target/usbd_conf.c ****   }
 591:USB_DEVICE/Target/usbd_conf.c ****   return usb_status;
 592:USB_DEVICE/Target/usbd_conf.c **** }
 593:USB_DEVICE/Target/usbd_conf.c **** 
 594:USB_DEVICE/Target/usbd_conf.c **** /**
 595:USB_DEVICE/Target/usbd_conf.c ****   * @brief  Sets a Stall condition on an endpoint of the Low Level Driver.
 596:USB_DEVICE/Target/usbd_conf.c ****   * @param  pdev: Device handle
 597:USB_DEVICE/Target/usbd_conf.c ****   * @param  ep_addr: Endpoint number
 598:USB_DEVICE/Target/usbd_conf.c ****   * @retval USBD status
 599:USB_DEVICE/Target/usbd_conf.c ****   */
 600:USB_DEVICE/Target/usbd_conf.c **** USBD_StatusTypeDef USBD_LL_StallEP(USBD_HandleTypeDef *pdev, uint8_t ep_addr)
 601:USB_DEVICE/Target/usbd_conf.c **** {
ARM GAS  C:\Temp\ccmvY2mT.s 			page 12


 602:USB_DEVICE/Target/usbd_conf.c ****   HAL_StatusTypeDef hal_status = HAL_OK;
 603:USB_DEVICE/Target/usbd_conf.c ****   USBD_StatusTypeDef usb_status = USBD_OK;
 604:USB_DEVICE/Target/usbd_conf.c **** 
 605:USB_DEVICE/Target/usbd_conf.c ****   hal_status = HAL_PCD_EP_SetStall(pdev->pData, ep_addr);
 606:USB_DEVICE/Target/usbd_conf.c **** 
 607:USB_DEVICE/Target/usbd_conf.c ****   switch (hal_status) {
 608:USB_DEVICE/Target/usbd_conf.c ****     case HAL_OK :
 609:USB_DEVICE/Target/usbd_conf.c ****       usb_status = USBD_OK;
 610:USB_DEVICE/Target/usbd_conf.c ****     break;
 611:USB_DEVICE/Target/usbd_conf.c ****     case HAL_ERROR :
 612:USB_DEVICE/Target/usbd_conf.c ****       usb_status = USBD_FAIL;
 613:USB_DEVICE/Target/usbd_conf.c ****     break;
 614:USB_DEVICE/Target/usbd_conf.c ****     case HAL_BUSY :
 615:USB_DEVICE/Target/usbd_conf.c ****       usb_status = USBD_BUSY;
 616:USB_DEVICE/Target/usbd_conf.c ****     break;
 617:USB_DEVICE/Target/usbd_conf.c ****     case HAL_TIMEOUT :
 618:USB_DEVICE/Target/usbd_conf.c ****       usb_status = USBD_FAIL;
 619:USB_DEVICE/Target/usbd_conf.c ****     break;
 620:USB_DEVICE/Target/usbd_conf.c ****     default :
 621:USB_DEVICE/Target/usbd_conf.c ****       usb_status = USBD_FAIL;
 622:USB_DEVICE/Target/usbd_conf.c ****     break;
 623:USB_DEVICE/Target/usbd_conf.c ****   }
 624:USB_DEVICE/Target/usbd_conf.c ****   return usb_status;
 625:USB_DEVICE/Target/usbd_conf.c **** }
 626:USB_DEVICE/Target/usbd_conf.c **** 
 627:USB_DEVICE/Target/usbd_conf.c **** /**
 628:USB_DEVICE/Target/usbd_conf.c ****   * @brief  Clears a Stall condition on an endpoint of the Low Level Driver.
 629:USB_DEVICE/Target/usbd_conf.c ****   * @param  pdev: Device handle
 630:USB_DEVICE/Target/usbd_conf.c ****   * @param  ep_addr: Endpoint number
 631:USB_DEVICE/Target/usbd_conf.c ****   * @retval USBD status
 632:USB_DEVICE/Target/usbd_conf.c ****   */
 633:USB_DEVICE/Target/usbd_conf.c **** USBD_StatusTypeDef USBD_LL_ClearStallEP(USBD_HandleTypeDef *pdev, uint8_t ep_addr)
 634:USB_DEVICE/Target/usbd_conf.c **** {
 635:USB_DEVICE/Target/usbd_conf.c ****   HAL_StatusTypeDef hal_status = HAL_OK;
 636:USB_DEVICE/Target/usbd_conf.c ****   USBD_StatusTypeDef usb_status = USBD_OK;
 637:USB_DEVICE/Target/usbd_conf.c **** 
 638:USB_DEVICE/Target/usbd_conf.c ****   hal_status = HAL_PCD_EP_ClrStall(pdev->pData, ep_addr);
 639:USB_DEVICE/Target/usbd_conf.c **** 
 640:USB_DEVICE/Target/usbd_conf.c ****   switch (hal_status) {
 641:USB_DEVICE/Target/usbd_conf.c ****     case HAL_OK :
 642:USB_DEVICE/Target/usbd_conf.c ****       usb_status = USBD_OK;
 643:USB_DEVICE/Target/usbd_conf.c ****     break;
 644:USB_DEVICE/Target/usbd_conf.c ****     case HAL_ERROR :
 645:USB_DEVICE/Target/usbd_conf.c ****       usb_status = USBD_FAIL;
 646:USB_DEVICE/Target/usbd_conf.c ****     break;
 647:USB_DEVICE/Target/usbd_conf.c ****     case HAL_BUSY :
 648:USB_DEVICE/Target/usbd_conf.c ****       usb_status = USBD_BUSY;
 649:USB_DEVICE/Target/usbd_conf.c ****     break;
 650:USB_DEVICE/Target/usbd_conf.c ****     case HAL_TIMEOUT :
 651:USB_DEVICE/Target/usbd_conf.c ****       usb_status = USBD_FAIL;
 652:USB_DEVICE/Target/usbd_conf.c ****     break;
 653:USB_DEVICE/Target/usbd_conf.c ****     default :
 654:USB_DEVICE/Target/usbd_conf.c ****       usb_status = USBD_FAIL;
 655:USB_DEVICE/Target/usbd_conf.c ****     break;
 656:USB_DEVICE/Target/usbd_conf.c ****   }
 657:USB_DEVICE/Target/usbd_conf.c ****   return usb_status;
 658:USB_DEVICE/Target/usbd_conf.c **** }
ARM GAS  C:\Temp\ccmvY2mT.s 			page 13


 659:USB_DEVICE/Target/usbd_conf.c **** 
 660:USB_DEVICE/Target/usbd_conf.c **** /**
 661:USB_DEVICE/Target/usbd_conf.c ****   * @brief  Returns Stall condition.
 662:USB_DEVICE/Target/usbd_conf.c ****   * @param  pdev: Device handle
 663:USB_DEVICE/Target/usbd_conf.c ****   * @param  ep_addr: Endpoint number
 664:USB_DEVICE/Target/usbd_conf.c ****   * @retval Stall (1: Yes, 0: No)
 665:USB_DEVICE/Target/usbd_conf.c ****   */
 666:USB_DEVICE/Target/usbd_conf.c **** uint8_t USBD_LL_IsStallEP(USBD_HandleTypeDef *pdev, uint8_t ep_addr)
 667:USB_DEVICE/Target/usbd_conf.c **** {
 668:USB_DEVICE/Target/usbd_conf.c ****   PCD_HandleTypeDef *hpcd = (PCD_HandleTypeDef*) pdev->pData;
 669:USB_DEVICE/Target/usbd_conf.c **** 
 670:USB_DEVICE/Target/usbd_conf.c ****   if((ep_addr & 0x80) == 0x80)
 671:USB_DEVICE/Target/usbd_conf.c ****   {
 672:USB_DEVICE/Target/usbd_conf.c ****     return hpcd->IN_ep[ep_addr & 0x7F].is_stall;
 673:USB_DEVICE/Target/usbd_conf.c ****   }
 674:USB_DEVICE/Target/usbd_conf.c ****   else
 675:USB_DEVICE/Target/usbd_conf.c ****   {
 676:USB_DEVICE/Target/usbd_conf.c ****     return hpcd->OUT_ep[ep_addr & 0x7F].is_stall;
 677:USB_DEVICE/Target/usbd_conf.c ****   }
 678:USB_DEVICE/Target/usbd_conf.c **** }
 679:USB_DEVICE/Target/usbd_conf.c **** 
 680:USB_DEVICE/Target/usbd_conf.c **** /**
 681:USB_DEVICE/Target/usbd_conf.c ****   * @brief  Assigns a USB address to the device.
 682:USB_DEVICE/Target/usbd_conf.c ****   * @param  pdev: Device handle
 683:USB_DEVICE/Target/usbd_conf.c ****   * @param  dev_addr: Device address
 684:USB_DEVICE/Target/usbd_conf.c ****   * @retval USBD status
 685:USB_DEVICE/Target/usbd_conf.c ****   */
 686:USB_DEVICE/Target/usbd_conf.c **** USBD_StatusTypeDef USBD_LL_SetUSBAddress(USBD_HandleTypeDef *pdev, uint8_t dev_addr)
 687:USB_DEVICE/Target/usbd_conf.c **** {
 688:USB_DEVICE/Target/usbd_conf.c ****   HAL_StatusTypeDef hal_status = HAL_OK;
 689:USB_DEVICE/Target/usbd_conf.c ****   USBD_StatusTypeDef usb_status = USBD_OK;
 690:USB_DEVICE/Target/usbd_conf.c **** 
 691:USB_DEVICE/Target/usbd_conf.c ****   hal_status = HAL_PCD_SetAddress(pdev->pData, dev_addr);
 692:USB_DEVICE/Target/usbd_conf.c **** 
 693:USB_DEVICE/Target/usbd_conf.c ****   switch (hal_status) {
 694:USB_DEVICE/Target/usbd_conf.c ****     case HAL_OK :
 695:USB_DEVICE/Target/usbd_conf.c ****       usb_status = USBD_OK;
 696:USB_DEVICE/Target/usbd_conf.c ****     break;
 697:USB_DEVICE/Target/usbd_conf.c ****     case HAL_ERROR :
 698:USB_DEVICE/Target/usbd_conf.c ****       usb_status = USBD_FAIL;
 699:USB_DEVICE/Target/usbd_conf.c ****     break;
 700:USB_DEVICE/Target/usbd_conf.c ****     case HAL_BUSY :
 701:USB_DEVICE/Target/usbd_conf.c ****       usb_status = USBD_BUSY;
 702:USB_DEVICE/Target/usbd_conf.c ****     break;
 703:USB_DEVICE/Target/usbd_conf.c ****     case HAL_TIMEOUT :
 704:USB_DEVICE/Target/usbd_conf.c ****       usb_status = USBD_FAIL;
 705:USB_DEVICE/Target/usbd_conf.c ****     break;
 706:USB_DEVICE/Target/usbd_conf.c ****     default :
 707:USB_DEVICE/Target/usbd_conf.c ****       usb_status = USBD_FAIL;
 708:USB_DEVICE/Target/usbd_conf.c ****     break;
 709:USB_DEVICE/Target/usbd_conf.c ****   }
 710:USB_DEVICE/Target/usbd_conf.c ****   return usb_status;
 711:USB_DEVICE/Target/usbd_conf.c **** }
 712:USB_DEVICE/Target/usbd_conf.c **** 
 713:USB_DEVICE/Target/usbd_conf.c **** /**
 714:USB_DEVICE/Target/usbd_conf.c ****   * @brief  Transmits data over an endpoint.
 715:USB_DEVICE/Target/usbd_conf.c ****   * @param  pdev: Device handle
ARM GAS  C:\Temp\ccmvY2mT.s 			page 14


 716:USB_DEVICE/Target/usbd_conf.c ****   * @param  ep_addr: Endpoint number
 717:USB_DEVICE/Target/usbd_conf.c ****   * @param  pbuf: Pointer to data to be sent
 718:USB_DEVICE/Target/usbd_conf.c ****   * @param  size: Data size
 719:USB_DEVICE/Target/usbd_conf.c ****   * @retval USBD status
 720:USB_DEVICE/Target/usbd_conf.c ****   */
 721:USB_DEVICE/Target/usbd_conf.c **** USBD_StatusTypeDef USBD_LL_Transmit(USBD_HandleTypeDef *pdev, uint8_t ep_addr, uint8_t *pbuf, uint3
 722:USB_DEVICE/Target/usbd_conf.c **** {
 723:USB_DEVICE/Target/usbd_conf.c ****   HAL_StatusTypeDef hal_status = HAL_OK;
 724:USB_DEVICE/Target/usbd_conf.c ****   USBD_StatusTypeDef usb_status = USBD_OK;
 725:USB_DEVICE/Target/usbd_conf.c **** 
 726:USB_DEVICE/Target/usbd_conf.c ****   hal_status = HAL_PCD_EP_Transmit(pdev->pData, ep_addr, pbuf, size);
 727:USB_DEVICE/Target/usbd_conf.c **** 
 728:USB_DEVICE/Target/usbd_conf.c ****   switch (hal_status) {
 729:USB_DEVICE/Target/usbd_conf.c ****     case HAL_OK :
 730:USB_DEVICE/Target/usbd_conf.c ****       usb_status = USBD_OK;
 731:USB_DEVICE/Target/usbd_conf.c ****     break;
 732:USB_DEVICE/Target/usbd_conf.c ****     case HAL_ERROR :
 733:USB_DEVICE/Target/usbd_conf.c ****       usb_status = USBD_FAIL;
 734:USB_DEVICE/Target/usbd_conf.c ****     break;
 735:USB_DEVICE/Target/usbd_conf.c ****     case HAL_BUSY :
 736:USB_DEVICE/Target/usbd_conf.c ****       usb_status = USBD_BUSY;
 737:USB_DEVICE/Target/usbd_conf.c ****     break;
 738:USB_DEVICE/Target/usbd_conf.c ****     case HAL_TIMEOUT :
 739:USB_DEVICE/Target/usbd_conf.c ****       usb_status = USBD_FAIL;
 740:USB_DEVICE/Target/usbd_conf.c ****     break;
 741:USB_DEVICE/Target/usbd_conf.c ****     default :
 742:USB_DEVICE/Target/usbd_conf.c ****       usb_status = USBD_FAIL;
 743:USB_DEVICE/Target/usbd_conf.c ****     break;
 744:USB_DEVICE/Target/usbd_conf.c ****   }
 745:USB_DEVICE/Target/usbd_conf.c ****   return usb_status;
 746:USB_DEVICE/Target/usbd_conf.c **** }
 747:USB_DEVICE/Target/usbd_conf.c **** 
 748:USB_DEVICE/Target/usbd_conf.c **** /**
 749:USB_DEVICE/Target/usbd_conf.c ****   * @brief  Prepares an endpoint for reception.
 750:USB_DEVICE/Target/usbd_conf.c ****   * @param  pdev: Device handle
 751:USB_DEVICE/Target/usbd_conf.c ****   * @param  ep_addr: Endpoint number
 752:USB_DEVICE/Target/usbd_conf.c ****   * @param  pbuf: Pointer to data to be received
 753:USB_DEVICE/Target/usbd_conf.c ****   * @param  size: Data size
 754:USB_DEVICE/Target/usbd_conf.c ****   * @retval USBD status
 755:USB_DEVICE/Target/usbd_conf.c ****   */
 756:USB_DEVICE/Target/usbd_conf.c **** USBD_StatusTypeDef USBD_LL_PrepareReceive(USBD_HandleTypeDef *pdev, uint8_t ep_addr, uint8_t *pbuf,
 757:USB_DEVICE/Target/usbd_conf.c **** {
 758:USB_DEVICE/Target/usbd_conf.c ****   HAL_StatusTypeDef hal_status = HAL_OK;
 759:USB_DEVICE/Target/usbd_conf.c ****   USBD_StatusTypeDef usb_status = USBD_OK;
 760:USB_DEVICE/Target/usbd_conf.c **** 
 761:USB_DEVICE/Target/usbd_conf.c ****   hal_status = HAL_PCD_EP_Receive(pdev->pData, ep_addr, pbuf, size);
 762:USB_DEVICE/Target/usbd_conf.c **** 
 763:USB_DEVICE/Target/usbd_conf.c ****   switch (hal_status) {
 764:USB_DEVICE/Target/usbd_conf.c ****     case HAL_OK :
 765:USB_DEVICE/Target/usbd_conf.c ****       usb_status = USBD_OK;
 766:USB_DEVICE/Target/usbd_conf.c ****     break;
 767:USB_DEVICE/Target/usbd_conf.c ****     case HAL_ERROR :
 768:USB_DEVICE/Target/usbd_conf.c ****       usb_status = USBD_FAIL;
 769:USB_DEVICE/Target/usbd_conf.c ****     break;
 770:USB_DEVICE/Target/usbd_conf.c ****     case HAL_BUSY :
 771:USB_DEVICE/Target/usbd_conf.c ****       usb_status = USBD_BUSY;
 772:USB_DEVICE/Target/usbd_conf.c ****     break;
ARM GAS  C:\Temp\ccmvY2mT.s 			page 15


 773:USB_DEVICE/Target/usbd_conf.c ****     case HAL_TIMEOUT :
 774:USB_DEVICE/Target/usbd_conf.c ****       usb_status = USBD_FAIL;
 775:USB_DEVICE/Target/usbd_conf.c ****     break;
 776:USB_DEVICE/Target/usbd_conf.c ****     default :
 777:USB_DEVICE/Target/usbd_conf.c ****       usb_status = USBD_FAIL;
 778:USB_DEVICE/Target/usbd_conf.c ****     break;
 779:USB_DEVICE/Target/usbd_conf.c ****   }
 780:USB_DEVICE/Target/usbd_conf.c ****   return usb_status;
 781:USB_DEVICE/Target/usbd_conf.c **** }
 782:USB_DEVICE/Target/usbd_conf.c **** 
 783:USB_DEVICE/Target/usbd_conf.c **** /**
 784:USB_DEVICE/Target/usbd_conf.c ****   * @brief  Returns the last transferred packet size.
 785:USB_DEVICE/Target/usbd_conf.c ****   * @param  pdev: Device handle
 786:USB_DEVICE/Target/usbd_conf.c ****   * @param  ep_addr: Endpoint number
 787:USB_DEVICE/Target/usbd_conf.c ****   * @retval Received Data Size
 788:USB_DEVICE/Target/usbd_conf.c ****   */
 789:USB_DEVICE/Target/usbd_conf.c **** uint32_t USBD_LL_GetRxDataSize(USBD_HandleTypeDef *pdev, uint8_t ep_addr)
 790:USB_DEVICE/Target/usbd_conf.c **** {
 791:USB_DEVICE/Target/usbd_conf.c ****   return HAL_PCD_EP_GetRxCount((PCD_HandleTypeDef*) pdev->pData, ep_addr);
 792:USB_DEVICE/Target/usbd_conf.c **** }
 793:USB_DEVICE/Target/usbd_conf.c **** 
 794:USB_DEVICE/Target/usbd_conf.c **** /**
 795:USB_DEVICE/Target/usbd_conf.c ****   * @brief  Send LPM message to user layer
 796:USB_DEVICE/Target/usbd_conf.c ****   * @param  hpcd: PCD handle
 797:USB_DEVICE/Target/usbd_conf.c ****   * @param  msg: LPM message
 798:USB_DEVICE/Target/usbd_conf.c ****   * @retval None
 799:USB_DEVICE/Target/usbd_conf.c ****   */
 800:USB_DEVICE/Target/usbd_conf.c **** void HAL_PCDEx_LPM_Callback(PCD_HandleTypeDef *hpcd, PCD_LPM_MsgTypeDef msg)
 801:USB_DEVICE/Target/usbd_conf.c **** {
 802:USB_DEVICE/Target/usbd_conf.c ****   switch (msg)
 803:USB_DEVICE/Target/usbd_conf.c ****   {
 804:USB_DEVICE/Target/usbd_conf.c ****   case PCD_LPM_L0_ACTIVE:
 805:USB_DEVICE/Target/usbd_conf.c ****     if (hpcd->Init.low_power_enable)
 806:USB_DEVICE/Target/usbd_conf.c ****     {
 807:USB_DEVICE/Target/usbd_conf.c ****       SystemClockConfig_Resume();
 808:USB_DEVICE/Target/usbd_conf.c **** 
 809:USB_DEVICE/Target/usbd_conf.c ****       /* Reset SLEEPDEEP bit of Cortex System Control Register. */
 810:USB_DEVICE/Target/usbd_conf.c ****       SCB->SCR &= (uint32_t)~((uint32_t)(SCB_SCR_SLEEPDEEP_Msk | SCB_SCR_SLEEPONEXIT_Msk));
 811:USB_DEVICE/Target/usbd_conf.c ****     }
 812:USB_DEVICE/Target/usbd_conf.c ****     __HAL_PCD_UNGATE_PHYCLOCK(hpcd);
 813:USB_DEVICE/Target/usbd_conf.c ****     USBD_LL_Resume(hpcd->pData);
 814:USB_DEVICE/Target/usbd_conf.c ****     break;
 815:USB_DEVICE/Target/usbd_conf.c **** 
 816:USB_DEVICE/Target/usbd_conf.c ****   case PCD_LPM_L1_ACTIVE:
 817:USB_DEVICE/Target/usbd_conf.c ****     __HAL_PCD_GATE_PHYCLOCK(hpcd);
 818:USB_DEVICE/Target/usbd_conf.c ****     USBD_LL_Suspend(hpcd->pData);
 819:USB_DEVICE/Target/usbd_conf.c **** 
 820:USB_DEVICE/Target/usbd_conf.c ****     /* Enter in STOP mode. */
 821:USB_DEVICE/Target/usbd_conf.c ****     if (hpcd->Init.low_power_enable)
 822:USB_DEVICE/Target/usbd_conf.c ****     {
 823:USB_DEVICE/Target/usbd_conf.c ****       /* Set SLEEPDEEP bit and SleepOnExit of Cortex System Control Register. */
 824:USB_DEVICE/Target/usbd_conf.c ****       SCB->SCR |= (uint32_t)((uint32_t)(SCB_SCR_SLEEPDEEP_Msk | SCB_SCR_SLEEPONEXIT_Msk));
 825:USB_DEVICE/Target/usbd_conf.c ****     }
 826:USB_DEVICE/Target/usbd_conf.c ****     break;
 827:USB_DEVICE/Target/usbd_conf.c ****   }
 828:USB_DEVICE/Target/usbd_conf.c **** }
 829:USB_DEVICE/Target/usbd_conf.c **** 
ARM GAS  C:\Temp\ccmvY2mT.s 			page 16


 830:USB_DEVICE/Target/usbd_conf.c **** /**
 831:USB_DEVICE/Target/usbd_conf.c ****   * @brief  Delays routine for the USB Device Library.
 832:USB_DEVICE/Target/usbd_conf.c ****   * @param  Delay: Delay in ms
 833:USB_DEVICE/Target/usbd_conf.c ****   * @retval None
 834:USB_DEVICE/Target/usbd_conf.c ****   */
 835:USB_DEVICE/Target/usbd_conf.c **** void USBD_LL_Delay(uint32_t Delay)
 836:USB_DEVICE/Target/usbd_conf.c **** {
 837:USB_DEVICE/Target/usbd_conf.c ****   HAL_Delay(Delay);
 838:USB_DEVICE/Target/usbd_conf.c **** }
 839:USB_DEVICE/Target/usbd_conf.c **** 
 840:USB_DEVICE/Target/usbd_conf.c **** /**
 841:USB_DEVICE/Target/usbd_conf.c ****   * @brief  Static single allocation.
 842:USB_DEVICE/Target/usbd_conf.c ****   * @param  size: Size of allocated memory
 843:USB_DEVICE/Target/usbd_conf.c ****   * @retval None
 844:USB_DEVICE/Target/usbd_conf.c ****   */
 845:USB_DEVICE/Target/usbd_conf.c **** void *USBD_static_malloc(uint32_t size)
 846:USB_DEVICE/Target/usbd_conf.c **** {
 847:USB_DEVICE/Target/usbd_conf.c ****   static uint32_t mem[(sizeof(USBD_CDC_HandleTypeDef)/4)+1];/* On 32-bit boundary */
 848:USB_DEVICE/Target/usbd_conf.c ****   return mem;
 849:USB_DEVICE/Target/usbd_conf.c **** }
 850:USB_DEVICE/Target/usbd_conf.c **** 
 851:USB_DEVICE/Target/usbd_conf.c **** /**
 852:USB_DEVICE/Target/usbd_conf.c ****   * @brief  Dummy memory free
 853:USB_DEVICE/Target/usbd_conf.c ****   * @param  p: Pointer to allocated  memory address
 854:USB_DEVICE/Target/usbd_conf.c ****   * @retval None
 855:USB_DEVICE/Target/usbd_conf.c ****   */
 856:USB_DEVICE/Target/usbd_conf.c **** void USBD_static_free(void *p)
 857:USB_DEVICE/Target/usbd_conf.c **** {
 858:USB_DEVICE/Target/usbd_conf.c **** 
 859:USB_DEVICE/Target/usbd_conf.c **** }
 860:USB_DEVICE/Target/usbd_conf.c **** 
 861:USB_DEVICE/Target/usbd_conf.c **** /* USER CODE BEGIN 5 */
 862:USB_DEVICE/Target/usbd_conf.c **** /**
 863:USB_DEVICE/Target/usbd_conf.c ****   * @brief  Configures system clock after wake-up from USB resume callBack:
 864:USB_DEVICE/Target/usbd_conf.c ****   *         enable HSI, PLL and select PLL as system clock source.
 865:USB_DEVICE/Target/usbd_conf.c ****   * @retval None
 866:USB_DEVICE/Target/usbd_conf.c ****   */
 867:USB_DEVICE/Target/usbd_conf.c **** static void SystemClockConfig_Resume(void)
 868:USB_DEVICE/Target/usbd_conf.c **** {
  28              		.loc 1 868 1 view -0
  29              		.cfi_startproc
  30              		@ args = 0, pretend = 0, frame = 0
  31              		@ frame_needed = 0, uses_anonymous_args = 0
  32 0000 08B5     		push	{r3, lr}
  33              		.cfi_def_cfa_offset 8
  34              		.cfi_offset 3, -8
  35              		.cfi_offset 14, -4
 869:USB_DEVICE/Target/usbd_conf.c ****   SystemClock_Config();
  36              		.loc 1 869 3 view .LVU1
  37 0002 FFF7FEFF 		bl	SystemClock_Config
  38              	.LVL0:
 870:USB_DEVICE/Target/usbd_conf.c **** }
  39              		.loc 1 870 1 is_stmt 0 view .LVU2
  40 0006 08BD     		pop	{r3, pc}
  41              		.cfi_endproc
  42              	.LFE940:
  44              		.section	.text.HAL_PCD_MspInit,"ax",%progbits
ARM GAS  C:\Temp\ccmvY2mT.s 			page 17


  45              		.align	1
  46              		.global	HAL_PCD_MspInit
  47              		.syntax unified
  48              		.thumb
  49              		.thumb_func
  51              	HAL_PCD_MspInit:
  52              	.LVL1:
  53              	.LFB909:
  70:USB_DEVICE/Target/usbd_conf.c ****   GPIO_InitTypeDef GPIO_InitStruct = {0};
  54              		.loc 1 70 1 is_stmt 1 view -0
  55              		.cfi_startproc
  56              		@ args = 0, pretend = 0, frame = 32
  57              		@ frame_needed = 0, uses_anonymous_args = 0
  70:USB_DEVICE/Target/usbd_conf.c ****   GPIO_InitTypeDef GPIO_InitStruct = {0};
  58              		.loc 1 70 1 is_stmt 0 view .LVU4
  59 0000 10B5     		push	{r4, lr}
  60              		.cfi_def_cfa_offset 8
  61              		.cfi_offset 4, -8
  62              		.cfi_offset 14, -4
  63 0002 88B0     		sub	sp, sp, #32
  64              		.cfi_def_cfa_offset 40
  71:USB_DEVICE/Target/usbd_conf.c ****   if(pcdHandle->Instance==USB_OTG_FS)
  65              		.loc 1 71 3 is_stmt 1 view .LVU5
  71:USB_DEVICE/Target/usbd_conf.c ****   if(pcdHandle->Instance==USB_OTG_FS)
  66              		.loc 1 71 20 is_stmt 0 view .LVU6
  67 0004 0023     		movs	r3, #0
  68 0006 0393     		str	r3, [sp, #12]
  69 0008 0493     		str	r3, [sp, #16]
  70 000a 0593     		str	r3, [sp, #20]
  71 000c 0693     		str	r3, [sp, #24]
  72 000e 0793     		str	r3, [sp, #28]
  72:USB_DEVICE/Target/usbd_conf.c ****   {
  73              		.loc 1 72 3 is_stmt 1 view .LVU7
  72:USB_DEVICE/Target/usbd_conf.c ****   {
  74              		.loc 1 72 15 is_stmt 0 view .LVU8
  75 0010 0368     		ldr	r3, [r0]
  72:USB_DEVICE/Target/usbd_conf.c ****   {
  76              		.loc 1 72 5 view .LVU9
  77 0012 B3F1A04F 		cmp	r3, #1342177280
  78 0016 01D0     		beq	.L8
  79              	.LVL2:
  80              	.L3:
 113:USB_DEVICE/Target/usbd_conf.c **** 
  81              		.loc 1 113 1 view .LVU10
  82 0018 08B0     		add	sp, sp, #32
  83              		.cfi_remember_state
  84              		.cfi_def_cfa_offset 8
  85              		@ sp needed
  86 001a 10BD     		pop	{r4, pc}
  87              	.LVL3:
  88              	.L8:
  89              		.cfi_restore_state
  77:USB_DEVICE/Target/usbd_conf.c **** 
  90              		.loc 1 77 5 is_stmt 1 view .LVU11
  91              	.LBB7:
  92              	.LBI7:
  93              		.file 2 "Drivers/STM32L4xx_HAL_Driver/Inc/stm32l4xx_ll_rcc.h"
ARM GAS  C:\Temp\ccmvY2mT.s 			page 18


   1:Drivers/STM32L4xx_HAL_Driver/Inc/stm32l4xx_ll_rcc.h **** /**
   2:Drivers/STM32L4xx_HAL_Driver/Inc/stm32l4xx_ll_rcc.h ****   ******************************************************************************
   3:Drivers/STM32L4xx_HAL_Driver/Inc/stm32l4xx_ll_rcc.h ****   * @file    stm32l4xx_ll_rcc.h
   4:Drivers/STM32L4xx_HAL_Driver/Inc/stm32l4xx_ll_rcc.h ****   * @author  MCD Application Team
   5:Drivers/STM32L4xx_HAL_Driver/Inc/stm32l4xx_ll_rcc.h ****   * @brief   Header file of RCC LL module.
   6:Drivers/STM32L4xx_HAL_Driver/Inc/stm32l4xx_ll_rcc.h ****   ******************************************************************************
   7:Drivers/STM32L4xx_HAL_Driver/Inc/stm32l4xx_ll_rcc.h ****   * @attention
   8:Drivers/STM32L4xx_HAL_Driver/Inc/stm32l4xx_ll_rcc.h ****   *
   9:Drivers/STM32L4xx_HAL_Driver/Inc/stm32l4xx_ll_rcc.h ****   * Copyright (c) 2017 STMicroelectronics.
  10:Drivers/STM32L4xx_HAL_Driver/Inc/stm32l4xx_ll_rcc.h ****   * All rights reserved.
  11:Drivers/STM32L4xx_HAL_Driver/Inc/stm32l4xx_ll_rcc.h ****   *
  12:Drivers/STM32L4xx_HAL_Driver/Inc/stm32l4xx_ll_rcc.h ****   * This software is licensed under terms that can be found in the LICENSE file in
  13:Drivers/STM32L4xx_HAL_Driver/Inc/stm32l4xx_ll_rcc.h ****   * the root directory of this software component.
  14:Drivers/STM32L4xx_HAL_Driver/Inc/stm32l4xx_ll_rcc.h ****   * If no LICENSE file comes with this software, it is provided AS-IS.
  15:Drivers/STM32L4xx_HAL_Driver/Inc/stm32l4xx_ll_rcc.h ****   ******************************************************************************
  16:Drivers/STM32L4xx_HAL_Driver/Inc/stm32l4xx_ll_rcc.h ****   */
  17:Drivers/STM32L4xx_HAL_Driver/Inc/stm32l4xx_ll_rcc.h **** 
  18:Drivers/STM32L4xx_HAL_Driver/Inc/stm32l4xx_ll_rcc.h **** /* Define to prevent recursive inclusion -------------------------------------*/
  19:Drivers/STM32L4xx_HAL_Driver/Inc/stm32l4xx_ll_rcc.h **** #ifndef STM32L4xx_LL_RCC_H
  20:Drivers/STM32L4xx_HAL_Driver/Inc/stm32l4xx_ll_rcc.h **** #define STM32L4xx_LL_RCC_H
  21:Drivers/STM32L4xx_HAL_Driver/Inc/stm32l4xx_ll_rcc.h **** 
  22:Drivers/STM32L4xx_HAL_Driver/Inc/stm32l4xx_ll_rcc.h **** #ifdef __cplusplus
  23:Drivers/STM32L4xx_HAL_Driver/Inc/stm32l4xx_ll_rcc.h **** extern "C" {
  24:Drivers/STM32L4xx_HAL_Driver/Inc/stm32l4xx_ll_rcc.h **** #endif
  25:Drivers/STM32L4xx_HAL_Driver/Inc/stm32l4xx_ll_rcc.h **** 
  26:Drivers/STM32L4xx_HAL_Driver/Inc/stm32l4xx_ll_rcc.h **** /* Includes ------------------------------------------------------------------*/
  27:Drivers/STM32L4xx_HAL_Driver/Inc/stm32l4xx_ll_rcc.h **** #include "stm32l4xx.h"
  28:Drivers/STM32L4xx_HAL_Driver/Inc/stm32l4xx_ll_rcc.h **** 
  29:Drivers/STM32L4xx_HAL_Driver/Inc/stm32l4xx_ll_rcc.h **** /** @addtogroup STM32L4xx_LL_Driver
  30:Drivers/STM32L4xx_HAL_Driver/Inc/stm32l4xx_ll_rcc.h ****   * @{
  31:Drivers/STM32L4xx_HAL_Driver/Inc/stm32l4xx_ll_rcc.h ****   */
  32:Drivers/STM32L4xx_HAL_Driver/Inc/stm32l4xx_ll_rcc.h **** 
  33:Drivers/STM32L4xx_HAL_Driver/Inc/stm32l4xx_ll_rcc.h **** #if defined(RCC)
  34:Drivers/STM32L4xx_HAL_Driver/Inc/stm32l4xx_ll_rcc.h **** 
  35:Drivers/STM32L4xx_HAL_Driver/Inc/stm32l4xx_ll_rcc.h **** /** @defgroup RCC_LL RCC
  36:Drivers/STM32L4xx_HAL_Driver/Inc/stm32l4xx_ll_rcc.h ****   * @{
  37:Drivers/STM32L4xx_HAL_Driver/Inc/stm32l4xx_ll_rcc.h ****   */
  38:Drivers/STM32L4xx_HAL_Driver/Inc/stm32l4xx_ll_rcc.h **** 
  39:Drivers/STM32L4xx_HAL_Driver/Inc/stm32l4xx_ll_rcc.h **** /* Private types -------------------------------------------------------------*/
  40:Drivers/STM32L4xx_HAL_Driver/Inc/stm32l4xx_ll_rcc.h **** /* Private variables ---------------------------------------------------------*/
  41:Drivers/STM32L4xx_HAL_Driver/Inc/stm32l4xx_ll_rcc.h **** /* Private constants ---------------------------------------------------------*/
  42:Drivers/STM32L4xx_HAL_Driver/Inc/stm32l4xx_ll_rcc.h **** /** @defgroup RCC_LL_Private_Constants RCC Private Constants
  43:Drivers/STM32L4xx_HAL_Driver/Inc/stm32l4xx_ll_rcc.h ****   * @{
  44:Drivers/STM32L4xx_HAL_Driver/Inc/stm32l4xx_ll_rcc.h ****   */
  45:Drivers/STM32L4xx_HAL_Driver/Inc/stm32l4xx_ll_rcc.h **** /* Defines used to perform offsets*/
  46:Drivers/STM32L4xx_HAL_Driver/Inc/stm32l4xx_ll_rcc.h **** /* Offset used to access to RCC_CCIPR and RCC_CCIPR2 registers */
  47:Drivers/STM32L4xx_HAL_Driver/Inc/stm32l4xx_ll_rcc.h **** #define RCC_OFFSET_CCIPR        0U
  48:Drivers/STM32L4xx_HAL_Driver/Inc/stm32l4xx_ll_rcc.h **** #define RCC_OFFSET_CCIPR2       0x14U
  49:Drivers/STM32L4xx_HAL_Driver/Inc/stm32l4xx_ll_rcc.h **** 
  50:Drivers/STM32L4xx_HAL_Driver/Inc/stm32l4xx_ll_rcc.h **** /**
  51:Drivers/STM32L4xx_HAL_Driver/Inc/stm32l4xx_ll_rcc.h ****   * @}
  52:Drivers/STM32L4xx_HAL_Driver/Inc/stm32l4xx_ll_rcc.h ****   */
  53:Drivers/STM32L4xx_HAL_Driver/Inc/stm32l4xx_ll_rcc.h **** 
  54:Drivers/STM32L4xx_HAL_Driver/Inc/stm32l4xx_ll_rcc.h **** /* Private macros ------------------------------------------------------------*/
  55:Drivers/STM32L4xx_HAL_Driver/Inc/stm32l4xx_ll_rcc.h **** #if defined(USE_FULL_LL_DRIVER)
  56:Drivers/STM32L4xx_HAL_Driver/Inc/stm32l4xx_ll_rcc.h **** /** @defgroup RCC_LL_Private_Macros RCC Private Macros
  57:Drivers/STM32L4xx_HAL_Driver/Inc/stm32l4xx_ll_rcc.h ****   * @{
ARM GAS  C:\Temp\ccmvY2mT.s 			page 19


  58:Drivers/STM32L4xx_HAL_Driver/Inc/stm32l4xx_ll_rcc.h ****   */
  59:Drivers/STM32L4xx_HAL_Driver/Inc/stm32l4xx_ll_rcc.h **** /**
  60:Drivers/STM32L4xx_HAL_Driver/Inc/stm32l4xx_ll_rcc.h ****   * @}
  61:Drivers/STM32L4xx_HAL_Driver/Inc/stm32l4xx_ll_rcc.h ****   */
  62:Drivers/STM32L4xx_HAL_Driver/Inc/stm32l4xx_ll_rcc.h **** #endif /*USE_FULL_LL_DRIVER*/
  63:Drivers/STM32L4xx_HAL_Driver/Inc/stm32l4xx_ll_rcc.h **** 
  64:Drivers/STM32L4xx_HAL_Driver/Inc/stm32l4xx_ll_rcc.h **** /* Exported types ------------------------------------------------------------*/
  65:Drivers/STM32L4xx_HAL_Driver/Inc/stm32l4xx_ll_rcc.h **** #if defined(USE_FULL_LL_DRIVER)
  66:Drivers/STM32L4xx_HAL_Driver/Inc/stm32l4xx_ll_rcc.h **** /** @defgroup RCC_LL_Exported_Types RCC Exported Types
  67:Drivers/STM32L4xx_HAL_Driver/Inc/stm32l4xx_ll_rcc.h ****   * @{
  68:Drivers/STM32L4xx_HAL_Driver/Inc/stm32l4xx_ll_rcc.h ****   */
  69:Drivers/STM32L4xx_HAL_Driver/Inc/stm32l4xx_ll_rcc.h **** 
  70:Drivers/STM32L4xx_HAL_Driver/Inc/stm32l4xx_ll_rcc.h **** /** @defgroup LL_ES_CLOCK_FREQ Clocks Frequency Structure
  71:Drivers/STM32L4xx_HAL_Driver/Inc/stm32l4xx_ll_rcc.h ****   * @{
  72:Drivers/STM32L4xx_HAL_Driver/Inc/stm32l4xx_ll_rcc.h ****   */
  73:Drivers/STM32L4xx_HAL_Driver/Inc/stm32l4xx_ll_rcc.h **** 
  74:Drivers/STM32L4xx_HAL_Driver/Inc/stm32l4xx_ll_rcc.h **** /**
  75:Drivers/STM32L4xx_HAL_Driver/Inc/stm32l4xx_ll_rcc.h ****   * @brief  RCC Clocks Frequency Structure
  76:Drivers/STM32L4xx_HAL_Driver/Inc/stm32l4xx_ll_rcc.h ****   */
  77:Drivers/STM32L4xx_HAL_Driver/Inc/stm32l4xx_ll_rcc.h **** typedef struct
  78:Drivers/STM32L4xx_HAL_Driver/Inc/stm32l4xx_ll_rcc.h **** {
  79:Drivers/STM32L4xx_HAL_Driver/Inc/stm32l4xx_ll_rcc.h ****   uint32_t SYSCLK_Frequency;        /*!< SYSCLK clock frequency */
  80:Drivers/STM32L4xx_HAL_Driver/Inc/stm32l4xx_ll_rcc.h ****   uint32_t HCLK_Frequency;          /*!< HCLK clock frequency */
  81:Drivers/STM32L4xx_HAL_Driver/Inc/stm32l4xx_ll_rcc.h ****   uint32_t PCLK1_Frequency;         /*!< PCLK1 clock frequency */
  82:Drivers/STM32L4xx_HAL_Driver/Inc/stm32l4xx_ll_rcc.h ****   uint32_t PCLK2_Frequency;         /*!< PCLK2 clock frequency */
  83:Drivers/STM32L4xx_HAL_Driver/Inc/stm32l4xx_ll_rcc.h **** } LL_RCC_ClocksTypeDef;
  84:Drivers/STM32L4xx_HAL_Driver/Inc/stm32l4xx_ll_rcc.h **** 
  85:Drivers/STM32L4xx_HAL_Driver/Inc/stm32l4xx_ll_rcc.h **** /**
  86:Drivers/STM32L4xx_HAL_Driver/Inc/stm32l4xx_ll_rcc.h ****   * @}
  87:Drivers/STM32L4xx_HAL_Driver/Inc/stm32l4xx_ll_rcc.h ****   */
  88:Drivers/STM32L4xx_HAL_Driver/Inc/stm32l4xx_ll_rcc.h **** 
  89:Drivers/STM32L4xx_HAL_Driver/Inc/stm32l4xx_ll_rcc.h **** /**
  90:Drivers/STM32L4xx_HAL_Driver/Inc/stm32l4xx_ll_rcc.h ****   * @}
  91:Drivers/STM32L4xx_HAL_Driver/Inc/stm32l4xx_ll_rcc.h ****   */
  92:Drivers/STM32L4xx_HAL_Driver/Inc/stm32l4xx_ll_rcc.h **** #endif /* USE_FULL_LL_DRIVER */
  93:Drivers/STM32L4xx_HAL_Driver/Inc/stm32l4xx_ll_rcc.h **** 
  94:Drivers/STM32L4xx_HAL_Driver/Inc/stm32l4xx_ll_rcc.h **** /* Exported constants --------------------------------------------------------*/
  95:Drivers/STM32L4xx_HAL_Driver/Inc/stm32l4xx_ll_rcc.h **** /** @defgroup RCC_LL_Exported_Constants RCC Exported Constants
  96:Drivers/STM32L4xx_HAL_Driver/Inc/stm32l4xx_ll_rcc.h ****   * @{
  97:Drivers/STM32L4xx_HAL_Driver/Inc/stm32l4xx_ll_rcc.h ****   */
  98:Drivers/STM32L4xx_HAL_Driver/Inc/stm32l4xx_ll_rcc.h **** 
  99:Drivers/STM32L4xx_HAL_Driver/Inc/stm32l4xx_ll_rcc.h **** /** @defgroup RCC_LL_EC_OSC_VALUES Oscillator Values adaptation
 100:Drivers/STM32L4xx_HAL_Driver/Inc/stm32l4xx_ll_rcc.h ****   * @brief    Defines used to adapt values of different oscillators
 101:Drivers/STM32L4xx_HAL_Driver/Inc/stm32l4xx_ll_rcc.h ****   * @note     These values could be modified in the user environment according to
 102:Drivers/STM32L4xx_HAL_Driver/Inc/stm32l4xx_ll_rcc.h ****   *           HW set-up.
 103:Drivers/STM32L4xx_HAL_Driver/Inc/stm32l4xx_ll_rcc.h ****   * @{
 104:Drivers/STM32L4xx_HAL_Driver/Inc/stm32l4xx_ll_rcc.h ****   */
 105:Drivers/STM32L4xx_HAL_Driver/Inc/stm32l4xx_ll_rcc.h **** #if !defined  (HSE_VALUE)
 106:Drivers/STM32L4xx_HAL_Driver/Inc/stm32l4xx_ll_rcc.h **** #define HSE_VALUE    8000000U   /*!< Value of the HSE oscillator in Hz */
 107:Drivers/STM32L4xx_HAL_Driver/Inc/stm32l4xx_ll_rcc.h **** #endif /* HSE_VALUE */
 108:Drivers/STM32L4xx_HAL_Driver/Inc/stm32l4xx_ll_rcc.h **** 
 109:Drivers/STM32L4xx_HAL_Driver/Inc/stm32l4xx_ll_rcc.h **** #if !defined  (HSI_VALUE)
 110:Drivers/STM32L4xx_HAL_Driver/Inc/stm32l4xx_ll_rcc.h **** #define HSI_VALUE    16000000U  /*!< Value of the HSI oscillator in Hz */
 111:Drivers/STM32L4xx_HAL_Driver/Inc/stm32l4xx_ll_rcc.h **** #endif /* HSI_VALUE */
 112:Drivers/STM32L4xx_HAL_Driver/Inc/stm32l4xx_ll_rcc.h **** 
 113:Drivers/STM32L4xx_HAL_Driver/Inc/stm32l4xx_ll_rcc.h **** #if !defined  (LSE_VALUE)
 114:Drivers/STM32L4xx_HAL_Driver/Inc/stm32l4xx_ll_rcc.h **** #define LSE_VALUE    32768U     /*!< Value of the LSE oscillator in Hz */
ARM GAS  C:\Temp\ccmvY2mT.s 			page 20


 115:Drivers/STM32L4xx_HAL_Driver/Inc/stm32l4xx_ll_rcc.h **** #endif /* LSE_VALUE */
 116:Drivers/STM32L4xx_HAL_Driver/Inc/stm32l4xx_ll_rcc.h **** 
 117:Drivers/STM32L4xx_HAL_Driver/Inc/stm32l4xx_ll_rcc.h **** #if !defined  (LSI_VALUE)
 118:Drivers/STM32L4xx_HAL_Driver/Inc/stm32l4xx_ll_rcc.h **** #define LSI_VALUE    32000U     /*!< Value of the LSI oscillator in Hz */
 119:Drivers/STM32L4xx_HAL_Driver/Inc/stm32l4xx_ll_rcc.h **** #endif /* LSI_VALUE */
 120:Drivers/STM32L4xx_HAL_Driver/Inc/stm32l4xx_ll_rcc.h **** #if defined(RCC_HSI48_SUPPORT)
 121:Drivers/STM32L4xx_HAL_Driver/Inc/stm32l4xx_ll_rcc.h **** 
 122:Drivers/STM32L4xx_HAL_Driver/Inc/stm32l4xx_ll_rcc.h **** #if !defined  (HSI48_VALUE)
 123:Drivers/STM32L4xx_HAL_Driver/Inc/stm32l4xx_ll_rcc.h **** #define HSI48_VALUE  48000000U  /*!< Value of the HSI48 oscillator in Hz */
 124:Drivers/STM32L4xx_HAL_Driver/Inc/stm32l4xx_ll_rcc.h **** #endif /* HSI48_VALUE */
 125:Drivers/STM32L4xx_HAL_Driver/Inc/stm32l4xx_ll_rcc.h **** #endif /* RCC_HSI48_SUPPORT */
 126:Drivers/STM32L4xx_HAL_Driver/Inc/stm32l4xx_ll_rcc.h **** 
 127:Drivers/STM32L4xx_HAL_Driver/Inc/stm32l4xx_ll_rcc.h **** #if !defined  (EXTERNAL_SAI1_CLOCK_VALUE)
 128:Drivers/STM32L4xx_HAL_Driver/Inc/stm32l4xx_ll_rcc.h **** #define EXTERNAL_SAI1_CLOCK_VALUE    48000U /*!< Value of the SAI1_EXTCLK external oscillator in Hz
 129:Drivers/STM32L4xx_HAL_Driver/Inc/stm32l4xx_ll_rcc.h **** #endif /* EXTERNAL_SAI1_CLOCK_VALUE */
 130:Drivers/STM32L4xx_HAL_Driver/Inc/stm32l4xx_ll_rcc.h **** 
 131:Drivers/STM32L4xx_HAL_Driver/Inc/stm32l4xx_ll_rcc.h **** #if !defined  (EXTERNAL_SAI2_CLOCK_VALUE)
 132:Drivers/STM32L4xx_HAL_Driver/Inc/stm32l4xx_ll_rcc.h **** #define EXTERNAL_SAI2_CLOCK_VALUE    48000U /*!< Value of the SAI2_EXTCLK external oscillator in Hz
 133:Drivers/STM32L4xx_HAL_Driver/Inc/stm32l4xx_ll_rcc.h **** #endif /* EXTERNAL_SAI2_CLOCK_VALUE */
 134:Drivers/STM32L4xx_HAL_Driver/Inc/stm32l4xx_ll_rcc.h **** /**
 135:Drivers/STM32L4xx_HAL_Driver/Inc/stm32l4xx_ll_rcc.h ****   * @}
 136:Drivers/STM32L4xx_HAL_Driver/Inc/stm32l4xx_ll_rcc.h ****   */
 137:Drivers/STM32L4xx_HAL_Driver/Inc/stm32l4xx_ll_rcc.h **** 
 138:Drivers/STM32L4xx_HAL_Driver/Inc/stm32l4xx_ll_rcc.h **** /** @defgroup RCC_LL_EC_CLEAR_FLAG Clear Flags Defines
 139:Drivers/STM32L4xx_HAL_Driver/Inc/stm32l4xx_ll_rcc.h ****   * @brief    Flags defines which can be used with LL_RCC_WriteReg function
 140:Drivers/STM32L4xx_HAL_Driver/Inc/stm32l4xx_ll_rcc.h ****   * @{
 141:Drivers/STM32L4xx_HAL_Driver/Inc/stm32l4xx_ll_rcc.h ****   */
 142:Drivers/STM32L4xx_HAL_Driver/Inc/stm32l4xx_ll_rcc.h **** #define LL_RCC_CICR_LSIRDYC                RCC_CICR_LSIRDYC     /*!< LSI Ready Interrupt Clear */
 143:Drivers/STM32L4xx_HAL_Driver/Inc/stm32l4xx_ll_rcc.h **** #define LL_RCC_CICR_LSERDYC                RCC_CICR_LSERDYC     /*!< LSE Ready Interrupt Clear */
 144:Drivers/STM32L4xx_HAL_Driver/Inc/stm32l4xx_ll_rcc.h **** #define LL_RCC_CICR_MSIRDYC                RCC_CICR_MSIRDYC     /*!< MSI Ready Interrupt Clear */
 145:Drivers/STM32L4xx_HAL_Driver/Inc/stm32l4xx_ll_rcc.h **** #define LL_RCC_CICR_HSIRDYC                RCC_CICR_HSIRDYC     /*!< HSI Ready Interrupt Clear */
 146:Drivers/STM32L4xx_HAL_Driver/Inc/stm32l4xx_ll_rcc.h **** #define LL_RCC_CICR_HSERDYC                RCC_CICR_HSERDYC     /*!< HSE Ready Interrupt Clear */
 147:Drivers/STM32L4xx_HAL_Driver/Inc/stm32l4xx_ll_rcc.h **** #define LL_RCC_CICR_PLLRDYC                RCC_CICR_PLLRDYC     /*!< PLL Ready Interrupt Clear */
 148:Drivers/STM32L4xx_HAL_Driver/Inc/stm32l4xx_ll_rcc.h **** #if defined(RCC_HSI48_SUPPORT)
 149:Drivers/STM32L4xx_HAL_Driver/Inc/stm32l4xx_ll_rcc.h **** #define LL_RCC_CICR_HSI48RDYC              RCC_CICR_HSI48RDYC   /*!< HSI48 Ready Interrupt Clear */
 150:Drivers/STM32L4xx_HAL_Driver/Inc/stm32l4xx_ll_rcc.h **** #endif /* RCC_HSI48_SUPPORT */
 151:Drivers/STM32L4xx_HAL_Driver/Inc/stm32l4xx_ll_rcc.h **** #if defined(RCC_PLLSAI1_SUPPORT)
 152:Drivers/STM32L4xx_HAL_Driver/Inc/stm32l4xx_ll_rcc.h **** #define LL_RCC_CICR_PLLSAI1RDYC            RCC_CICR_PLLSAI1RDYC /*!< PLLSAI1 Ready Interrupt Clear 
 153:Drivers/STM32L4xx_HAL_Driver/Inc/stm32l4xx_ll_rcc.h **** #endif /* RCC_PLLSAI1_SUPPORT */
 154:Drivers/STM32L4xx_HAL_Driver/Inc/stm32l4xx_ll_rcc.h **** #if defined(RCC_PLLSAI2_SUPPORT)
 155:Drivers/STM32L4xx_HAL_Driver/Inc/stm32l4xx_ll_rcc.h **** #define LL_RCC_CICR_PLLSAI2RDYC            RCC_CICR_PLLSAI2RDYC /*!< PLLSAI2 Ready Interrupt Clear 
 156:Drivers/STM32L4xx_HAL_Driver/Inc/stm32l4xx_ll_rcc.h **** #endif /* RCC_PLLSAI2_SUPPORT */
 157:Drivers/STM32L4xx_HAL_Driver/Inc/stm32l4xx_ll_rcc.h **** #define LL_RCC_CICR_LSECSSC                RCC_CICR_LSECSSC     /*!< LSE Clock Security System Inte
 158:Drivers/STM32L4xx_HAL_Driver/Inc/stm32l4xx_ll_rcc.h **** #define LL_RCC_CICR_CSSC                   RCC_CICR_CSSC        /*!< Clock Security System Interrup
 159:Drivers/STM32L4xx_HAL_Driver/Inc/stm32l4xx_ll_rcc.h **** /**
 160:Drivers/STM32L4xx_HAL_Driver/Inc/stm32l4xx_ll_rcc.h ****   * @}
 161:Drivers/STM32L4xx_HAL_Driver/Inc/stm32l4xx_ll_rcc.h ****   */
 162:Drivers/STM32L4xx_HAL_Driver/Inc/stm32l4xx_ll_rcc.h **** 
 163:Drivers/STM32L4xx_HAL_Driver/Inc/stm32l4xx_ll_rcc.h **** /** @defgroup RCC_LL_EC_GET_FLAG Get Flags Defines
 164:Drivers/STM32L4xx_HAL_Driver/Inc/stm32l4xx_ll_rcc.h ****   * @brief    Flags defines which can be used with LL_RCC_ReadReg function
 165:Drivers/STM32L4xx_HAL_Driver/Inc/stm32l4xx_ll_rcc.h ****   * @{
 166:Drivers/STM32L4xx_HAL_Driver/Inc/stm32l4xx_ll_rcc.h ****   */
 167:Drivers/STM32L4xx_HAL_Driver/Inc/stm32l4xx_ll_rcc.h **** #define LL_RCC_CIFR_LSIRDYF                RCC_CIFR_LSIRDYF     /*!< LSI Ready Interrupt flag */
 168:Drivers/STM32L4xx_HAL_Driver/Inc/stm32l4xx_ll_rcc.h **** #define LL_RCC_CIFR_LSERDYF                RCC_CIFR_LSERDYF     /*!< LSE Ready Interrupt flag */
 169:Drivers/STM32L4xx_HAL_Driver/Inc/stm32l4xx_ll_rcc.h **** #define LL_RCC_CIFR_MSIRDYF                RCC_CIFR_MSIRDYF     /*!< MSI Ready Interrupt flag */
 170:Drivers/STM32L4xx_HAL_Driver/Inc/stm32l4xx_ll_rcc.h **** #define LL_RCC_CIFR_HSIRDYF                RCC_CIFR_HSIRDYF     /*!< HSI Ready Interrupt flag */
 171:Drivers/STM32L4xx_HAL_Driver/Inc/stm32l4xx_ll_rcc.h **** #define LL_RCC_CIFR_HSERDYF                RCC_CIFR_HSERDYF     /*!< HSE Ready Interrupt flag */
ARM GAS  C:\Temp\ccmvY2mT.s 			page 21


 172:Drivers/STM32L4xx_HAL_Driver/Inc/stm32l4xx_ll_rcc.h **** #define LL_RCC_CIFR_PLLRDYF                RCC_CIFR_PLLRDYF     /*!< PLL Ready Interrupt flag */
 173:Drivers/STM32L4xx_HAL_Driver/Inc/stm32l4xx_ll_rcc.h **** #if defined(RCC_HSI48_SUPPORT)
 174:Drivers/STM32L4xx_HAL_Driver/Inc/stm32l4xx_ll_rcc.h **** #define LL_RCC_CIFR_HSI48RDYF              RCC_CIFR_HSI48RDYF   /*!< HSI48 Ready Interrupt flag */
 175:Drivers/STM32L4xx_HAL_Driver/Inc/stm32l4xx_ll_rcc.h **** #endif /* RCC_HSI48_SUPPORT */
 176:Drivers/STM32L4xx_HAL_Driver/Inc/stm32l4xx_ll_rcc.h **** #if defined(RCC_PLLSAI1_SUPPORT)
 177:Drivers/STM32L4xx_HAL_Driver/Inc/stm32l4xx_ll_rcc.h **** #define LL_RCC_CIFR_PLLSAI1RDYF            RCC_CIFR_PLLSAI1RDYF /*!< PLLSAI1 Ready Interrupt flag *
 178:Drivers/STM32L4xx_HAL_Driver/Inc/stm32l4xx_ll_rcc.h **** #endif /* RCC_PLLSAI1_SUPPORT */
 179:Drivers/STM32L4xx_HAL_Driver/Inc/stm32l4xx_ll_rcc.h **** #if defined(RCC_PLLSAI2_SUPPORT)
 180:Drivers/STM32L4xx_HAL_Driver/Inc/stm32l4xx_ll_rcc.h **** #define LL_RCC_CIFR_PLLSAI2RDYF            RCC_CIFR_PLLSAI2RDYF /*!< PLLSAI2 Ready Interrupt flag *
 181:Drivers/STM32L4xx_HAL_Driver/Inc/stm32l4xx_ll_rcc.h **** #endif /* RCC_PLLSAI2_SUPPORT */
 182:Drivers/STM32L4xx_HAL_Driver/Inc/stm32l4xx_ll_rcc.h **** #define LL_RCC_CIFR_LSECSSF                RCC_CIFR_LSECSSF     /*!< LSE Clock Security System Inte
 183:Drivers/STM32L4xx_HAL_Driver/Inc/stm32l4xx_ll_rcc.h **** #define LL_RCC_CIFR_CSSF                   RCC_CIFR_CSSF        /*!< Clock Security System Interrup
 184:Drivers/STM32L4xx_HAL_Driver/Inc/stm32l4xx_ll_rcc.h **** #define LL_RCC_CSR_FWRSTF                  RCC_CSR_FWRSTF     /*!< Firewall reset flag */
 185:Drivers/STM32L4xx_HAL_Driver/Inc/stm32l4xx_ll_rcc.h **** #define LL_RCC_CSR_LPWRRSTF                RCC_CSR_LPWRRSTF   /*!< Low-Power reset flag */
 186:Drivers/STM32L4xx_HAL_Driver/Inc/stm32l4xx_ll_rcc.h **** #define LL_RCC_CSR_OBLRSTF                 RCC_CSR_OBLRSTF    /*!< OBL reset flag */
 187:Drivers/STM32L4xx_HAL_Driver/Inc/stm32l4xx_ll_rcc.h **** #define LL_RCC_CSR_PINRSTF                 RCC_CSR_PINRSTF    /*!< PIN reset flag */
 188:Drivers/STM32L4xx_HAL_Driver/Inc/stm32l4xx_ll_rcc.h **** #define LL_RCC_CSR_SFTRSTF                 RCC_CSR_SFTRSTF    /*!< Software Reset flag */
 189:Drivers/STM32L4xx_HAL_Driver/Inc/stm32l4xx_ll_rcc.h **** #define LL_RCC_CSR_IWDGRSTF                RCC_CSR_IWDGRSTF   /*!< Independent Watchdog reset flag 
 190:Drivers/STM32L4xx_HAL_Driver/Inc/stm32l4xx_ll_rcc.h **** #define LL_RCC_CSR_WWDGRSTF                RCC_CSR_WWDGRSTF   /*!< Window watchdog reset flag */
 191:Drivers/STM32L4xx_HAL_Driver/Inc/stm32l4xx_ll_rcc.h **** #define LL_RCC_CSR_BORRSTF                 RCC_CSR_BORRSTF    /*!< BOR reset flag */
 192:Drivers/STM32L4xx_HAL_Driver/Inc/stm32l4xx_ll_rcc.h **** /**
 193:Drivers/STM32L4xx_HAL_Driver/Inc/stm32l4xx_ll_rcc.h ****   * @}
 194:Drivers/STM32L4xx_HAL_Driver/Inc/stm32l4xx_ll_rcc.h ****   */
 195:Drivers/STM32L4xx_HAL_Driver/Inc/stm32l4xx_ll_rcc.h **** 
 196:Drivers/STM32L4xx_HAL_Driver/Inc/stm32l4xx_ll_rcc.h **** /** @defgroup RCC_LL_EC_IT IT Defines
 197:Drivers/STM32L4xx_HAL_Driver/Inc/stm32l4xx_ll_rcc.h ****   * @brief    IT defines which can be used with LL_RCC_ReadReg and  LL_RCC_WriteReg functions
 198:Drivers/STM32L4xx_HAL_Driver/Inc/stm32l4xx_ll_rcc.h ****   * @{
 199:Drivers/STM32L4xx_HAL_Driver/Inc/stm32l4xx_ll_rcc.h ****   */
 200:Drivers/STM32L4xx_HAL_Driver/Inc/stm32l4xx_ll_rcc.h **** #define LL_RCC_CIER_LSIRDYIE               RCC_CIER_LSIRDYIE      /*!< LSI Ready Interrupt Enable *
 201:Drivers/STM32L4xx_HAL_Driver/Inc/stm32l4xx_ll_rcc.h **** #define LL_RCC_CIER_LSERDYIE               RCC_CIER_LSERDYIE      /*!< LSE Ready Interrupt Enable *
 202:Drivers/STM32L4xx_HAL_Driver/Inc/stm32l4xx_ll_rcc.h **** #define LL_RCC_CIER_MSIRDYIE               RCC_CIER_MSIRDYIE      /*!< MSI Ready Interrupt Enable *
 203:Drivers/STM32L4xx_HAL_Driver/Inc/stm32l4xx_ll_rcc.h **** #define LL_RCC_CIER_HSIRDYIE               RCC_CIER_HSIRDYIE      /*!< HSI Ready Interrupt Enable *
 204:Drivers/STM32L4xx_HAL_Driver/Inc/stm32l4xx_ll_rcc.h **** #define LL_RCC_CIER_HSERDYIE               RCC_CIER_HSERDYIE      /*!< HSE Ready Interrupt Enable *
 205:Drivers/STM32L4xx_HAL_Driver/Inc/stm32l4xx_ll_rcc.h **** #define LL_RCC_CIER_PLLRDYIE               RCC_CIER_PLLRDYIE      /*!< PLL Ready Interrupt Enable *
 206:Drivers/STM32L4xx_HAL_Driver/Inc/stm32l4xx_ll_rcc.h **** #if defined(RCC_HSI48_SUPPORT)
 207:Drivers/STM32L4xx_HAL_Driver/Inc/stm32l4xx_ll_rcc.h **** #define LL_RCC_CIER_HSI48RDYIE             RCC_CIER_HSI48RDYIE    /*!< HSI48 Ready Interrupt Enable
 208:Drivers/STM32L4xx_HAL_Driver/Inc/stm32l4xx_ll_rcc.h **** #endif /* RCC_HSI48_SUPPORT */
 209:Drivers/STM32L4xx_HAL_Driver/Inc/stm32l4xx_ll_rcc.h **** #if defined(RCC_PLLSAI1_SUPPORT)
 210:Drivers/STM32L4xx_HAL_Driver/Inc/stm32l4xx_ll_rcc.h **** #define LL_RCC_CIER_PLLSAI1RDYIE           RCC_CIER_PLLSAI1RDYIE  /*!< PLLSAI1 Ready Interrupt Enab
 211:Drivers/STM32L4xx_HAL_Driver/Inc/stm32l4xx_ll_rcc.h **** #endif /* RCC_PLLSAI1_SUPPORT */
 212:Drivers/STM32L4xx_HAL_Driver/Inc/stm32l4xx_ll_rcc.h **** #if defined(RCC_PLLSAI2_SUPPORT)
 213:Drivers/STM32L4xx_HAL_Driver/Inc/stm32l4xx_ll_rcc.h **** #define LL_RCC_CIER_PLLSAI2RDYIE           RCC_CIER_PLLSAI2RDYIE  /*!< PLLSAI2 Ready Interrupt Enab
 214:Drivers/STM32L4xx_HAL_Driver/Inc/stm32l4xx_ll_rcc.h **** #endif /* RCC_PLLSAI2_SUPPORT */
 215:Drivers/STM32L4xx_HAL_Driver/Inc/stm32l4xx_ll_rcc.h **** #define LL_RCC_CIER_LSECSSIE               RCC_CIER_LSECSSIE      /*!< LSE CSS Interrupt Enable */
 216:Drivers/STM32L4xx_HAL_Driver/Inc/stm32l4xx_ll_rcc.h **** /**
 217:Drivers/STM32L4xx_HAL_Driver/Inc/stm32l4xx_ll_rcc.h ****   * @}
 218:Drivers/STM32L4xx_HAL_Driver/Inc/stm32l4xx_ll_rcc.h ****   */
 219:Drivers/STM32L4xx_HAL_Driver/Inc/stm32l4xx_ll_rcc.h **** 
 220:Drivers/STM32L4xx_HAL_Driver/Inc/stm32l4xx_ll_rcc.h **** /** @defgroup RCC_LL_EC_LSEDRIVE  LSE oscillator drive capability
 221:Drivers/STM32L4xx_HAL_Driver/Inc/stm32l4xx_ll_rcc.h ****   * @{
 222:Drivers/STM32L4xx_HAL_Driver/Inc/stm32l4xx_ll_rcc.h ****   */
 223:Drivers/STM32L4xx_HAL_Driver/Inc/stm32l4xx_ll_rcc.h **** #define LL_RCC_LSEDRIVE_LOW                0x00000000U             /*!< Xtal mode lower driving cap
 224:Drivers/STM32L4xx_HAL_Driver/Inc/stm32l4xx_ll_rcc.h **** #define LL_RCC_LSEDRIVE_MEDIUMLOW          RCC_BDCR_LSEDRV_0       /*!< Xtal mode medium low drivin
 225:Drivers/STM32L4xx_HAL_Driver/Inc/stm32l4xx_ll_rcc.h **** #define LL_RCC_LSEDRIVE_MEDIUMHIGH         RCC_BDCR_LSEDRV_1       /*!< Xtal mode medium high drivi
 226:Drivers/STM32L4xx_HAL_Driver/Inc/stm32l4xx_ll_rcc.h **** #define LL_RCC_LSEDRIVE_HIGH               RCC_BDCR_LSEDRV         /*!< Xtal mode higher driving ca
 227:Drivers/STM32L4xx_HAL_Driver/Inc/stm32l4xx_ll_rcc.h **** /**
 228:Drivers/STM32L4xx_HAL_Driver/Inc/stm32l4xx_ll_rcc.h ****   * @}
ARM GAS  C:\Temp\ccmvY2mT.s 			page 22


 229:Drivers/STM32L4xx_HAL_Driver/Inc/stm32l4xx_ll_rcc.h ****   */
 230:Drivers/STM32L4xx_HAL_Driver/Inc/stm32l4xx_ll_rcc.h **** 
 231:Drivers/STM32L4xx_HAL_Driver/Inc/stm32l4xx_ll_rcc.h **** /** @defgroup RCC_LL_EC_MSIRANGE  MSI clock ranges
 232:Drivers/STM32L4xx_HAL_Driver/Inc/stm32l4xx_ll_rcc.h ****   * @{
 233:Drivers/STM32L4xx_HAL_Driver/Inc/stm32l4xx_ll_rcc.h ****   */
 234:Drivers/STM32L4xx_HAL_Driver/Inc/stm32l4xx_ll_rcc.h **** #define LL_RCC_MSIRANGE_0                  RCC_CR_MSIRANGE_0  /*!< MSI = 100 KHz  */
 235:Drivers/STM32L4xx_HAL_Driver/Inc/stm32l4xx_ll_rcc.h **** #define LL_RCC_MSIRANGE_1                  RCC_CR_MSIRANGE_1  /*!< MSI = 200 KHz  */
 236:Drivers/STM32L4xx_HAL_Driver/Inc/stm32l4xx_ll_rcc.h **** #define LL_RCC_MSIRANGE_2                  RCC_CR_MSIRANGE_2  /*!< MSI = 400 KHz  */
 237:Drivers/STM32L4xx_HAL_Driver/Inc/stm32l4xx_ll_rcc.h **** #define LL_RCC_MSIRANGE_3                  RCC_CR_MSIRANGE_3  /*!< MSI = 800 KHz  */
 238:Drivers/STM32L4xx_HAL_Driver/Inc/stm32l4xx_ll_rcc.h **** #define LL_RCC_MSIRANGE_4                  RCC_CR_MSIRANGE_4  /*!< MSI = 1 MHz    */
 239:Drivers/STM32L4xx_HAL_Driver/Inc/stm32l4xx_ll_rcc.h **** #define LL_RCC_MSIRANGE_5                  RCC_CR_MSIRANGE_5  /*!< MSI = 2 MHz    */
 240:Drivers/STM32L4xx_HAL_Driver/Inc/stm32l4xx_ll_rcc.h **** #define LL_RCC_MSIRANGE_6                  RCC_CR_MSIRANGE_6  /*!< MSI = 4 MHz    */
 241:Drivers/STM32L4xx_HAL_Driver/Inc/stm32l4xx_ll_rcc.h **** #define LL_RCC_MSIRANGE_7                  RCC_CR_MSIRANGE_7  /*!< MSI = 8 MHz    */
 242:Drivers/STM32L4xx_HAL_Driver/Inc/stm32l4xx_ll_rcc.h **** #define LL_RCC_MSIRANGE_8                  RCC_CR_MSIRANGE_8  /*!< MSI = 16 MHz   */
 243:Drivers/STM32L4xx_HAL_Driver/Inc/stm32l4xx_ll_rcc.h **** #define LL_RCC_MSIRANGE_9                  RCC_CR_MSIRANGE_9  /*!< MSI = 24 MHz   */
 244:Drivers/STM32L4xx_HAL_Driver/Inc/stm32l4xx_ll_rcc.h **** #define LL_RCC_MSIRANGE_10                 RCC_CR_MSIRANGE_10 /*!< MSI = 32 MHz   */
 245:Drivers/STM32L4xx_HAL_Driver/Inc/stm32l4xx_ll_rcc.h **** #define LL_RCC_MSIRANGE_11                 RCC_CR_MSIRANGE_11 /*!< MSI = 48 MHz   */
 246:Drivers/STM32L4xx_HAL_Driver/Inc/stm32l4xx_ll_rcc.h **** /**
 247:Drivers/STM32L4xx_HAL_Driver/Inc/stm32l4xx_ll_rcc.h ****   * @}
 248:Drivers/STM32L4xx_HAL_Driver/Inc/stm32l4xx_ll_rcc.h ****   */
 249:Drivers/STM32L4xx_HAL_Driver/Inc/stm32l4xx_ll_rcc.h **** 
 250:Drivers/STM32L4xx_HAL_Driver/Inc/stm32l4xx_ll_rcc.h **** /** @defgroup RCC_LL_EC_MSISRANGE  MSI range after Standby mode
 251:Drivers/STM32L4xx_HAL_Driver/Inc/stm32l4xx_ll_rcc.h ****   * @{
 252:Drivers/STM32L4xx_HAL_Driver/Inc/stm32l4xx_ll_rcc.h ****   */
 253:Drivers/STM32L4xx_HAL_Driver/Inc/stm32l4xx_ll_rcc.h **** #define LL_RCC_MSISRANGE_4                 RCC_CSR_MSISRANGE_1  /*!< MSI = 1 MHz    */
 254:Drivers/STM32L4xx_HAL_Driver/Inc/stm32l4xx_ll_rcc.h **** #define LL_RCC_MSISRANGE_5                 RCC_CSR_MSISRANGE_2  /*!< MSI = 2 MHz    */
 255:Drivers/STM32L4xx_HAL_Driver/Inc/stm32l4xx_ll_rcc.h **** #define LL_RCC_MSISRANGE_6                 RCC_CSR_MSISRANGE_4  /*!< MSI = 4 MHz    */
 256:Drivers/STM32L4xx_HAL_Driver/Inc/stm32l4xx_ll_rcc.h **** #define LL_RCC_MSISRANGE_7                 RCC_CSR_MSISRANGE_8  /*!< MSI = 8 MHz    */
 257:Drivers/STM32L4xx_HAL_Driver/Inc/stm32l4xx_ll_rcc.h **** /**
 258:Drivers/STM32L4xx_HAL_Driver/Inc/stm32l4xx_ll_rcc.h ****   * @}
 259:Drivers/STM32L4xx_HAL_Driver/Inc/stm32l4xx_ll_rcc.h ****   */
 260:Drivers/STM32L4xx_HAL_Driver/Inc/stm32l4xx_ll_rcc.h **** 
 261:Drivers/STM32L4xx_HAL_Driver/Inc/stm32l4xx_ll_rcc.h **** /** @defgroup RCC_LL_EC_LSCO_CLKSOURCE  LSCO Selection
 262:Drivers/STM32L4xx_HAL_Driver/Inc/stm32l4xx_ll_rcc.h ****   * @{
 263:Drivers/STM32L4xx_HAL_Driver/Inc/stm32l4xx_ll_rcc.h ****   */
 264:Drivers/STM32L4xx_HAL_Driver/Inc/stm32l4xx_ll_rcc.h **** #define LL_RCC_LSCO_CLKSOURCE_LSI          0x00000000U                 /*!< LSI selection for low s
 265:Drivers/STM32L4xx_HAL_Driver/Inc/stm32l4xx_ll_rcc.h **** #define LL_RCC_LSCO_CLKSOURCE_LSE          RCC_BDCR_LSCOSEL      /*!< LSE selection for low speed c
 266:Drivers/STM32L4xx_HAL_Driver/Inc/stm32l4xx_ll_rcc.h **** /**
 267:Drivers/STM32L4xx_HAL_Driver/Inc/stm32l4xx_ll_rcc.h ****   * @}
 268:Drivers/STM32L4xx_HAL_Driver/Inc/stm32l4xx_ll_rcc.h ****   */
 269:Drivers/STM32L4xx_HAL_Driver/Inc/stm32l4xx_ll_rcc.h **** 
 270:Drivers/STM32L4xx_HAL_Driver/Inc/stm32l4xx_ll_rcc.h **** /** @defgroup RCC_LL_EC_SYS_CLKSOURCE  System clock switch
 271:Drivers/STM32L4xx_HAL_Driver/Inc/stm32l4xx_ll_rcc.h ****   * @{
 272:Drivers/STM32L4xx_HAL_Driver/Inc/stm32l4xx_ll_rcc.h ****   */
 273:Drivers/STM32L4xx_HAL_Driver/Inc/stm32l4xx_ll_rcc.h **** #define LL_RCC_SYS_CLKSOURCE_MSI           RCC_CFGR_SW_MSI    /*!< MSI selection as system clock */
 274:Drivers/STM32L4xx_HAL_Driver/Inc/stm32l4xx_ll_rcc.h **** #define LL_RCC_SYS_CLKSOURCE_HSI           RCC_CFGR_SW_HSI    /*!< HSI selection as system clock */
 275:Drivers/STM32L4xx_HAL_Driver/Inc/stm32l4xx_ll_rcc.h **** #define LL_RCC_SYS_CLKSOURCE_HSE           RCC_CFGR_SW_HSE    /*!< HSE selection as system clock */
 276:Drivers/STM32L4xx_HAL_Driver/Inc/stm32l4xx_ll_rcc.h **** #define LL_RCC_SYS_CLKSOURCE_PLL           RCC_CFGR_SW_PLL    /*!< PLL selection as system clock */
 277:Drivers/STM32L4xx_HAL_Driver/Inc/stm32l4xx_ll_rcc.h **** /**
 278:Drivers/STM32L4xx_HAL_Driver/Inc/stm32l4xx_ll_rcc.h ****   * @}
 279:Drivers/STM32L4xx_HAL_Driver/Inc/stm32l4xx_ll_rcc.h ****   */
 280:Drivers/STM32L4xx_HAL_Driver/Inc/stm32l4xx_ll_rcc.h **** 
 281:Drivers/STM32L4xx_HAL_Driver/Inc/stm32l4xx_ll_rcc.h **** /** @defgroup RCC_LL_EC_SYS_CLKSOURCE_STATUS  System clock switch status
 282:Drivers/STM32L4xx_HAL_Driver/Inc/stm32l4xx_ll_rcc.h ****   * @{
 283:Drivers/STM32L4xx_HAL_Driver/Inc/stm32l4xx_ll_rcc.h ****   */
 284:Drivers/STM32L4xx_HAL_Driver/Inc/stm32l4xx_ll_rcc.h **** #define LL_RCC_SYS_CLKSOURCE_STATUS_MSI    RCC_CFGR_SWS_MSI   /*!< MSI used as system clock */
 285:Drivers/STM32L4xx_HAL_Driver/Inc/stm32l4xx_ll_rcc.h **** #define LL_RCC_SYS_CLKSOURCE_STATUS_HSI    RCC_CFGR_SWS_HSI   /*!< HSI used as system clock */
ARM GAS  C:\Temp\ccmvY2mT.s 			page 23


 286:Drivers/STM32L4xx_HAL_Driver/Inc/stm32l4xx_ll_rcc.h **** #define LL_RCC_SYS_CLKSOURCE_STATUS_HSE    RCC_CFGR_SWS_HSE   /*!< HSE used as system clock */
 287:Drivers/STM32L4xx_HAL_Driver/Inc/stm32l4xx_ll_rcc.h **** #define LL_RCC_SYS_CLKSOURCE_STATUS_PLL    RCC_CFGR_SWS_PLL   /*!< PLL used as system clock */
 288:Drivers/STM32L4xx_HAL_Driver/Inc/stm32l4xx_ll_rcc.h **** /**
 289:Drivers/STM32L4xx_HAL_Driver/Inc/stm32l4xx_ll_rcc.h ****   * @}
 290:Drivers/STM32L4xx_HAL_Driver/Inc/stm32l4xx_ll_rcc.h ****   */
 291:Drivers/STM32L4xx_HAL_Driver/Inc/stm32l4xx_ll_rcc.h **** 
 292:Drivers/STM32L4xx_HAL_Driver/Inc/stm32l4xx_ll_rcc.h **** /** @defgroup RCC_LL_EC_SYSCLK_DIV  AHB prescaler
 293:Drivers/STM32L4xx_HAL_Driver/Inc/stm32l4xx_ll_rcc.h ****   * @{
 294:Drivers/STM32L4xx_HAL_Driver/Inc/stm32l4xx_ll_rcc.h ****   */
 295:Drivers/STM32L4xx_HAL_Driver/Inc/stm32l4xx_ll_rcc.h **** #define LL_RCC_SYSCLK_DIV_1                RCC_CFGR_HPRE_DIV1   /*!< SYSCLK not divided */
 296:Drivers/STM32L4xx_HAL_Driver/Inc/stm32l4xx_ll_rcc.h **** #define LL_RCC_SYSCLK_DIV_2                RCC_CFGR_HPRE_DIV2   /*!< SYSCLK divided by 2 */
 297:Drivers/STM32L4xx_HAL_Driver/Inc/stm32l4xx_ll_rcc.h **** #define LL_RCC_SYSCLK_DIV_4                RCC_CFGR_HPRE_DIV4   /*!< SYSCLK divided by 4 */
 298:Drivers/STM32L4xx_HAL_Driver/Inc/stm32l4xx_ll_rcc.h **** #define LL_RCC_SYSCLK_DIV_8                RCC_CFGR_HPRE_DIV8   /*!< SYSCLK divided by 8 */
 299:Drivers/STM32L4xx_HAL_Driver/Inc/stm32l4xx_ll_rcc.h **** #define LL_RCC_SYSCLK_DIV_16               RCC_CFGR_HPRE_DIV16  /*!< SYSCLK divided by 16 */
 300:Drivers/STM32L4xx_HAL_Driver/Inc/stm32l4xx_ll_rcc.h **** #define LL_RCC_SYSCLK_DIV_64               RCC_CFGR_HPRE_DIV64  /*!< SYSCLK divided by 64 */
 301:Drivers/STM32L4xx_HAL_Driver/Inc/stm32l4xx_ll_rcc.h **** #define LL_RCC_SYSCLK_DIV_128              RCC_CFGR_HPRE_DIV128 /*!< SYSCLK divided by 128 */
 302:Drivers/STM32L4xx_HAL_Driver/Inc/stm32l4xx_ll_rcc.h **** #define LL_RCC_SYSCLK_DIV_256              RCC_CFGR_HPRE_DIV256 /*!< SYSCLK divided by 256 */
 303:Drivers/STM32L4xx_HAL_Driver/Inc/stm32l4xx_ll_rcc.h **** #define LL_RCC_SYSCLK_DIV_512              RCC_CFGR_HPRE_DIV512 /*!< SYSCLK divided by 512 */
 304:Drivers/STM32L4xx_HAL_Driver/Inc/stm32l4xx_ll_rcc.h **** /**
 305:Drivers/STM32L4xx_HAL_Driver/Inc/stm32l4xx_ll_rcc.h ****   * @}
 306:Drivers/STM32L4xx_HAL_Driver/Inc/stm32l4xx_ll_rcc.h ****   */
 307:Drivers/STM32L4xx_HAL_Driver/Inc/stm32l4xx_ll_rcc.h **** 
 308:Drivers/STM32L4xx_HAL_Driver/Inc/stm32l4xx_ll_rcc.h **** /** @defgroup RCC_LL_EC_APB1_DIV  APB low-speed prescaler (APB1)
 309:Drivers/STM32L4xx_HAL_Driver/Inc/stm32l4xx_ll_rcc.h ****   * @{
 310:Drivers/STM32L4xx_HAL_Driver/Inc/stm32l4xx_ll_rcc.h ****   */
 311:Drivers/STM32L4xx_HAL_Driver/Inc/stm32l4xx_ll_rcc.h **** #define LL_RCC_APB1_DIV_1                  RCC_CFGR_PPRE1_DIV1  /*!< HCLK not divided */
 312:Drivers/STM32L4xx_HAL_Driver/Inc/stm32l4xx_ll_rcc.h **** #define LL_RCC_APB1_DIV_2                  RCC_CFGR_PPRE1_DIV2  /*!< HCLK divided by 2 */
 313:Drivers/STM32L4xx_HAL_Driver/Inc/stm32l4xx_ll_rcc.h **** #define LL_RCC_APB1_DIV_4                  RCC_CFGR_PPRE1_DIV4  /*!< HCLK divided by 4 */
 314:Drivers/STM32L4xx_HAL_Driver/Inc/stm32l4xx_ll_rcc.h **** #define LL_RCC_APB1_DIV_8                  RCC_CFGR_PPRE1_DIV8  /*!< HCLK divided by 8 */
 315:Drivers/STM32L4xx_HAL_Driver/Inc/stm32l4xx_ll_rcc.h **** #define LL_RCC_APB1_DIV_16                 RCC_CFGR_PPRE1_DIV16 /*!< HCLK divided by 16 */
 316:Drivers/STM32L4xx_HAL_Driver/Inc/stm32l4xx_ll_rcc.h **** /**
 317:Drivers/STM32L4xx_HAL_Driver/Inc/stm32l4xx_ll_rcc.h ****   * @}
 318:Drivers/STM32L4xx_HAL_Driver/Inc/stm32l4xx_ll_rcc.h ****   */
 319:Drivers/STM32L4xx_HAL_Driver/Inc/stm32l4xx_ll_rcc.h **** 
 320:Drivers/STM32L4xx_HAL_Driver/Inc/stm32l4xx_ll_rcc.h **** /** @defgroup RCC_LL_EC_APB2_DIV  APB high-speed prescaler (APB2)
 321:Drivers/STM32L4xx_HAL_Driver/Inc/stm32l4xx_ll_rcc.h ****   * @{
 322:Drivers/STM32L4xx_HAL_Driver/Inc/stm32l4xx_ll_rcc.h ****   */
 323:Drivers/STM32L4xx_HAL_Driver/Inc/stm32l4xx_ll_rcc.h **** #define LL_RCC_APB2_DIV_1                  RCC_CFGR_PPRE2_DIV1  /*!< HCLK not divided */
 324:Drivers/STM32L4xx_HAL_Driver/Inc/stm32l4xx_ll_rcc.h **** #define LL_RCC_APB2_DIV_2                  RCC_CFGR_PPRE2_DIV2  /*!< HCLK divided by 2 */
 325:Drivers/STM32L4xx_HAL_Driver/Inc/stm32l4xx_ll_rcc.h **** #define LL_RCC_APB2_DIV_4                  RCC_CFGR_PPRE2_DIV4  /*!< HCLK divided by 4 */
 326:Drivers/STM32L4xx_HAL_Driver/Inc/stm32l4xx_ll_rcc.h **** #define LL_RCC_APB2_DIV_8                  RCC_CFGR_PPRE2_DIV8  /*!< HCLK divided by 8 */
 327:Drivers/STM32L4xx_HAL_Driver/Inc/stm32l4xx_ll_rcc.h **** #define LL_RCC_APB2_DIV_16                 RCC_CFGR_PPRE2_DIV16 /*!< HCLK divided by 16 */
 328:Drivers/STM32L4xx_HAL_Driver/Inc/stm32l4xx_ll_rcc.h **** /**
 329:Drivers/STM32L4xx_HAL_Driver/Inc/stm32l4xx_ll_rcc.h ****   * @}
 330:Drivers/STM32L4xx_HAL_Driver/Inc/stm32l4xx_ll_rcc.h ****   */
 331:Drivers/STM32L4xx_HAL_Driver/Inc/stm32l4xx_ll_rcc.h **** 
 332:Drivers/STM32L4xx_HAL_Driver/Inc/stm32l4xx_ll_rcc.h **** /** @defgroup RCC_LL_EC_STOP_WAKEUPCLOCK  Wakeup from Stop and CSS backup clock selection
 333:Drivers/STM32L4xx_HAL_Driver/Inc/stm32l4xx_ll_rcc.h ****   * @{
 334:Drivers/STM32L4xx_HAL_Driver/Inc/stm32l4xx_ll_rcc.h ****   */
 335:Drivers/STM32L4xx_HAL_Driver/Inc/stm32l4xx_ll_rcc.h **** #define LL_RCC_STOP_WAKEUPCLOCK_MSI        0x00000000U             /*!< MSI selection after wake-up
 336:Drivers/STM32L4xx_HAL_Driver/Inc/stm32l4xx_ll_rcc.h **** #define LL_RCC_STOP_WAKEUPCLOCK_HSI        RCC_CFGR_STOPWUCK       /*!< HSI selection after wake-up
 337:Drivers/STM32L4xx_HAL_Driver/Inc/stm32l4xx_ll_rcc.h **** /**
 338:Drivers/STM32L4xx_HAL_Driver/Inc/stm32l4xx_ll_rcc.h ****   * @}
 339:Drivers/STM32L4xx_HAL_Driver/Inc/stm32l4xx_ll_rcc.h ****   */
 340:Drivers/STM32L4xx_HAL_Driver/Inc/stm32l4xx_ll_rcc.h **** 
 341:Drivers/STM32L4xx_HAL_Driver/Inc/stm32l4xx_ll_rcc.h **** /** @defgroup RCC_LL_EC_MCO1SOURCE  MCO1 SOURCE selection
 342:Drivers/STM32L4xx_HAL_Driver/Inc/stm32l4xx_ll_rcc.h ****   * @{
ARM GAS  C:\Temp\ccmvY2mT.s 			page 24


 343:Drivers/STM32L4xx_HAL_Driver/Inc/stm32l4xx_ll_rcc.h ****   */
 344:Drivers/STM32L4xx_HAL_Driver/Inc/stm32l4xx_ll_rcc.h **** #define LL_RCC_MCO1SOURCE_NOCLOCK          0x00000000U                            /*!< MCO output d
 345:Drivers/STM32L4xx_HAL_Driver/Inc/stm32l4xx_ll_rcc.h **** #define LL_RCC_MCO1SOURCE_SYSCLK           RCC_CFGR_MCOSEL_0                      /*!< SYSCLK selec
 346:Drivers/STM32L4xx_HAL_Driver/Inc/stm32l4xx_ll_rcc.h **** #define LL_RCC_MCO1SOURCE_MSI              RCC_CFGR_MCOSEL_1                      /*!< MSI selectio
 347:Drivers/STM32L4xx_HAL_Driver/Inc/stm32l4xx_ll_rcc.h **** #define LL_RCC_MCO1SOURCE_HSI              (RCC_CFGR_MCOSEL_0| RCC_CFGR_MCOSEL_1) /*!< HSI16 select
 348:Drivers/STM32L4xx_HAL_Driver/Inc/stm32l4xx_ll_rcc.h **** #define LL_RCC_MCO1SOURCE_HSE              RCC_CFGR_MCOSEL_2                      /*!< HSE selectio
 349:Drivers/STM32L4xx_HAL_Driver/Inc/stm32l4xx_ll_rcc.h **** #define LL_RCC_MCO1SOURCE_PLLCLK           (RCC_CFGR_MCOSEL_0|RCC_CFGR_MCOSEL_2)  /*!< Main PLL sel
 350:Drivers/STM32L4xx_HAL_Driver/Inc/stm32l4xx_ll_rcc.h **** #define LL_RCC_MCO1SOURCE_LSI              (RCC_CFGR_MCOSEL_1|RCC_CFGR_MCOSEL_2)  /*!< LSI selectio
 351:Drivers/STM32L4xx_HAL_Driver/Inc/stm32l4xx_ll_rcc.h **** #define LL_RCC_MCO1SOURCE_LSE              (RCC_CFGR_MCOSEL_0|RCC_CFGR_MCOSEL_1|RCC_CFGR_MCOSEL_2) 
 352:Drivers/STM32L4xx_HAL_Driver/Inc/stm32l4xx_ll_rcc.h **** #if defined(RCC_HSI48_SUPPORT)
 353:Drivers/STM32L4xx_HAL_Driver/Inc/stm32l4xx_ll_rcc.h **** #define LL_RCC_MCO1SOURCE_HSI48            RCC_CFGR_MCOSEL_3                      /*!< HSI48 select
 354:Drivers/STM32L4xx_HAL_Driver/Inc/stm32l4xx_ll_rcc.h **** #endif /* RCC_HSI48_SUPPORT */
 355:Drivers/STM32L4xx_HAL_Driver/Inc/stm32l4xx_ll_rcc.h **** /**
 356:Drivers/STM32L4xx_HAL_Driver/Inc/stm32l4xx_ll_rcc.h ****   * @}
 357:Drivers/STM32L4xx_HAL_Driver/Inc/stm32l4xx_ll_rcc.h ****   */
 358:Drivers/STM32L4xx_HAL_Driver/Inc/stm32l4xx_ll_rcc.h **** 
 359:Drivers/STM32L4xx_HAL_Driver/Inc/stm32l4xx_ll_rcc.h **** /** @defgroup RCC_LL_EC_MCO1_DIV  MCO1 prescaler
 360:Drivers/STM32L4xx_HAL_Driver/Inc/stm32l4xx_ll_rcc.h ****   * @{
 361:Drivers/STM32L4xx_HAL_Driver/Inc/stm32l4xx_ll_rcc.h ****   */
 362:Drivers/STM32L4xx_HAL_Driver/Inc/stm32l4xx_ll_rcc.h **** #define LL_RCC_MCO1_DIV_1                  RCC_CFGR_MCOPRE_DIV1       /*!< MCO not divided */
 363:Drivers/STM32L4xx_HAL_Driver/Inc/stm32l4xx_ll_rcc.h **** #define LL_RCC_MCO1_DIV_2                  RCC_CFGR_MCOPRE_DIV2       /*!< MCO divided by 2 */
 364:Drivers/STM32L4xx_HAL_Driver/Inc/stm32l4xx_ll_rcc.h **** #define LL_RCC_MCO1_DIV_4                  RCC_CFGR_MCOPRE_DIV4       /*!< MCO divided by 4 */
 365:Drivers/STM32L4xx_HAL_Driver/Inc/stm32l4xx_ll_rcc.h **** #define LL_RCC_MCO1_DIV_8                  RCC_CFGR_MCOPRE_DIV8       /*!< MCO divided by 8 */
 366:Drivers/STM32L4xx_HAL_Driver/Inc/stm32l4xx_ll_rcc.h **** #define LL_RCC_MCO1_DIV_16                 RCC_CFGR_MCOPRE_DIV16      /*!< MCO divided by 16 */
 367:Drivers/STM32L4xx_HAL_Driver/Inc/stm32l4xx_ll_rcc.h **** /**
 368:Drivers/STM32L4xx_HAL_Driver/Inc/stm32l4xx_ll_rcc.h ****   * @}
 369:Drivers/STM32L4xx_HAL_Driver/Inc/stm32l4xx_ll_rcc.h ****   */
 370:Drivers/STM32L4xx_HAL_Driver/Inc/stm32l4xx_ll_rcc.h **** 
 371:Drivers/STM32L4xx_HAL_Driver/Inc/stm32l4xx_ll_rcc.h **** #if defined(USE_FULL_LL_DRIVER)
 372:Drivers/STM32L4xx_HAL_Driver/Inc/stm32l4xx_ll_rcc.h **** /** @defgroup RCC_LL_EC_PERIPH_FREQUENCY Peripheral clock frequency
 373:Drivers/STM32L4xx_HAL_Driver/Inc/stm32l4xx_ll_rcc.h ****   * @{
 374:Drivers/STM32L4xx_HAL_Driver/Inc/stm32l4xx_ll_rcc.h ****   */
 375:Drivers/STM32L4xx_HAL_Driver/Inc/stm32l4xx_ll_rcc.h **** #define LL_RCC_PERIPH_FREQUENCY_NO         0x00000000U                 /*!< No clock enabled for th
 376:Drivers/STM32L4xx_HAL_Driver/Inc/stm32l4xx_ll_rcc.h **** #define LL_RCC_PERIPH_FREQUENCY_NA         0xFFFFFFFFU                 /*!< Frequency cannot be pro
 377:Drivers/STM32L4xx_HAL_Driver/Inc/stm32l4xx_ll_rcc.h **** /**
 378:Drivers/STM32L4xx_HAL_Driver/Inc/stm32l4xx_ll_rcc.h ****   * @}
 379:Drivers/STM32L4xx_HAL_Driver/Inc/stm32l4xx_ll_rcc.h ****   */
 380:Drivers/STM32L4xx_HAL_Driver/Inc/stm32l4xx_ll_rcc.h **** #endif /* USE_FULL_LL_DRIVER */
 381:Drivers/STM32L4xx_HAL_Driver/Inc/stm32l4xx_ll_rcc.h **** 
 382:Drivers/STM32L4xx_HAL_Driver/Inc/stm32l4xx_ll_rcc.h **** /** @defgroup RCC_LL_EC_USART1_CLKSOURCE  Peripheral USART clock source selection
 383:Drivers/STM32L4xx_HAL_Driver/Inc/stm32l4xx_ll_rcc.h ****   * @{
 384:Drivers/STM32L4xx_HAL_Driver/Inc/stm32l4xx_ll_rcc.h ****   */
 385:Drivers/STM32L4xx_HAL_Driver/Inc/stm32l4xx_ll_rcc.h **** #define LL_RCC_USART1_CLKSOURCE_PCLK2      (RCC_CCIPR_USART1SEL << 16U)                           /
 386:Drivers/STM32L4xx_HAL_Driver/Inc/stm32l4xx_ll_rcc.h **** #define LL_RCC_USART1_CLKSOURCE_SYSCLK     ((RCC_CCIPR_USART1SEL << 16U) | RCC_CCIPR_USART1SEL_0) /
 387:Drivers/STM32L4xx_HAL_Driver/Inc/stm32l4xx_ll_rcc.h **** #define LL_RCC_USART1_CLKSOURCE_HSI        ((RCC_CCIPR_USART1SEL << 16U) | RCC_CCIPR_USART1SEL_1) /
 388:Drivers/STM32L4xx_HAL_Driver/Inc/stm32l4xx_ll_rcc.h **** #define LL_RCC_USART1_CLKSOURCE_LSE        ((RCC_CCIPR_USART1SEL << 16U) | RCC_CCIPR_USART1SEL)   /
 389:Drivers/STM32L4xx_HAL_Driver/Inc/stm32l4xx_ll_rcc.h **** #define LL_RCC_USART2_CLKSOURCE_PCLK1      (RCC_CCIPR_USART2SEL << 16U)                           /
 390:Drivers/STM32L4xx_HAL_Driver/Inc/stm32l4xx_ll_rcc.h **** #define LL_RCC_USART2_CLKSOURCE_SYSCLK     ((RCC_CCIPR_USART2SEL << 16U) | RCC_CCIPR_USART2SEL_0) /
 391:Drivers/STM32L4xx_HAL_Driver/Inc/stm32l4xx_ll_rcc.h **** #define LL_RCC_USART2_CLKSOURCE_HSI        ((RCC_CCIPR_USART2SEL << 16U) | RCC_CCIPR_USART2SEL_1) /
 392:Drivers/STM32L4xx_HAL_Driver/Inc/stm32l4xx_ll_rcc.h **** #define LL_RCC_USART2_CLKSOURCE_LSE        ((RCC_CCIPR_USART2SEL << 16U) | RCC_CCIPR_USART2SEL)   /
 393:Drivers/STM32L4xx_HAL_Driver/Inc/stm32l4xx_ll_rcc.h **** #if defined(RCC_CCIPR_USART3SEL)
 394:Drivers/STM32L4xx_HAL_Driver/Inc/stm32l4xx_ll_rcc.h **** #define LL_RCC_USART3_CLKSOURCE_PCLK1      (RCC_CCIPR_USART3SEL << 16U)                           /
 395:Drivers/STM32L4xx_HAL_Driver/Inc/stm32l4xx_ll_rcc.h **** #define LL_RCC_USART3_CLKSOURCE_SYSCLK     ((RCC_CCIPR_USART3SEL << 16U) | RCC_CCIPR_USART3SEL_0) /
 396:Drivers/STM32L4xx_HAL_Driver/Inc/stm32l4xx_ll_rcc.h **** #define LL_RCC_USART3_CLKSOURCE_HSI        ((RCC_CCIPR_USART3SEL << 16U) | RCC_CCIPR_USART3SEL_1) /
 397:Drivers/STM32L4xx_HAL_Driver/Inc/stm32l4xx_ll_rcc.h **** #define LL_RCC_USART3_CLKSOURCE_LSE        ((RCC_CCIPR_USART3SEL << 16U) | RCC_CCIPR_USART3SEL)   /
 398:Drivers/STM32L4xx_HAL_Driver/Inc/stm32l4xx_ll_rcc.h **** #endif /* RCC_CCIPR_USART3SEL */
 399:Drivers/STM32L4xx_HAL_Driver/Inc/stm32l4xx_ll_rcc.h **** /**
ARM GAS  C:\Temp\ccmvY2mT.s 			page 25


 400:Drivers/STM32L4xx_HAL_Driver/Inc/stm32l4xx_ll_rcc.h ****   * @}
 401:Drivers/STM32L4xx_HAL_Driver/Inc/stm32l4xx_ll_rcc.h ****   */
 402:Drivers/STM32L4xx_HAL_Driver/Inc/stm32l4xx_ll_rcc.h **** 
 403:Drivers/STM32L4xx_HAL_Driver/Inc/stm32l4xx_ll_rcc.h **** #if defined(RCC_CCIPR_UART4SEL) || defined(RCC_CCIPR_UART5SEL)
 404:Drivers/STM32L4xx_HAL_Driver/Inc/stm32l4xx_ll_rcc.h **** /** @defgroup RCC_LL_EC_UART4_CLKSOURCE  Peripheral UART clock source selection
 405:Drivers/STM32L4xx_HAL_Driver/Inc/stm32l4xx_ll_rcc.h ****   * @{
 406:Drivers/STM32L4xx_HAL_Driver/Inc/stm32l4xx_ll_rcc.h ****   */
 407:Drivers/STM32L4xx_HAL_Driver/Inc/stm32l4xx_ll_rcc.h **** #if defined(RCC_CCIPR_UART4SEL)
 408:Drivers/STM32L4xx_HAL_Driver/Inc/stm32l4xx_ll_rcc.h **** #define LL_RCC_UART4_CLKSOURCE_PCLK1       (RCC_CCIPR_UART4SEL << 16U)                           /*
 409:Drivers/STM32L4xx_HAL_Driver/Inc/stm32l4xx_ll_rcc.h **** #define LL_RCC_UART4_CLKSOURCE_SYSCLK      ((RCC_CCIPR_UART4SEL << 16U) | RCC_CCIPR_UART4SEL_0)  /*
 410:Drivers/STM32L4xx_HAL_Driver/Inc/stm32l4xx_ll_rcc.h **** #define LL_RCC_UART4_CLKSOURCE_HSI         ((RCC_CCIPR_UART4SEL << 16U) | RCC_CCIPR_UART4SEL_1)  /*
 411:Drivers/STM32L4xx_HAL_Driver/Inc/stm32l4xx_ll_rcc.h **** #define LL_RCC_UART4_CLKSOURCE_LSE         ((RCC_CCIPR_UART4SEL << 16U) | RCC_CCIPR_UART4SEL)    /*
 412:Drivers/STM32L4xx_HAL_Driver/Inc/stm32l4xx_ll_rcc.h **** #endif /* RCC_CCIPR_UART4SEL */
 413:Drivers/STM32L4xx_HAL_Driver/Inc/stm32l4xx_ll_rcc.h **** #if defined(RCC_CCIPR_UART5SEL)
 414:Drivers/STM32L4xx_HAL_Driver/Inc/stm32l4xx_ll_rcc.h **** #define LL_RCC_UART5_CLKSOURCE_PCLK1       (RCC_CCIPR_UART5SEL << 16U)                           /*
 415:Drivers/STM32L4xx_HAL_Driver/Inc/stm32l4xx_ll_rcc.h **** #define LL_RCC_UART5_CLKSOURCE_SYSCLK      ((RCC_CCIPR_UART5SEL << 16U) | RCC_CCIPR_UART5SEL_0)  /*
 416:Drivers/STM32L4xx_HAL_Driver/Inc/stm32l4xx_ll_rcc.h **** #define LL_RCC_UART5_CLKSOURCE_HSI         ((RCC_CCIPR_UART5SEL << 16U) | RCC_CCIPR_UART5SEL_1)  /*
 417:Drivers/STM32L4xx_HAL_Driver/Inc/stm32l4xx_ll_rcc.h **** #define LL_RCC_UART5_CLKSOURCE_LSE         ((RCC_CCIPR_UART5SEL << 16U) | RCC_CCIPR_UART5SEL)    /*
 418:Drivers/STM32L4xx_HAL_Driver/Inc/stm32l4xx_ll_rcc.h **** #endif /* RCC_CCIPR_UART5SEL */
 419:Drivers/STM32L4xx_HAL_Driver/Inc/stm32l4xx_ll_rcc.h **** /**
 420:Drivers/STM32L4xx_HAL_Driver/Inc/stm32l4xx_ll_rcc.h ****   * @}
 421:Drivers/STM32L4xx_HAL_Driver/Inc/stm32l4xx_ll_rcc.h ****   */
 422:Drivers/STM32L4xx_HAL_Driver/Inc/stm32l4xx_ll_rcc.h **** #endif /* RCC_CCIPR_UART4SEL || RCC_CCIPR_UART5SEL */
 423:Drivers/STM32L4xx_HAL_Driver/Inc/stm32l4xx_ll_rcc.h **** 
 424:Drivers/STM32L4xx_HAL_Driver/Inc/stm32l4xx_ll_rcc.h **** /** @defgroup RCC_LL_EC_LPUART1_CLKSOURCE  Peripheral LPUART clock source selection
 425:Drivers/STM32L4xx_HAL_Driver/Inc/stm32l4xx_ll_rcc.h ****   * @{
 426:Drivers/STM32L4xx_HAL_Driver/Inc/stm32l4xx_ll_rcc.h ****   */
 427:Drivers/STM32L4xx_HAL_Driver/Inc/stm32l4xx_ll_rcc.h **** #define LL_RCC_LPUART1_CLKSOURCE_PCLK1     0x00000000U                     /*!< PCLK1 clock used as
 428:Drivers/STM32L4xx_HAL_Driver/Inc/stm32l4xx_ll_rcc.h **** #define LL_RCC_LPUART1_CLKSOURCE_SYSCLK    RCC_CCIPR_LPUART1SEL_0          /*!< SYSCLK clock used a
 429:Drivers/STM32L4xx_HAL_Driver/Inc/stm32l4xx_ll_rcc.h **** #define LL_RCC_LPUART1_CLKSOURCE_HSI       RCC_CCIPR_LPUART1SEL_1          /*!< HSI clock used as L
 430:Drivers/STM32L4xx_HAL_Driver/Inc/stm32l4xx_ll_rcc.h **** #define LL_RCC_LPUART1_CLKSOURCE_LSE       RCC_CCIPR_LPUART1SEL            /*!< LSE clock used as L
 431:Drivers/STM32L4xx_HAL_Driver/Inc/stm32l4xx_ll_rcc.h **** /**
 432:Drivers/STM32L4xx_HAL_Driver/Inc/stm32l4xx_ll_rcc.h ****   * @}
 433:Drivers/STM32L4xx_HAL_Driver/Inc/stm32l4xx_ll_rcc.h ****   */
 434:Drivers/STM32L4xx_HAL_Driver/Inc/stm32l4xx_ll_rcc.h **** 
 435:Drivers/STM32L4xx_HAL_Driver/Inc/stm32l4xx_ll_rcc.h **** /** @defgroup RCC_LL_EC_I2C1_CLKSOURCE  Peripheral I2C clock source selection
 436:Drivers/STM32L4xx_HAL_Driver/Inc/stm32l4xx_ll_rcc.h ****   * @{
 437:Drivers/STM32L4xx_HAL_Driver/Inc/stm32l4xx_ll_rcc.h ****   */
 438:Drivers/STM32L4xx_HAL_Driver/Inc/stm32l4xx_ll_rcc.h **** #define LL_RCC_I2C1_CLKSOURCE_PCLK1        (((uint32_t)RCC_OFFSET_CCIPR << 24U) | ((uint32_t)RCC_CC
 439:Drivers/STM32L4xx_HAL_Driver/Inc/stm32l4xx_ll_rcc.h **** #define LL_RCC_I2C1_CLKSOURCE_SYSCLK       (((uint32_t)RCC_OFFSET_CCIPR << 24U) | ((uint32_t)RCC_CC
 440:Drivers/STM32L4xx_HAL_Driver/Inc/stm32l4xx_ll_rcc.h **** #define LL_RCC_I2C1_CLKSOURCE_HSI          (((uint32_t)RCC_OFFSET_CCIPR << 24U) | ((uint32_t)RCC_CC
 441:Drivers/STM32L4xx_HAL_Driver/Inc/stm32l4xx_ll_rcc.h **** #if defined(RCC_CCIPR_I2C2SEL)
 442:Drivers/STM32L4xx_HAL_Driver/Inc/stm32l4xx_ll_rcc.h **** #define LL_RCC_I2C2_CLKSOURCE_PCLK1        (((uint32_t)RCC_OFFSET_CCIPR << 24U) | ((uint32_t)RCC_CC
 443:Drivers/STM32L4xx_HAL_Driver/Inc/stm32l4xx_ll_rcc.h **** #define LL_RCC_I2C2_CLKSOURCE_SYSCLK       (((uint32_t)RCC_OFFSET_CCIPR << 24U) | ((uint32_t)RCC_CC
 444:Drivers/STM32L4xx_HAL_Driver/Inc/stm32l4xx_ll_rcc.h **** #define LL_RCC_I2C2_CLKSOURCE_HSI          (((uint32_t)RCC_OFFSET_CCIPR << 24U) | ((uint32_t)RCC_CC
 445:Drivers/STM32L4xx_HAL_Driver/Inc/stm32l4xx_ll_rcc.h **** #endif /* RCC_CCIPR_I2C2SEL */
 446:Drivers/STM32L4xx_HAL_Driver/Inc/stm32l4xx_ll_rcc.h **** #define LL_RCC_I2C3_CLKSOURCE_PCLK1        (((uint32_t)RCC_OFFSET_CCIPR << 24U) | ((uint32_t)RCC_CC
 447:Drivers/STM32L4xx_HAL_Driver/Inc/stm32l4xx_ll_rcc.h **** #define LL_RCC_I2C3_CLKSOURCE_SYSCLK       (((uint32_t)RCC_OFFSET_CCIPR << 24U) | ((uint32_t)RCC_CC
 448:Drivers/STM32L4xx_HAL_Driver/Inc/stm32l4xx_ll_rcc.h **** #define LL_RCC_I2C3_CLKSOURCE_HSI          (((uint32_t)RCC_OFFSET_CCIPR << 24U) | ((uint32_t)RCC_CC
 449:Drivers/STM32L4xx_HAL_Driver/Inc/stm32l4xx_ll_rcc.h **** #if defined(RCC_CCIPR2_I2C4SEL)
 450:Drivers/STM32L4xx_HAL_Driver/Inc/stm32l4xx_ll_rcc.h **** #define LL_RCC_I2C4_CLKSOURCE_PCLK1        (((uint32_t)RCC_OFFSET_CCIPR2 << 24U) | ((uint32_t)RCC_C
 451:Drivers/STM32L4xx_HAL_Driver/Inc/stm32l4xx_ll_rcc.h **** #define LL_RCC_I2C4_CLKSOURCE_SYSCLK       (((uint32_t)RCC_OFFSET_CCIPR2 << 24U) | ((uint32_t)RCC_C
 452:Drivers/STM32L4xx_HAL_Driver/Inc/stm32l4xx_ll_rcc.h **** #define LL_RCC_I2C4_CLKSOURCE_HSI          (((uint32_t)RCC_OFFSET_CCIPR2 << 24U) | ((uint32_t)RCC_C
 453:Drivers/STM32L4xx_HAL_Driver/Inc/stm32l4xx_ll_rcc.h **** #endif /* RCC_CCIPR2_I2C4SEL */
 454:Drivers/STM32L4xx_HAL_Driver/Inc/stm32l4xx_ll_rcc.h **** /**
 455:Drivers/STM32L4xx_HAL_Driver/Inc/stm32l4xx_ll_rcc.h ****   * @}
 456:Drivers/STM32L4xx_HAL_Driver/Inc/stm32l4xx_ll_rcc.h ****   */
ARM GAS  C:\Temp\ccmvY2mT.s 			page 26


 457:Drivers/STM32L4xx_HAL_Driver/Inc/stm32l4xx_ll_rcc.h **** 
 458:Drivers/STM32L4xx_HAL_Driver/Inc/stm32l4xx_ll_rcc.h **** /** @defgroup RCC_LL_EC_LPTIM1_CLKSOURCE  Peripheral LPTIM clock source selection
 459:Drivers/STM32L4xx_HAL_Driver/Inc/stm32l4xx_ll_rcc.h ****   * @{
 460:Drivers/STM32L4xx_HAL_Driver/Inc/stm32l4xx_ll_rcc.h ****   */
 461:Drivers/STM32L4xx_HAL_Driver/Inc/stm32l4xx_ll_rcc.h **** #define LL_RCC_LPTIM1_CLKSOURCE_PCLK1      RCC_CCIPR_LPTIM1SEL                                    /
 462:Drivers/STM32L4xx_HAL_Driver/Inc/stm32l4xx_ll_rcc.h **** #define LL_RCC_LPTIM1_CLKSOURCE_LSI        (RCC_CCIPR_LPTIM1SEL | (RCC_CCIPR_LPTIM1SEL_0 >> 16U)) /
 463:Drivers/STM32L4xx_HAL_Driver/Inc/stm32l4xx_ll_rcc.h **** #define LL_RCC_LPTIM1_CLKSOURCE_HSI        (RCC_CCIPR_LPTIM1SEL | (RCC_CCIPR_LPTIM1SEL_1 >> 16U)) /
 464:Drivers/STM32L4xx_HAL_Driver/Inc/stm32l4xx_ll_rcc.h **** #define LL_RCC_LPTIM1_CLKSOURCE_LSE        (RCC_CCIPR_LPTIM1SEL | (RCC_CCIPR_LPTIM1SEL >> 16U))   /
 465:Drivers/STM32L4xx_HAL_Driver/Inc/stm32l4xx_ll_rcc.h **** #define LL_RCC_LPTIM2_CLKSOURCE_PCLK1      RCC_CCIPR_LPTIM2SEL                                    /
 466:Drivers/STM32L4xx_HAL_Driver/Inc/stm32l4xx_ll_rcc.h **** #define LL_RCC_LPTIM2_CLKSOURCE_LSI        (RCC_CCIPR_LPTIM2SEL | (RCC_CCIPR_LPTIM2SEL_0 >> 16U)) /
 467:Drivers/STM32L4xx_HAL_Driver/Inc/stm32l4xx_ll_rcc.h **** #define LL_RCC_LPTIM2_CLKSOURCE_HSI        (RCC_CCIPR_LPTIM2SEL | (RCC_CCIPR_LPTIM2SEL_1 >> 16U)) /
 468:Drivers/STM32L4xx_HAL_Driver/Inc/stm32l4xx_ll_rcc.h **** #define LL_RCC_LPTIM2_CLKSOURCE_LSE        (RCC_CCIPR_LPTIM2SEL | (RCC_CCIPR_LPTIM2SEL >> 16U))   /
 469:Drivers/STM32L4xx_HAL_Driver/Inc/stm32l4xx_ll_rcc.h **** /**
 470:Drivers/STM32L4xx_HAL_Driver/Inc/stm32l4xx_ll_rcc.h ****   * @}
 471:Drivers/STM32L4xx_HAL_Driver/Inc/stm32l4xx_ll_rcc.h ****   */
 472:Drivers/STM32L4xx_HAL_Driver/Inc/stm32l4xx_ll_rcc.h **** 
 473:Drivers/STM32L4xx_HAL_Driver/Inc/stm32l4xx_ll_rcc.h **** /** @defgroup RCC_LL_EC_SAI1_CLKSOURCE  Peripheral SAI clock source selection
 474:Drivers/STM32L4xx_HAL_Driver/Inc/stm32l4xx_ll_rcc.h ****   * @{
 475:Drivers/STM32L4xx_HAL_Driver/Inc/stm32l4xx_ll_rcc.h ****   */
 476:Drivers/STM32L4xx_HAL_Driver/Inc/stm32l4xx_ll_rcc.h **** #if defined(RCC_CCIPR2_SAI1SEL)
 477:Drivers/STM32L4xx_HAL_Driver/Inc/stm32l4xx_ll_rcc.h **** #define LL_RCC_SAI1_CLKSOURCE_PLLSAI1      (RCC_CCIPR2_SAI1SEL << 16U)                          /*!
 478:Drivers/STM32L4xx_HAL_Driver/Inc/stm32l4xx_ll_rcc.h **** #define LL_RCC_SAI1_CLKSOURCE_PLLSAI2      ((RCC_CCIPR2_SAI1SEL << 16U) | RCC_CCIPR2_SAI1SEL_0) /*!
 479:Drivers/STM32L4xx_HAL_Driver/Inc/stm32l4xx_ll_rcc.h **** #define LL_RCC_SAI1_CLKSOURCE_PLL          ((RCC_CCIPR2_SAI1SEL << 16U) | RCC_CCIPR2_SAI1SEL_1) /*!
 480:Drivers/STM32L4xx_HAL_Driver/Inc/stm32l4xx_ll_rcc.h **** #define LL_RCC_SAI1_CLKSOURCE_PIN          ((RCC_CCIPR2_SAI1SEL << 16U) | (RCC_CCIPR2_SAI1SEL_1 | R
 481:Drivers/STM32L4xx_HAL_Driver/Inc/stm32l4xx_ll_rcc.h **** #define LL_RCC_SAI1_CLKSOURCE_HSI          ((RCC_CCIPR2_SAI1SEL << 16U) | RCC_CCIPR2_SAI1SEL_2) /*!
 482:Drivers/STM32L4xx_HAL_Driver/Inc/stm32l4xx_ll_rcc.h **** #elif defined(RCC_CCIPR_SAI1SEL)
 483:Drivers/STM32L4xx_HAL_Driver/Inc/stm32l4xx_ll_rcc.h **** #define LL_RCC_SAI1_CLKSOURCE_PLLSAI1      RCC_CCIPR_SAI1SEL                                    /*!
 484:Drivers/STM32L4xx_HAL_Driver/Inc/stm32l4xx_ll_rcc.h **** #if defined(RCC_PLLSAI2_SUPPORT)
 485:Drivers/STM32L4xx_HAL_Driver/Inc/stm32l4xx_ll_rcc.h **** #define LL_RCC_SAI1_CLKSOURCE_PLLSAI2      (RCC_CCIPR_SAI1SEL | (RCC_CCIPR_SAI1SEL_0 >> 16U))   /*!
 486:Drivers/STM32L4xx_HAL_Driver/Inc/stm32l4xx_ll_rcc.h **** #endif /* RCC_PLLSAI2_SUPPORT */
 487:Drivers/STM32L4xx_HAL_Driver/Inc/stm32l4xx_ll_rcc.h **** #define LL_RCC_SAI1_CLKSOURCE_PLL          (RCC_CCIPR_SAI1SEL | (RCC_CCIPR_SAI1SEL_1 >> 16U))   /*!
 488:Drivers/STM32L4xx_HAL_Driver/Inc/stm32l4xx_ll_rcc.h **** #define LL_RCC_SAI1_CLKSOURCE_PIN          (RCC_CCIPR_SAI1SEL | (RCC_CCIPR_SAI1SEL >> 16U))     /*!
 489:Drivers/STM32L4xx_HAL_Driver/Inc/stm32l4xx_ll_rcc.h **** #endif /* RCC_CCIPR2_SAI1SEL */
 490:Drivers/STM32L4xx_HAL_Driver/Inc/stm32l4xx_ll_rcc.h **** 
 491:Drivers/STM32L4xx_HAL_Driver/Inc/stm32l4xx_ll_rcc.h **** #if defined(RCC_CCIPR2_SAI2SEL)
 492:Drivers/STM32L4xx_HAL_Driver/Inc/stm32l4xx_ll_rcc.h **** #define LL_RCC_SAI2_CLKSOURCE_PLLSAI1      (RCC_CCIPR2_SAI2SEL << 16U)                          /*!
 493:Drivers/STM32L4xx_HAL_Driver/Inc/stm32l4xx_ll_rcc.h **** #define LL_RCC_SAI2_CLKSOURCE_PLLSAI2      ((RCC_CCIPR2_SAI2SEL << 16U) | RCC_CCIPR2_SAI2SEL_0) /*!
 494:Drivers/STM32L4xx_HAL_Driver/Inc/stm32l4xx_ll_rcc.h **** #define LL_RCC_SAI2_CLKSOURCE_PLL          ((RCC_CCIPR2_SAI2SEL << 16U) | RCC_CCIPR2_SAI2SEL_1) /*!
 495:Drivers/STM32L4xx_HAL_Driver/Inc/stm32l4xx_ll_rcc.h **** #define LL_RCC_SAI2_CLKSOURCE_PIN          ((RCC_CCIPR2_SAI2SEL << 16U) | (RCC_CCIPR2_SAI2SEL_1 | R
 496:Drivers/STM32L4xx_HAL_Driver/Inc/stm32l4xx_ll_rcc.h **** #define LL_RCC_SAI2_CLKSOURCE_HSI          ((RCC_CCIPR2_SAI2SEL << 16U) | RCC_CCIPR2_SAI2SEL_2) /*!
 497:Drivers/STM32L4xx_HAL_Driver/Inc/stm32l4xx_ll_rcc.h **** #elif defined(RCC_CCIPR_SAI2SEL)
 498:Drivers/STM32L4xx_HAL_Driver/Inc/stm32l4xx_ll_rcc.h **** #define LL_RCC_SAI2_CLKSOURCE_PLLSAI1      RCC_CCIPR_SAI2SEL                                    /*!
 499:Drivers/STM32L4xx_HAL_Driver/Inc/stm32l4xx_ll_rcc.h **** #if defined(RCC_PLLSAI2_SUPPORT)
 500:Drivers/STM32L4xx_HAL_Driver/Inc/stm32l4xx_ll_rcc.h **** #define LL_RCC_SAI2_CLKSOURCE_PLLSAI2      (RCC_CCIPR_SAI2SEL | (RCC_CCIPR_SAI2SEL_0 >> 16U))   /*!
 501:Drivers/STM32L4xx_HAL_Driver/Inc/stm32l4xx_ll_rcc.h **** #endif /* RCC_PLLSAI2_SUPPORT */
 502:Drivers/STM32L4xx_HAL_Driver/Inc/stm32l4xx_ll_rcc.h **** #define LL_RCC_SAI2_CLKSOURCE_PLL          (RCC_CCIPR_SAI2SEL | (RCC_CCIPR_SAI2SEL_1 >> 16U))   /*!
 503:Drivers/STM32L4xx_HAL_Driver/Inc/stm32l4xx_ll_rcc.h **** #define LL_RCC_SAI2_CLKSOURCE_PIN          (RCC_CCIPR_SAI2SEL | (RCC_CCIPR_SAI2SEL >> 16U))     /*!
 504:Drivers/STM32L4xx_HAL_Driver/Inc/stm32l4xx_ll_rcc.h **** #endif /* RCC_CCIPR2_SAI2SEL */
 505:Drivers/STM32L4xx_HAL_Driver/Inc/stm32l4xx_ll_rcc.h **** /**
 506:Drivers/STM32L4xx_HAL_Driver/Inc/stm32l4xx_ll_rcc.h ****   * @}
 507:Drivers/STM32L4xx_HAL_Driver/Inc/stm32l4xx_ll_rcc.h ****   */
 508:Drivers/STM32L4xx_HAL_Driver/Inc/stm32l4xx_ll_rcc.h **** 
 509:Drivers/STM32L4xx_HAL_Driver/Inc/stm32l4xx_ll_rcc.h **** #if defined(RCC_CCIPR2_SDMMCSEL)
 510:Drivers/STM32L4xx_HAL_Driver/Inc/stm32l4xx_ll_rcc.h **** /** @defgroup RCC_LL_EC_SDMMC1_KERNELCLKSOURCE  Peripheral SDMMC kernel clock source selection
 511:Drivers/STM32L4xx_HAL_Driver/Inc/stm32l4xx_ll_rcc.h ****   * @{
 512:Drivers/STM32L4xx_HAL_Driver/Inc/stm32l4xx_ll_rcc.h ****   */
 513:Drivers/STM32L4xx_HAL_Driver/Inc/stm32l4xx_ll_rcc.h **** #define LL_RCC_SDMMC1_KERNELCLKSOURCE_48CLK  0x00000000U          /*!< 48MHz clock from internal mu
ARM GAS  C:\Temp\ccmvY2mT.s 			page 27


 514:Drivers/STM32L4xx_HAL_Driver/Inc/stm32l4xx_ll_rcc.h **** #define LL_RCC_SDMMC1_KERNELCLKSOURCE_PLLP   RCC_CCIPR2_SDMMCSEL  /*!< PLLSAI3CLK clock used as SDM
 515:Drivers/STM32L4xx_HAL_Driver/Inc/stm32l4xx_ll_rcc.h **** /**
 516:Drivers/STM32L4xx_HAL_Driver/Inc/stm32l4xx_ll_rcc.h ****   * @}
 517:Drivers/STM32L4xx_HAL_Driver/Inc/stm32l4xx_ll_rcc.h ****   */
 518:Drivers/STM32L4xx_HAL_Driver/Inc/stm32l4xx_ll_rcc.h **** #endif /* RCC_CCIPR2_SDMMCSEL */
 519:Drivers/STM32L4xx_HAL_Driver/Inc/stm32l4xx_ll_rcc.h **** 
 520:Drivers/STM32L4xx_HAL_Driver/Inc/stm32l4xx_ll_rcc.h **** #if defined(SDMMC1)
 521:Drivers/STM32L4xx_HAL_Driver/Inc/stm32l4xx_ll_rcc.h **** /** @defgroup RCC_LL_EC_SDMMC1_CLKSOURCE  Peripheral SDMMC clock source selection
 522:Drivers/STM32L4xx_HAL_Driver/Inc/stm32l4xx_ll_rcc.h ****   * @{
 523:Drivers/STM32L4xx_HAL_Driver/Inc/stm32l4xx_ll_rcc.h ****   */
 524:Drivers/STM32L4xx_HAL_Driver/Inc/stm32l4xx_ll_rcc.h **** #if defined(RCC_HSI48_SUPPORT)
 525:Drivers/STM32L4xx_HAL_Driver/Inc/stm32l4xx_ll_rcc.h **** #define LL_RCC_SDMMC1_CLKSOURCE_HSI48      0x00000000U          /*!< HSI48 clock used as SDMMC1 clo
 526:Drivers/STM32L4xx_HAL_Driver/Inc/stm32l4xx_ll_rcc.h **** #else
 527:Drivers/STM32L4xx_HAL_Driver/Inc/stm32l4xx_ll_rcc.h **** #define LL_RCC_SDMMC1_CLKSOURCE_NONE       0x00000000U          /*!< No clock used as SDMMC1 clock 
 528:Drivers/STM32L4xx_HAL_Driver/Inc/stm32l4xx_ll_rcc.h **** #endif
 529:Drivers/STM32L4xx_HAL_Driver/Inc/stm32l4xx_ll_rcc.h **** #if defined(RCC_PLLSAI1_SUPPORT)
 530:Drivers/STM32L4xx_HAL_Driver/Inc/stm32l4xx_ll_rcc.h **** #define LL_RCC_SDMMC1_CLKSOURCE_PLLSAI1    RCC_CCIPR_CLK48SEL_0 /*!< PLLSAI1 clock used as SDMMC1 c
 531:Drivers/STM32L4xx_HAL_Driver/Inc/stm32l4xx_ll_rcc.h **** #endif /* RCC_PLLSAI1_SUPPORT */
 532:Drivers/STM32L4xx_HAL_Driver/Inc/stm32l4xx_ll_rcc.h **** #define LL_RCC_SDMMC1_CLKSOURCE_PLL        RCC_CCIPR_CLK48SEL_1 /*!< PLL clock used as SDMMC1 clock
 533:Drivers/STM32L4xx_HAL_Driver/Inc/stm32l4xx_ll_rcc.h **** #define LL_RCC_SDMMC1_CLKSOURCE_MSI        RCC_CCIPR_CLK48SEL   /*!< MSI clock used as SDMMC1 clock
 534:Drivers/STM32L4xx_HAL_Driver/Inc/stm32l4xx_ll_rcc.h **** /**
 535:Drivers/STM32L4xx_HAL_Driver/Inc/stm32l4xx_ll_rcc.h ****   * @}
 536:Drivers/STM32L4xx_HAL_Driver/Inc/stm32l4xx_ll_rcc.h ****   */
 537:Drivers/STM32L4xx_HAL_Driver/Inc/stm32l4xx_ll_rcc.h **** #endif /* SDMMC1 */
 538:Drivers/STM32L4xx_HAL_Driver/Inc/stm32l4xx_ll_rcc.h **** 
 539:Drivers/STM32L4xx_HAL_Driver/Inc/stm32l4xx_ll_rcc.h **** /** @defgroup RCC_LL_EC_RNG_CLKSOURCE  Peripheral RNG clock source selection
 540:Drivers/STM32L4xx_HAL_Driver/Inc/stm32l4xx_ll_rcc.h ****   * @{
 541:Drivers/STM32L4xx_HAL_Driver/Inc/stm32l4xx_ll_rcc.h ****   */
 542:Drivers/STM32L4xx_HAL_Driver/Inc/stm32l4xx_ll_rcc.h **** #if defined(RCC_HSI48_SUPPORT)
 543:Drivers/STM32L4xx_HAL_Driver/Inc/stm32l4xx_ll_rcc.h **** #define LL_RCC_RNG_CLKSOURCE_HSI48         0x00000000U          /*!< HSI48 clock used as RNG clock 
 544:Drivers/STM32L4xx_HAL_Driver/Inc/stm32l4xx_ll_rcc.h **** #else
 545:Drivers/STM32L4xx_HAL_Driver/Inc/stm32l4xx_ll_rcc.h **** #define LL_RCC_RNG_CLKSOURCE_NONE          0x00000000U          /*!< No clock used as RNG clock sou
 546:Drivers/STM32L4xx_HAL_Driver/Inc/stm32l4xx_ll_rcc.h **** #endif
 547:Drivers/STM32L4xx_HAL_Driver/Inc/stm32l4xx_ll_rcc.h **** #if defined(RCC_PLLSAI1_SUPPORT)
 548:Drivers/STM32L4xx_HAL_Driver/Inc/stm32l4xx_ll_rcc.h **** #define LL_RCC_RNG_CLKSOURCE_PLLSAI1       RCC_CCIPR_CLK48SEL_0 /*!< PLLSAI1 clock used as RNG cloc
 549:Drivers/STM32L4xx_HAL_Driver/Inc/stm32l4xx_ll_rcc.h **** #endif /* RCC_PLLSAI1_SUPPORT */
 550:Drivers/STM32L4xx_HAL_Driver/Inc/stm32l4xx_ll_rcc.h **** #define LL_RCC_RNG_CLKSOURCE_PLL           RCC_CCIPR_CLK48SEL_1 /*!< PLL clock used as RNG clock so
 551:Drivers/STM32L4xx_HAL_Driver/Inc/stm32l4xx_ll_rcc.h **** #define LL_RCC_RNG_CLKSOURCE_MSI           RCC_CCIPR_CLK48SEL   /*!< MSI clock used as RNG clock so
 552:Drivers/STM32L4xx_HAL_Driver/Inc/stm32l4xx_ll_rcc.h **** /**
 553:Drivers/STM32L4xx_HAL_Driver/Inc/stm32l4xx_ll_rcc.h ****   * @}
 554:Drivers/STM32L4xx_HAL_Driver/Inc/stm32l4xx_ll_rcc.h ****   */
 555:Drivers/STM32L4xx_HAL_Driver/Inc/stm32l4xx_ll_rcc.h **** 
 556:Drivers/STM32L4xx_HAL_Driver/Inc/stm32l4xx_ll_rcc.h **** #if defined(USB_OTG_FS) || defined(USB)
 557:Drivers/STM32L4xx_HAL_Driver/Inc/stm32l4xx_ll_rcc.h **** /** @defgroup RCC_LL_EC_USB_CLKSOURCE  Peripheral USB clock source selection
 558:Drivers/STM32L4xx_HAL_Driver/Inc/stm32l4xx_ll_rcc.h ****   * @{
 559:Drivers/STM32L4xx_HAL_Driver/Inc/stm32l4xx_ll_rcc.h ****   */
 560:Drivers/STM32L4xx_HAL_Driver/Inc/stm32l4xx_ll_rcc.h **** #if defined(RCC_HSI48_SUPPORT)
 561:Drivers/STM32L4xx_HAL_Driver/Inc/stm32l4xx_ll_rcc.h **** #define LL_RCC_USB_CLKSOURCE_HSI48         0x00000000U          /*!< HSI48 clock used as USB clock 
 562:Drivers/STM32L4xx_HAL_Driver/Inc/stm32l4xx_ll_rcc.h **** #else
 563:Drivers/STM32L4xx_HAL_Driver/Inc/stm32l4xx_ll_rcc.h **** #define LL_RCC_USB_CLKSOURCE_NONE          0x00000000U          /*!< No clock used as USB clock sou
 564:Drivers/STM32L4xx_HAL_Driver/Inc/stm32l4xx_ll_rcc.h **** #endif
 565:Drivers/STM32L4xx_HAL_Driver/Inc/stm32l4xx_ll_rcc.h **** #if defined(RCC_PLLSAI1_SUPPORT)
 566:Drivers/STM32L4xx_HAL_Driver/Inc/stm32l4xx_ll_rcc.h **** #define LL_RCC_USB_CLKSOURCE_PLLSAI1       RCC_CCIPR_CLK48SEL_0 /*!< PLLSAI1 clock used as USB cloc
 567:Drivers/STM32L4xx_HAL_Driver/Inc/stm32l4xx_ll_rcc.h **** #endif /* RCC_PLLSAI1_SUPPORT */
 568:Drivers/STM32L4xx_HAL_Driver/Inc/stm32l4xx_ll_rcc.h **** #define LL_RCC_USB_CLKSOURCE_PLL           RCC_CCIPR_CLK48SEL_1 /*!< PLL clock used as USB clock so
 569:Drivers/STM32L4xx_HAL_Driver/Inc/stm32l4xx_ll_rcc.h **** #define LL_RCC_USB_CLKSOURCE_MSI           RCC_CCIPR_CLK48SEL   /*!< MSI clock used as USB clock so
 570:Drivers/STM32L4xx_HAL_Driver/Inc/stm32l4xx_ll_rcc.h **** /**
ARM GAS  C:\Temp\ccmvY2mT.s 			page 28


 571:Drivers/STM32L4xx_HAL_Driver/Inc/stm32l4xx_ll_rcc.h ****   * @}
 572:Drivers/STM32L4xx_HAL_Driver/Inc/stm32l4xx_ll_rcc.h ****   */
 573:Drivers/STM32L4xx_HAL_Driver/Inc/stm32l4xx_ll_rcc.h **** 
 574:Drivers/STM32L4xx_HAL_Driver/Inc/stm32l4xx_ll_rcc.h **** #endif /* USB_OTG_FS || USB */
 575:Drivers/STM32L4xx_HAL_Driver/Inc/stm32l4xx_ll_rcc.h **** 
 576:Drivers/STM32L4xx_HAL_Driver/Inc/stm32l4xx_ll_rcc.h **** /** @defgroup RCC_LL_EC_ADC_CLKSOURCE  Peripheral ADC clock source selection
 577:Drivers/STM32L4xx_HAL_Driver/Inc/stm32l4xx_ll_rcc.h ****   * @{
 578:Drivers/STM32L4xx_HAL_Driver/Inc/stm32l4xx_ll_rcc.h ****   */
 579:Drivers/STM32L4xx_HAL_Driver/Inc/stm32l4xx_ll_rcc.h **** #define LL_RCC_ADC_CLKSOURCE_NONE          0x00000000U          /*!< No clock used as ADC clock sou
 580:Drivers/STM32L4xx_HAL_Driver/Inc/stm32l4xx_ll_rcc.h **** #if defined(RCC_PLLSAI1_SUPPORT)
 581:Drivers/STM32L4xx_HAL_Driver/Inc/stm32l4xx_ll_rcc.h **** #define LL_RCC_ADC_CLKSOURCE_PLLSAI1       RCC_CCIPR_ADCSEL_0   /*!< PLLSAI1 clock used as ADC cloc
 582:Drivers/STM32L4xx_HAL_Driver/Inc/stm32l4xx_ll_rcc.h **** #endif /* RCC_PLLSAI1_SUPPORT */
 583:Drivers/STM32L4xx_HAL_Driver/Inc/stm32l4xx_ll_rcc.h **** #if defined(RCC_PLLSAI2_SUPPORT) && !defined(LTDC)
 584:Drivers/STM32L4xx_HAL_Driver/Inc/stm32l4xx_ll_rcc.h **** #define LL_RCC_ADC_CLKSOURCE_PLLSAI2       RCC_CCIPR_ADCSEL_1   /*!< PLLSAI2 clock used as ADC cloc
 585:Drivers/STM32L4xx_HAL_Driver/Inc/stm32l4xx_ll_rcc.h **** #endif /* RCC_PLLSAI2_SUPPORT */
 586:Drivers/STM32L4xx_HAL_Driver/Inc/stm32l4xx_ll_rcc.h **** #if defined(RCC_CCIPR_ADCSEL)
 587:Drivers/STM32L4xx_HAL_Driver/Inc/stm32l4xx_ll_rcc.h **** #define LL_RCC_ADC_CLKSOURCE_SYSCLK        RCC_CCIPR_ADCSEL     /*!< SYSCLK clock used as ADC clock
 588:Drivers/STM32L4xx_HAL_Driver/Inc/stm32l4xx_ll_rcc.h **** #else
 589:Drivers/STM32L4xx_HAL_Driver/Inc/stm32l4xx_ll_rcc.h **** #define LL_RCC_ADC_CLKSOURCE_SYSCLK        0x30000000U          /*!< SYSCLK clock used as ADC clock
 590:Drivers/STM32L4xx_HAL_Driver/Inc/stm32l4xx_ll_rcc.h **** #endif
 591:Drivers/STM32L4xx_HAL_Driver/Inc/stm32l4xx_ll_rcc.h **** /**
 592:Drivers/STM32L4xx_HAL_Driver/Inc/stm32l4xx_ll_rcc.h ****   * @}
 593:Drivers/STM32L4xx_HAL_Driver/Inc/stm32l4xx_ll_rcc.h ****   */
 594:Drivers/STM32L4xx_HAL_Driver/Inc/stm32l4xx_ll_rcc.h **** 
 595:Drivers/STM32L4xx_HAL_Driver/Inc/stm32l4xx_ll_rcc.h **** #if defined(SWPMI1)
 596:Drivers/STM32L4xx_HAL_Driver/Inc/stm32l4xx_ll_rcc.h **** /** @defgroup RCC_LL_EC_SWPMI1_CLKSOURCE  Peripheral SWPMI1 clock source selection
 597:Drivers/STM32L4xx_HAL_Driver/Inc/stm32l4xx_ll_rcc.h ****   * @{
 598:Drivers/STM32L4xx_HAL_Driver/Inc/stm32l4xx_ll_rcc.h ****   */
 599:Drivers/STM32L4xx_HAL_Driver/Inc/stm32l4xx_ll_rcc.h **** #define LL_RCC_SWPMI1_CLKSOURCE_PCLK1      0x00000000U          /*!< PCLK1 used as SWPMI1 clock sou
 600:Drivers/STM32L4xx_HAL_Driver/Inc/stm32l4xx_ll_rcc.h **** #define LL_RCC_SWPMI1_CLKSOURCE_HSI        RCC_CCIPR_SWPMI1SEL  /*!< HSI used as SWPMI1 clock sourc
 601:Drivers/STM32L4xx_HAL_Driver/Inc/stm32l4xx_ll_rcc.h **** /**
 602:Drivers/STM32L4xx_HAL_Driver/Inc/stm32l4xx_ll_rcc.h ****   * @}
 603:Drivers/STM32L4xx_HAL_Driver/Inc/stm32l4xx_ll_rcc.h ****   */
 604:Drivers/STM32L4xx_HAL_Driver/Inc/stm32l4xx_ll_rcc.h **** #endif /* SWPMI1 */
 605:Drivers/STM32L4xx_HAL_Driver/Inc/stm32l4xx_ll_rcc.h **** 
 606:Drivers/STM32L4xx_HAL_Driver/Inc/stm32l4xx_ll_rcc.h **** #if defined(DFSDM1_Channel0)
 607:Drivers/STM32L4xx_HAL_Driver/Inc/stm32l4xx_ll_rcc.h **** #if defined(RCC_CCIPR2_ADFSDM1SEL)
 608:Drivers/STM32L4xx_HAL_Driver/Inc/stm32l4xx_ll_rcc.h **** /** @defgroup RCC_LL_EC_DFSDM1_AUDIO_CLKSOURCE  Peripheral DFSDM1 Audio clock source selection
 609:Drivers/STM32L4xx_HAL_Driver/Inc/stm32l4xx_ll_rcc.h ****   * @{
 610:Drivers/STM32L4xx_HAL_Driver/Inc/stm32l4xx_ll_rcc.h ****   */
 611:Drivers/STM32L4xx_HAL_Driver/Inc/stm32l4xx_ll_rcc.h **** #define LL_RCC_DFSDM1_AUDIO_CLKSOURCE_SAI1 0x00000000U             /*!< SAI1 clock used as DFSDM1 A
 612:Drivers/STM32L4xx_HAL_Driver/Inc/stm32l4xx_ll_rcc.h **** #define LL_RCC_DFSDM1_AUDIO_CLKSOURCE_HSI  RCC_CCIPR2_ADFSDM1SEL_0 /*!< HSI clock used as DFSDM1 Au
 613:Drivers/STM32L4xx_HAL_Driver/Inc/stm32l4xx_ll_rcc.h **** #define LL_RCC_DFSDM1_AUDIO_CLKSOURCE_MSI  RCC_CCIPR2_ADFSDM1SEL_1 /*!< MSI clock used as DFSDM1 Au
 614:Drivers/STM32L4xx_HAL_Driver/Inc/stm32l4xx_ll_rcc.h **** /**
 615:Drivers/STM32L4xx_HAL_Driver/Inc/stm32l4xx_ll_rcc.h ****   * @}
 616:Drivers/STM32L4xx_HAL_Driver/Inc/stm32l4xx_ll_rcc.h ****   */
 617:Drivers/STM32L4xx_HAL_Driver/Inc/stm32l4xx_ll_rcc.h **** #endif /* RCC_CCIPR2_ADFSDM1SEL */
 618:Drivers/STM32L4xx_HAL_Driver/Inc/stm32l4xx_ll_rcc.h **** 
 619:Drivers/STM32L4xx_HAL_Driver/Inc/stm32l4xx_ll_rcc.h **** /** @defgroup RCC_LL_EC_DFSDM1_CLKSOURCE  Peripheral DFSDM1 clock source selection
 620:Drivers/STM32L4xx_HAL_Driver/Inc/stm32l4xx_ll_rcc.h ****   * @{
 621:Drivers/STM32L4xx_HAL_Driver/Inc/stm32l4xx_ll_rcc.h ****   */
 622:Drivers/STM32L4xx_HAL_Driver/Inc/stm32l4xx_ll_rcc.h **** #if defined(RCC_CCIPR2_DFSDM1SEL)
 623:Drivers/STM32L4xx_HAL_Driver/Inc/stm32l4xx_ll_rcc.h **** #define LL_RCC_DFSDM1_CLKSOURCE_PCLK2      0x00000000U          /*!< PCLK2 used as DFSDM1 clock sou
 624:Drivers/STM32L4xx_HAL_Driver/Inc/stm32l4xx_ll_rcc.h **** #define LL_RCC_DFSDM1_CLKSOURCE_SYSCLK     RCC_CCIPR2_DFSDM1SEL /*!< SYSCLK used as DFSDM1 clock so
 625:Drivers/STM32L4xx_HAL_Driver/Inc/stm32l4xx_ll_rcc.h **** #else
 626:Drivers/STM32L4xx_HAL_Driver/Inc/stm32l4xx_ll_rcc.h **** #define LL_RCC_DFSDM1_CLKSOURCE_PCLK2      0x00000000U          /*!< PCLK2 used as DFSDM1 clock sou
 627:Drivers/STM32L4xx_HAL_Driver/Inc/stm32l4xx_ll_rcc.h **** #define LL_RCC_DFSDM1_CLKSOURCE_SYSCLK     RCC_CCIPR_DFSDM1SEL  /*!< SYSCLK used as DFSDM1 clock so
ARM GAS  C:\Temp\ccmvY2mT.s 			page 29


 628:Drivers/STM32L4xx_HAL_Driver/Inc/stm32l4xx_ll_rcc.h **** #endif /* RCC_CCIPR2_DFSDM1SEL */
 629:Drivers/STM32L4xx_HAL_Driver/Inc/stm32l4xx_ll_rcc.h **** /**
 630:Drivers/STM32L4xx_HAL_Driver/Inc/stm32l4xx_ll_rcc.h ****   * @}
 631:Drivers/STM32L4xx_HAL_Driver/Inc/stm32l4xx_ll_rcc.h ****   */
 632:Drivers/STM32L4xx_HAL_Driver/Inc/stm32l4xx_ll_rcc.h **** #endif /* DFSDM1_Channel0 */
 633:Drivers/STM32L4xx_HAL_Driver/Inc/stm32l4xx_ll_rcc.h **** 
 634:Drivers/STM32L4xx_HAL_Driver/Inc/stm32l4xx_ll_rcc.h **** #if defined(DSI)
 635:Drivers/STM32L4xx_HAL_Driver/Inc/stm32l4xx_ll_rcc.h **** /** @defgroup RCC_LL_EC_DSI_CLKSOURCE  Peripheral DSI clock source selection
 636:Drivers/STM32L4xx_HAL_Driver/Inc/stm32l4xx_ll_rcc.h ****   * @{
 637:Drivers/STM32L4xx_HAL_Driver/Inc/stm32l4xx_ll_rcc.h ****   */
 638:Drivers/STM32L4xx_HAL_Driver/Inc/stm32l4xx_ll_rcc.h **** #define LL_RCC_DSI_CLKSOURCE_PHY          0x00000000U           /*!< DSI-PHY clock used as DSI byte
 639:Drivers/STM32L4xx_HAL_Driver/Inc/stm32l4xx_ll_rcc.h **** #define LL_RCC_DSI_CLKSOURCE_PLL          RCC_CCIPR2_DSISEL     /*!< PLL clock used as DSI byte lan
 640:Drivers/STM32L4xx_HAL_Driver/Inc/stm32l4xx_ll_rcc.h **** /**
 641:Drivers/STM32L4xx_HAL_Driver/Inc/stm32l4xx_ll_rcc.h ****   * @}
 642:Drivers/STM32L4xx_HAL_Driver/Inc/stm32l4xx_ll_rcc.h ****   */
 643:Drivers/STM32L4xx_HAL_Driver/Inc/stm32l4xx_ll_rcc.h **** #endif /* DSI */
 644:Drivers/STM32L4xx_HAL_Driver/Inc/stm32l4xx_ll_rcc.h **** 
 645:Drivers/STM32L4xx_HAL_Driver/Inc/stm32l4xx_ll_rcc.h **** #if defined(LTDC)
 646:Drivers/STM32L4xx_HAL_Driver/Inc/stm32l4xx_ll_rcc.h **** /** @defgroup RCC_LL_EC_LTDC_CLKSOURCE  Peripheral LTDC clock source selection
 647:Drivers/STM32L4xx_HAL_Driver/Inc/stm32l4xx_ll_rcc.h ****   * @{
 648:Drivers/STM32L4xx_HAL_Driver/Inc/stm32l4xx_ll_rcc.h ****   */
 649:Drivers/STM32L4xx_HAL_Driver/Inc/stm32l4xx_ll_rcc.h **** #define LL_RCC_LTDC_CLKSOURCE_PLLSAI2R_DIV2  0x00000000U              /*!< PLLSAI2DIVR divided by 2
 650:Drivers/STM32L4xx_HAL_Driver/Inc/stm32l4xx_ll_rcc.h **** #define LL_RCC_LTDC_CLKSOURCE_PLLSAI2R_DIV4  RCC_CCIPR2_PLLSAI2DIVR_0 /*!< PLLSAI2DIVR divided by 4
 651:Drivers/STM32L4xx_HAL_Driver/Inc/stm32l4xx_ll_rcc.h **** #define LL_RCC_LTDC_CLKSOURCE_PLLSAI2R_DIV8  RCC_CCIPR2_PLLSAI2DIVR_1 /*!< PLLSAI2DIVR divided by 8
 652:Drivers/STM32L4xx_HAL_Driver/Inc/stm32l4xx_ll_rcc.h **** #define LL_RCC_LTDC_CLKSOURCE_PLLSAI2R_DIV16 RCC_CCIPR2_PLLSAI2DIVR   /*!< PLLSAI2DIVR divided by 1
 653:Drivers/STM32L4xx_HAL_Driver/Inc/stm32l4xx_ll_rcc.h **** /**
 654:Drivers/STM32L4xx_HAL_Driver/Inc/stm32l4xx_ll_rcc.h ****   * @}
 655:Drivers/STM32L4xx_HAL_Driver/Inc/stm32l4xx_ll_rcc.h ****   */
 656:Drivers/STM32L4xx_HAL_Driver/Inc/stm32l4xx_ll_rcc.h **** #endif /* LTDC */
 657:Drivers/STM32L4xx_HAL_Driver/Inc/stm32l4xx_ll_rcc.h **** 
 658:Drivers/STM32L4xx_HAL_Driver/Inc/stm32l4xx_ll_rcc.h **** #if defined(OCTOSPI1)
 659:Drivers/STM32L4xx_HAL_Driver/Inc/stm32l4xx_ll_rcc.h **** /** @defgroup RCC_LL_EC_OCTOSPI  Peripheral OCTOSPI get clock source
 660:Drivers/STM32L4xx_HAL_Driver/Inc/stm32l4xx_ll_rcc.h ****   * @{
 661:Drivers/STM32L4xx_HAL_Driver/Inc/stm32l4xx_ll_rcc.h ****   */
 662:Drivers/STM32L4xx_HAL_Driver/Inc/stm32l4xx_ll_rcc.h **** #define LL_RCC_OCTOSPI_CLKSOURCE_SYSCLK    0x00000000U           /*!< SYSCLK used as OctoSPI clock 
 663:Drivers/STM32L4xx_HAL_Driver/Inc/stm32l4xx_ll_rcc.h **** #define LL_RCC_OCTOSPI_CLKSOURCE_MSI       RCC_CCIPR2_OSPISEL_0  /*!< MSI used as OctoSPI clock sou
 664:Drivers/STM32L4xx_HAL_Driver/Inc/stm32l4xx_ll_rcc.h **** #define LL_RCC_OCTOSPI_CLKSOURCE_PLL       RCC_CCIPR2_OSPISEL_1  /*!< PLL used as OctoSPI clock sou
 665:Drivers/STM32L4xx_HAL_Driver/Inc/stm32l4xx_ll_rcc.h **** /**
 666:Drivers/STM32L4xx_HAL_Driver/Inc/stm32l4xx_ll_rcc.h ****   * @}
 667:Drivers/STM32L4xx_HAL_Driver/Inc/stm32l4xx_ll_rcc.h ****   */
 668:Drivers/STM32L4xx_HAL_Driver/Inc/stm32l4xx_ll_rcc.h **** #endif /* OCTOSPI1 */
 669:Drivers/STM32L4xx_HAL_Driver/Inc/stm32l4xx_ll_rcc.h **** 
 670:Drivers/STM32L4xx_HAL_Driver/Inc/stm32l4xx_ll_rcc.h **** /** @defgroup RCC_LL_EC_USART1 Peripheral USART get clock source
 671:Drivers/STM32L4xx_HAL_Driver/Inc/stm32l4xx_ll_rcc.h ****   * @{
 672:Drivers/STM32L4xx_HAL_Driver/Inc/stm32l4xx_ll_rcc.h ****   */
 673:Drivers/STM32L4xx_HAL_Driver/Inc/stm32l4xx_ll_rcc.h **** #define LL_RCC_USART1_CLKSOURCE            RCC_CCIPR_USART1SEL /*!< USART1 Clock source selection *
 674:Drivers/STM32L4xx_HAL_Driver/Inc/stm32l4xx_ll_rcc.h **** #define LL_RCC_USART2_CLKSOURCE            RCC_CCIPR_USART2SEL /*!< USART2 Clock source selection *
 675:Drivers/STM32L4xx_HAL_Driver/Inc/stm32l4xx_ll_rcc.h **** #if defined(RCC_CCIPR_USART3SEL)
 676:Drivers/STM32L4xx_HAL_Driver/Inc/stm32l4xx_ll_rcc.h **** #define LL_RCC_USART3_CLKSOURCE            RCC_CCIPR_USART3SEL /*!< USART3 Clock source selection *
 677:Drivers/STM32L4xx_HAL_Driver/Inc/stm32l4xx_ll_rcc.h **** #endif /* RCC_CCIPR_USART3SEL */
 678:Drivers/STM32L4xx_HAL_Driver/Inc/stm32l4xx_ll_rcc.h **** /**
 679:Drivers/STM32L4xx_HAL_Driver/Inc/stm32l4xx_ll_rcc.h ****   * @}
 680:Drivers/STM32L4xx_HAL_Driver/Inc/stm32l4xx_ll_rcc.h ****   */
 681:Drivers/STM32L4xx_HAL_Driver/Inc/stm32l4xx_ll_rcc.h **** 
 682:Drivers/STM32L4xx_HAL_Driver/Inc/stm32l4xx_ll_rcc.h **** #if defined(RCC_CCIPR_UART4SEL) || defined(RCC_CCIPR_UART5SEL)
 683:Drivers/STM32L4xx_HAL_Driver/Inc/stm32l4xx_ll_rcc.h **** /** @defgroup RCC_LL_EC_UART4 Peripheral UART get clock source
 684:Drivers/STM32L4xx_HAL_Driver/Inc/stm32l4xx_ll_rcc.h ****   * @{
ARM GAS  C:\Temp\ccmvY2mT.s 			page 30


 685:Drivers/STM32L4xx_HAL_Driver/Inc/stm32l4xx_ll_rcc.h ****   */
 686:Drivers/STM32L4xx_HAL_Driver/Inc/stm32l4xx_ll_rcc.h **** #if defined(RCC_CCIPR_UART4SEL)
 687:Drivers/STM32L4xx_HAL_Driver/Inc/stm32l4xx_ll_rcc.h **** #define LL_RCC_UART4_CLKSOURCE             RCC_CCIPR_UART4SEL /*!< UART4 Clock source selection */
 688:Drivers/STM32L4xx_HAL_Driver/Inc/stm32l4xx_ll_rcc.h **** #endif /* RCC_CCIPR_UART4SEL */
 689:Drivers/STM32L4xx_HAL_Driver/Inc/stm32l4xx_ll_rcc.h **** #if defined(RCC_CCIPR_UART5SEL)
 690:Drivers/STM32L4xx_HAL_Driver/Inc/stm32l4xx_ll_rcc.h **** #define LL_RCC_UART5_CLKSOURCE             RCC_CCIPR_UART5SEL /*!< UART5 Clock source selection */
 691:Drivers/STM32L4xx_HAL_Driver/Inc/stm32l4xx_ll_rcc.h **** #endif /* RCC_CCIPR_UART5SEL */
 692:Drivers/STM32L4xx_HAL_Driver/Inc/stm32l4xx_ll_rcc.h **** /**
 693:Drivers/STM32L4xx_HAL_Driver/Inc/stm32l4xx_ll_rcc.h ****   * @}
 694:Drivers/STM32L4xx_HAL_Driver/Inc/stm32l4xx_ll_rcc.h ****   */
 695:Drivers/STM32L4xx_HAL_Driver/Inc/stm32l4xx_ll_rcc.h **** #endif /* RCC_CCIPR_UART4SEL || RCC_CCIPR_UART5SEL */
 696:Drivers/STM32L4xx_HAL_Driver/Inc/stm32l4xx_ll_rcc.h **** 
 697:Drivers/STM32L4xx_HAL_Driver/Inc/stm32l4xx_ll_rcc.h **** /** @defgroup RCC_LL_EC_LPUART1 Peripheral LPUART get clock source
 698:Drivers/STM32L4xx_HAL_Driver/Inc/stm32l4xx_ll_rcc.h ****   * @{
 699:Drivers/STM32L4xx_HAL_Driver/Inc/stm32l4xx_ll_rcc.h ****   */
 700:Drivers/STM32L4xx_HAL_Driver/Inc/stm32l4xx_ll_rcc.h **** #define LL_RCC_LPUART1_CLKSOURCE           RCC_CCIPR_LPUART1SEL /*!< LPUART1 Clock source selection
 701:Drivers/STM32L4xx_HAL_Driver/Inc/stm32l4xx_ll_rcc.h **** /**
 702:Drivers/STM32L4xx_HAL_Driver/Inc/stm32l4xx_ll_rcc.h ****   * @}
 703:Drivers/STM32L4xx_HAL_Driver/Inc/stm32l4xx_ll_rcc.h ****   */
 704:Drivers/STM32L4xx_HAL_Driver/Inc/stm32l4xx_ll_rcc.h **** 
 705:Drivers/STM32L4xx_HAL_Driver/Inc/stm32l4xx_ll_rcc.h **** /** @defgroup RCC_LL_EC_I2C1 Peripheral I2C get clock source
 706:Drivers/STM32L4xx_HAL_Driver/Inc/stm32l4xx_ll_rcc.h ****   * @{
 707:Drivers/STM32L4xx_HAL_Driver/Inc/stm32l4xx_ll_rcc.h ****   */
 708:Drivers/STM32L4xx_HAL_Driver/Inc/stm32l4xx_ll_rcc.h **** #define LL_RCC_I2C1_CLKSOURCE              (((uint32_t)RCC_OFFSET_CCIPR << 24U) | ((uint32_t)RCC_CC
 709:Drivers/STM32L4xx_HAL_Driver/Inc/stm32l4xx_ll_rcc.h **** #if defined(RCC_CCIPR_I2C2SEL)
 710:Drivers/STM32L4xx_HAL_Driver/Inc/stm32l4xx_ll_rcc.h **** #define LL_RCC_I2C2_CLKSOURCE              (((uint32_t)RCC_OFFSET_CCIPR << 24U) | ((uint32_t)RCC_CC
 711:Drivers/STM32L4xx_HAL_Driver/Inc/stm32l4xx_ll_rcc.h **** #endif /* RCC_CCIPR_I2C2SEL */
 712:Drivers/STM32L4xx_HAL_Driver/Inc/stm32l4xx_ll_rcc.h **** #define LL_RCC_I2C3_CLKSOURCE              (((uint32_t)RCC_OFFSET_CCIPR << 24U) | ((uint32_t)RCC_CC
 713:Drivers/STM32L4xx_HAL_Driver/Inc/stm32l4xx_ll_rcc.h **** #if defined(RCC_CCIPR2_I2C4SEL)
 714:Drivers/STM32L4xx_HAL_Driver/Inc/stm32l4xx_ll_rcc.h **** #define LL_RCC_I2C4_CLKSOURCE              (((uint32_t)RCC_OFFSET_CCIPR2 << 24U) | ((uint32_t)RCC_C
 715:Drivers/STM32L4xx_HAL_Driver/Inc/stm32l4xx_ll_rcc.h **** #endif /* RCC_CCIPR2_I2C4SEL */
 716:Drivers/STM32L4xx_HAL_Driver/Inc/stm32l4xx_ll_rcc.h **** /**
 717:Drivers/STM32L4xx_HAL_Driver/Inc/stm32l4xx_ll_rcc.h ****   * @}
 718:Drivers/STM32L4xx_HAL_Driver/Inc/stm32l4xx_ll_rcc.h ****   */
 719:Drivers/STM32L4xx_HAL_Driver/Inc/stm32l4xx_ll_rcc.h **** 
 720:Drivers/STM32L4xx_HAL_Driver/Inc/stm32l4xx_ll_rcc.h **** /** @defgroup RCC_LL_EC_LPTIM1 Peripheral LPTIM get clock source
 721:Drivers/STM32L4xx_HAL_Driver/Inc/stm32l4xx_ll_rcc.h ****   * @{
 722:Drivers/STM32L4xx_HAL_Driver/Inc/stm32l4xx_ll_rcc.h ****   */
 723:Drivers/STM32L4xx_HAL_Driver/Inc/stm32l4xx_ll_rcc.h **** #define LL_RCC_LPTIM1_CLKSOURCE            RCC_CCIPR_LPTIM1SEL /*!< LPTIM1 Clock source selection *
 724:Drivers/STM32L4xx_HAL_Driver/Inc/stm32l4xx_ll_rcc.h **** #define LL_RCC_LPTIM2_CLKSOURCE            RCC_CCIPR_LPTIM2SEL /*!< LPTIM2 Clock source selection *
 725:Drivers/STM32L4xx_HAL_Driver/Inc/stm32l4xx_ll_rcc.h **** /**
 726:Drivers/STM32L4xx_HAL_Driver/Inc/stm32l4xx_ll_rcc.h ****   * @}
 727:Drivers/STM32L4xx_HAL_Driver/Inc/stm32l4xx_ll_rcc.h ****   */
 728:Drivers/STM32L4xx_HAL_Driver/Inc/stm32l4xx_ll_rcc.h **** 
 729:Drivers/STM32L4xx_HAL_Driver/Inc/stm32l4xx_ll_rcc.h **** #if defined(RCC_CCIPR_SAI1SEL) || defined(RCC_CCIPR2_SAI1SEL)
 730:Drivers/STM32L4xx_HAL_Driver/Inc/stm32l4xx_ll_rcc.h **** /** @defgroup RCC_LL_EC_SAI1  Peripheral SAI get clock source
 731:Drivers/STM32L4xx_HAL_Driver/Inc/stm32l4xx_ll_rcc.h ****   * @{
 732:Drivers/STM32L4xx_HAL_Driver/Inc/stm32l4xx_ll_rcc.h ****   */
 733:Drivers/STM32L4xx_HAL_Driver/Inc/stm32l4xx_ll_rcc.h **** #if defined(RCC_CCIPR2_SAI1SEL)
 734:Drivers/STM32L4xx_HAL_Driver/Inc/stm32l4xx_ll_rcc.h **** #define LL_RCC_SAI1_CLKSOURCE              RCC_CCIPR2_SAI1SEL /*!< SAI1 Clock source selection */
 735:Drivers/STM32L4xx_HAL_Driver/Inc/stm32l4xx_ll_rcc.h **** #else
 736:Drivers/STM32L4xx_HAL_Driver/Inc/stm32l4xx_ll_rcc.h **** #define LL_RCC_SAI1_CLKSOURCE              RCC_CCIPR_SAI1SEL /*!< SAI1 Clock source selection */
 737:Drivers/STM32L4xx_HAL_Driver/Inc/stm32l4xx_ll_rcc.h **** #endif /* RCC_CCIPR2_SAI1SEL */
 738:Drivers/STM32L4xx_HAL_Driver/Inc/stm32l4xx_ll_rcc.h **** #if defined(RCC_CCIPR2_SAI2SEL)
 739:Drivers/STM32L4xx_HAL_Driver/Inc/stm32l4xx_ll_rcc.h **** #define LL_RCC_SAI2_CLKSOURCE              RCC_CCIPR2_SAI2SEL /*!< SAI2 Clock source selection */
 740:Drivers/STM32L4xx_HAL_Driver/Inc/stm32l4xx_ll_rcc.h **** #elif defined(RCC_CCIPR_SAI2SEL)
 741:Drivers/STM32L4xx_HAL_Driver/Inc/stm32l4xx_ll_rcc.h **** #define LL_RCC_SAI2_CLKSOURCE              RCC_CCIPR_SAI2SEL /*!< SAI2 Clock source selection */
ARM GAS  C:\Temp\ccmvY2mT.s 			page 31


 742:Drivers/STM32L4xx_HAL_Driver/Inc/stm32l4xx_ll_rcc.h **** #endif /* RCC_CCIPR2_SAI2SEL */
 743:Drivers/STM32L4xx_HAL_Driver/Inc/stm32l4xx_ll_rcc.h **** /**
 744:Drivers/STM32L4xx_HAL_Driver/Inc/stm32l4xx_ll_rcc.h ****   * @}
 745:Drivers/STM32L4xx_HAL_Driver/Inc/stm32l4xx_ll_rcc.h ****   */
 746:Drivers/STM32L4xx_HAL_Driver/Inc/stm32l4xx_ll_rcc.h **** #endif /* RCC_CCIPR_SAI1SEL || RCC_CCIPR2_SAI1SEL */
 747:Drivers/STM32L4xx_HAL_Driver/Inc/stm32l4xx_ll_rcc.h **** 
 748:Drivers/STM32L4xx_HAL_Driver/Inc/stm32l4xx_ll_rcc.h **** #if defined(SDMMC1)
 749:Drivers/STM32L4xx_HAL_Driver/Inc/stm32l4xx_ll_rcc.h **** #if defined(RCC_CCIPR2_SDMMCSEL)
 750:Drivers/STM32L4xx_HAL_Driver/Inc/stm32l4xx_ll_rcc.h **** /** @defgroup RCC_LL_EC_SDMMC1_KERNEL  Peripheral SDMMC get kernel clock source
 751:Drivers/STM32L4xx_HAL_Driver/Inc/stm32l4xx_ll_rcc.h ****   * @{
 752:Drivers/STM32L4xx_HAL_Driver/Inc/stm32l4xx_ll_rcc.h ****   */
 753:Drivers/STM32L4xx_HAL_Driver/Inc/stm32l4xx_ll_rcc.h **** #define LL_RCC_SDMMC1_KERNELCLKSOURCE      RCC_CCIPR2_SDMMCSEL /*!< SDMMC1 Kernel Clock source sele
 754:Drivers/STM32L4xx_HAL_Driver/Inc/stm32l4xx_ll_rcc.h **** /**
 755:Drivers/STM32L4xx_HAL_Driver/Inc/stm32l4xx_ll_rcc.h ****   * @}
 756:Drivers/STM32L4xx_HAL_Driver/Inc/stm32l4xx_ll_rcc.h ****   */
 757:Drivers/STM32L4xx_HAL_Driver/Inc/stm32l4xx_ll_rcc.h **** #endif /* RCC_CCIPR2_SDMMCSEL */
 758:Drivers/STM32L4xx_HAL_Driver/Inc/stm32l4xx_ll_rcc.h **** 
 759:Drivers/STM32L4xx_HAL_Driver/Inc/stm32l4xx_ll_rcc.h **** /** @defgroup RCC_LL_EC_SDMMC1  Peripheral SDMMC get clock source
 760:Drivers/STM32L4xx_HAL_Driver/Inc/stm32l4xx_ll_rcc.h ****   * @{
 761:Drivers/STM32L4xx_HAL_Driver/Inc/stm32l4xx_ll_rcc.h ****   */
 762:Drivers/STM32L4xx_HAL_Driver/Inc/stm32l4xx_ll_rcc.h **** #define LL_RCC_SDMMC1_CLKSOURCE            RCC_CCIPR_CLK48SEL /*!< SDMMC1 Clock source selection */
 763:Drivers/STM32L4xx_HAL_Driver/Inc/stm32l4xx_ll_rcc.h **** /**
 764:Drivers/STM32L4xx_HAL_Driver/Inc/stm32l4xx_ll_rcc.h ****   * @}
 765:Drivers/STM32L4xx_HAL_Driver/Inc/stm32l4xx_ll_rcc.h ****   */
 766:Drivers/STM32L4xx_HAL_Driver/Inc/stm32l4xx_ll_rcc.h **** #endif /* SDMMC1 */
 767:Drivers/STM32L4xx_HAL_Driver/Inc/stm32l4xx_ll_rcc.h **** 
 768:Drivers/STM32L4xx_HAL_Driver/Inc/stm32l4xx_ll_rcc.h **** /** @defgroup RCC_LL_EC_RNG  Peripheral RNG get clock source
 769:Drivers/STM32L4xx_HAL_Driver/Inc/stm32l4xx_ll_rcc.h ****   * @{
 770:Drivers/STM32L4xx_HAL_Driver/Inc/stm32l4xx_ll_rcc.h ****   */
 771:Drivers/STM32L4xx_HAL_Driver/Inc/stm32l4xx_ll_rcc.h **** #define LL_RCC_RNG_CLKSOURCE               RCC_CCIPR_CLK48SEL /*!< RNG Clock source selection */
 772:Drivers/STM32L4xx_HAL_Driver/Inc/stm32l4xx_ll_rcc.h **** /**
 773:Drivers/STM32L4xx_HAL_Driver/Inc/stm32l4xx_ll_rcc.h ****   * @}
 774:Drivers/STM32L4xx_HAL_Driver/Inc/stm32l4xx_ll_rcc.h ****   */
 775:Drivers/STM32L4xx_HAL_Driver/Inc/stm32l4xx_ll_rcc.h **** 
 776:Drivers/STM32L4xx_HAL_Driver/Inc/stm32l4xx_ll_rcc.h **** #if defined(USB_OTG_FS) || defined(USB)
 777:Drivers/STM32L4xx_HAL_Driver/Inc/stm32l4xx_ll_rcc.h **** /** @defgroup RCC_LL_EC_USB  Peripheral USB get clock source
 778:Drivers/STM32L4xx_HAL_Driver/Inc/stm32l4xx_ll_rcc.h ****   * @{
 779:Drivers/STM32L4xx_HAL_Driver/Inc/stm32l4xx_ll_rcc.h ****   */
 780:Drivers/STM32L4xx_HAL_Driver/Inc/stm32l4xx_ll_rcc.h **** #define LL_RCC_USB_CLKSOURCE               RCC_CCIPR_CLK48SEL /*!< USB Clock source selection */
 781:Drivers/STM32L4xx_HAL_Driver/Inc/stm32l4xx_ll_rcc.h **** /**
 782:Drivers/STM32L4xx_HAL_Driver/Inc/stm32l4xx_ll_rcc.h ****   * @}
 783:Drivers/STM32L4xx_HAL_Driver/Inc/stm32l4xx_ll_rcc.h ****   */
 784:Drivers/STM32L4xx_HAL_Driver/Inc/stm32l4xx_ll_rcc.h **** #endif /* USB_OTG_FS || USB */
 785:Drivers/STM32L4xx_HAL_Driver/Inc/stm32l4xx_ll_rcc.h **** 
 786:Drivers/STM32L4xx_HAL_Driver/Inc/stm32l4xx_ll_rcc.h **** /** @defgroup RCC_LL_EC_ADC  Peripheral ADC get clock source
 787:Drivers/STM32L4xx_HAL_Driver/Inc/stm32l4xx_ll_rcc.h ****   * @{
 788:Drivers/STM32L4xx_HAL_Driver/Inc/stm32l4xx_ll_rcc.h ****   */
 789:Drivers/STM32L4xx_HAL_Driver/Inc/stm32l4xx_ll_rcc.h **** #if defined(RCC_CCIPR_ADCSEL)
 790:Drivers/STM32L4xx_HAL_Driver/Inc/stm32l4xx_ll_rcc.h **** #define LL_RCC_ADC_CLKSOURCE               RCC_CCIPR_ADCSEL /*!< ADC Clock source selection */
 791:Drivers/STM32L4xx_HAL_Driver/Inc/stm32l4xx_ll_rcc.h **** #else
 792:Drivers/STM32L4xx_HAL_Driver/Inc/stm32l4xx_ll_rcc.h **** #define LL_RCC_ADC_CLKSOURCE               0x30000000U /*!< ADC Clock source selection */
 793:Drivers/STM32L4xx_HAL_Driver/Inc/stm32l4xx_ll_rcc.h **** #endif
 794:Drivers/STM32L4xx_HAL_Driver/Inc/stm32l4xx_ll_rcc.h **** /**
 795:Drivers/STM32L4xx_HAL_Driver/Inc/stm32l4xx_ll_rcc.h ****   * @}
 796:Drivers/STM32L4xx_HAL_Driver/Inc/stm32l4xx_ll_rcc.h ****   */
 797:Drivers/STM32L4xx_HAL_Driver/Inc/stm32l4xx_ll_rcc.h **** 
 798:Drivers/STM32L4xx_HAL_Driver/Inc/stm32l4xx_ll_rcc.h **** #if defined(SWPMI1)
ARM GAS  C:\Temp\ccmvY2mT.s 			page 32


 799:Drivers/STM32L4xx_HAL_Driver/Inc/stm32l4xx_ll_rcc.h **** /** @defgroup RCC_LL_EC_SWPMI1  Peripheral SWPMI1 get clock source
 800:Drivers/STM32L4xx_HAL_Driver/Inc/stm32l4xx_ll_rcc.h ****   * @{
 801:Drivers/STM32L4xx_HAL_Driver/Inc/stm32l4xx_ll_rcc.h ****   */
 802:Drivers/STM32L4xx_HAL_Driver/Inc/stm32l4xx_ll_rcc.h **** #define LL_RCC_SWPMI1_CLKSOURCE            RCC_CCIPR_SWPMI1SEL /*!< SWPMI1 Clock source selection *
 803:Drivers/STM32L4xx_HAL_Driver/Inc/stm32l4xx_ll_rcc.h **** /**
 804:Drivers/STM32L4xx_HAL_Driver/Inc/stm32l4xx_ll_rcc.h ****   * @}
 805:Drivers/STM32L4xx_HAL_Driver/Inc/stm32l4xx_ll_rcc.h ****   */
 806:Drivers/STM32L4xx_HAL_Driver/Inc/stm32l4xx_ll_rcc.h **** #endif /* SWPMI1 */
 807:Drivers/STM32L4xx_HAL_Driver/Inc/stm32l4xx_ll_rcc.h **** 
 808:Drivers/STM32L4xx_HAL_Driver/Inc/stm32l4xx_ll_rcc.h **** #if defined(DFSDM1_Channel0)
 809:Drivers/STM32L4xx_HAL_Driver/Inc/stm32l4xx_ll_rcc.h **** #if defined(RCC_CCIPR2_ADFSDM1SEL)
 810:Drivers/STM32L4xx_HAL_Driver/Inc/stm32l4xx_ll_rcc.h **** /** @defgroup RCC_LL_EC_DFSDM1_AUDIO  Peripheral DFSDM1 Audio get clock source
 811:Drivers/STM32L4xx_HAL_Driver/Inc/stm32l4xx_ll_rcc.h ****   * @{
 812:Drivers/STM32L4xx_HAL_Driver/Inc/stm32l4xx_ll_rcc.h ****   */
 813:Drivers/STM32L4xx_HAL_Driver/Inc/stm32l4xx_ll_rcc.h **** #define LL_RCC_DFSDM1_AUDIO_CLKSOURCE      RCC_CCIPR2_ADFSDM1SEL /* DFSDM1 Audio Clock source selec
 814:Drivers/STM32L4xx_HAL_Driver/Inc/stm32l4xx_ll_rcc.h **** /**
 815:Drivers/STM32L4xx_HAL_Driver/Inc/stm32l4xx_ll_rcc.h ****   * @}
 816:Drivers/STM32L4xx_HAL_Driver/Inc/stm32l4xx_ll_rcc.h ****   */
 817:Drivers/STM32L4xx_HAL_Driver/Inc/stm32l4xx_ll_rcc.h **** 
 818:Drivers/STM32L4xx_HAL_Driver/Inc/stm32l4xx_ll_rcc.h **** #endif /* RCC_CCIPR2_ADFSDM1SEL */
 819:Drivers/STM32L4xx_HAL_Driver/Inc/stm32l4xx_ll_rcc.h **** /** @defgroup RCC_LL_EC_DFSDM1  Peripheral DFSDM1 get clock source
 820:Drivers/STM32L4xx_HAL_Driver/Inc/stm32l4xx_ll_rcc.h ****   * @{
 821:Drivers/STM32L4xx_HAL_Driver/Inc/stm32l4xx_ll_rcc.h ****   */
 822:Drivers/STM32L4xx_HAL_Driver/Inc/stm32l4xx_ll_rcc.h **** #if defined(RCC_CCIPR2_DFSDM1SEL)
 823:Drivers/STM32L4xx_HAL_Driver/Inc/stm32l4xx_ll_rcc.h **** #define LL_RCC_DFSDM1_CLKSOURCE            RCC_CCIPR2_DFSDM1SEL /*!< DFSDM1 Clock source selection 
 824:Drivers/STM32L4xx_HAL_Driver/Inc/stm32l4xx_ll_rcc.h **** #else
 825:Drivers/STM32L4xx_HAL_Driver/Inc/stm32l4xx_ll_rcc.h **** #define LL_RCC_DFSDM1_CLKSOURCE            RCC_CCIPR_DFSDM1SEL /*!< DFSDM1 Clock source selection *
 826:Drivers/STM32L4xx_HAL_Driver/Inc/stm32l4xx_ll_rcc.h **** #endif /* RCC_CCIPR2_DFSDM1SEL */
 827:Drivers/STM32L4xx_HAL_Driver/Inc/stm32l4xx_ll_rcc.h **** /**
 828:Drivers/STM32L4xx_HAL_Driver/Inc/stm32l4xx_ll_rcc.h ****   * @}
 829:Drivers/STM32L4xx_HAL_Driver/Inc/stm32l4xx_ll_rcc.h ****   */
 830:Drivers/STM32L4xx_HAL_Driver/Inc/stm32l4xx_ll_rcc.h **** #endif /* DFSDM1_Channel0 */
 831:Drivers/STM32L4xx_HAL_Driver/Inc/stm32l4xx_ll_rcc.h **** 
 832:Drivers/STM32L4xx_HAL_Driver/Inc/stm32l4xx_ll_rcc.h **** #if defined(DSI)
 833:Drivers/STM32L4xx_HAL_Driver/Inc/stm32l4xx_ll_rcc.h **** /** @defgroup RCC_LL_EC_DSI  Peripheral DSI get clock source
 834:Drivers/STM32L4xx_HAL_Driver/Inc/stm32l4xx_ll_rcc.h ****   * @{
 835:Drivers/STM32L4xx_HAL_Driver/Inc/stm32l4xx_ll_rcc.h ****   */
 836:Drivers/STM32L4xx_HAL_Driver/Inc/stm32l4xx_ll_rcc.h **** #define LL_RCC_DSI_CLKSOURCE               RCC_CCIPR2_DSISEL      /*!< DSI Clock source selection *
 837:Drivers/STM32L4xx_HAL_Driver/Inc/stm32l4xx_ll_rcc.h **** /**
 838:Drivers/STM32L4xx_HAL_Driver/Inc/stm32l4xx_ll_rcc.h ****   * @}
 839:Drivers/STM32L4xx_HAL_Driver/Inc/stm32l4xx_ll_rcc.h ****   */
 840:Drivers/STM32L4xx_HAL_Driver/Inc/stm32l4xx_ll_rcc.h **** #endif /* DSI */
 841:Drivers/STM32L4xx_HAL_Driver/Inc/stm32l4xx_ll_rcc.h **** 
 842:Drivers/STM32L4xx_HAL_Driver/Inc/stm32l4xx_ll_rcc.h **** #if defined(LTDC)
 843:Drivers/STM32L4xx_HAL_Driver/Inc/stm32l4xx_ll_rcc.h **** /** @defgroup RCC_LL_EC_LTDC  Peripheral LTDC get clock source
 844:Drivers/STM32L4xx_HAL_Driver/Inc/stm32l4xx_ll_rcc.h ****   * @{
 845:Drivers/STM32L4xx_HAL_Driver/Inc/stm32l4xx_ll_rcc.h ****   */
 846:Drivers/STM32L4xx_HAL_Driver/Inc/stm32l4xx_ll_rcc.h **** #define LL_RCC_LTDC_CLKSOURCE              RCC_CCIPR2_PLLSAI2DIVR /*!< LTDC Clock source selection 
 847:Drivers/STM32L4xx_HAL_Driver/Inc/stm32l4xx_ll_rcc.h **** /**
 848:Drivers/STM32L4xx_HAL_Driver/Inc/stm32l4xx_ll_rcc.h ****   * @}
 849:Drivers/STM32L4xx_HAL_Driver/Inc/stm32l4xx_ll_rcc.h ****   */
 850:Drivers/STM32L4xx_HAL_Driver/Inc/stm32l4xx_ll_rcc.h **** #endif /* LTDC */
 851:Drivers/STM32L4xx_HAL_Driver/Inc/stm32l4xx_ll_rcc.h **** 
 852:Drivers/STM32L4xx_HAL_Driver/Inc/stm32l4xx_ll_rcc.h **** #if defined(OCTOSPI1)
 853:Drivers/STM32L4xx_HAL_Driver/Inc/stm32l4xx_ll_rcc.h **** /** @defgroup RCC_LL_EC_OCTOSPI  Peripheral OCTOSPI get clock source
 854:Drivers/STM32L4xx_HAL_Driver/Inc/stm32l4xx_ll_rcc.h ****   * @{
 855:Drivers/STM32L4xx_HAL_Driver/Inc/stm32l4xx_ll_rcc.h ****   */
ARM GAS  C:\Temp\ccmvY2mT.s 			page 33


 856:Drivers/STM32L4xx_HAL_Driver/Inc/stm32l4xx_ll_rcc.h **** #define LL_RCC_OCTOSPI_CLKSOURCE           RCC_CCIPR2_OSPISEL    /*!< OctoSPI Clock source selectio
 857:Drivers/STM32L4xx_HAL_Driver/Inc/stm32l4xx_ll_rcc.h **** /**
 858:Drivers/STM32L4xx_HAL_Driver/Inc/stm32l4xx_ll_rcc.h ****   * @}
 859:Drivers/STM32L4xx_HAL_Driver/Inc/stm32l4xx_ll_rcc.h ****   */
 860:Drivers/STM32L4xx_HAL_Driver/Inc/stm32l4xx_ll_rcc.h **** #endif /* OCTOSPI1 */
 861:Drivers/STM32L4xx_HAL_Driver/Inc/stm32l4xx_ll_rcc.h **** 
 862:Drivers/STM32L4xx_HAL_Driver/Inc/stm32l4xx_ll_rcc.h **** 
 863:Drivers/STM32L4xx_HAL_Driver/Inc/stm32l4xx_ll_rcc.h **** /** @defgroup RCC_LL_EC_RTC_CLKSOURCE  RTC clock source selection
 864:Drivers/STM32L4xx_HAL_Driver/Inc/stm32l4xx_ll_rcc.h ****   * @{
 865:Drivers/STM32L4xx_HAL_Driver/Inc/stm32l4xx_ll_rcc.h ****   */
 866:Drivers/STM32L4xx_HAL_Driver/Inc/stm32l4xx_ll_rcc.h **** #define LL_RCC_RTC_CLKSOURCE_NONE          0x00000000U                   /*!< No clock used as RTC 
 867:Drivers/STM32L4xx_HAL_Driver/Inc/stm32l4xx_ll_rcc.h **** #define LL_RCC_RTC_CLKSOURCE_LSE           RCC_BDCR_RTCSEL_0       /*!< LSE oscillator clock used a
 868:Drivers/STM32L4xx_HAL_Driver/Inc/stm32l4xx_ll_rcc.h **** #define LL_RCC_RTC_CLKSOURCE_LSI           RCC_BDCR_RTCSEL_1       /*!< LSI oscillator clock used a
 869:Drivers/STM32L4xx_HAL_Driver/Inc/stm32l4xx_ll_rcc.h **** #define LL_RCC_RTC_CLKSOURCE_HSE_DIV32     RCC_BDCR_RTCSEL         /*!< HSE oscillator clock divide
 870:Drivers/STM32L4xx_HAL_Driver/Inc/stm32l4xx_ll_rcc.h **** /**
 871:Drivers/STM32L4xx_HAL_Driver/Inc/stm32l4xx_ll_rcc.h ****   * @}
 872:Drivers/STM32L4xx_HAL_Driver/Inc/stm32l4xx_ll_rcc.h ****   */
 873:Drivers/STM32L4xx_HAL_Driver/Inc/stm32l4xx_ll_rcc.h **** 
 874:Drivers/STM32L4xx_HAL_Driver/Inc/stm32l4xx_ll_rcc.h **** 
 875:Drivers/STM32L4xx_HAL_Driver/Inc/stm32l4xx_ll_rcc.h **** /** @defgroup RCC_LL_EC_PLLSOURCE  PLL, PLLSAI1 and PLLSAI2 entry clock source
 876:Drivers/STM32L4xx_HAL_Driver/Inc/stm32l4xx_ll_rcc.h ****   * @{
 877:Drivers/STM32L4xx_HAL_Driver/Inc/stm32l4xx_ll_rcc.h ****   */
 878:Drivers/STM32L4xx_HAL_Driver/Inc/stm32l4xx_ll_rcc.h **** #define LL_RCC_PLLSOURCE_NONE              0x00000000U             /*!< No clock */
 879:Drivers/STM32L4xx_HAL_Driver/Inc/stm32l4xx_ll_rcc.h **** #define LL_RCC_PLLSOURCE_MSI               RCC_PLLCFGR_PLLSRC_MSI  /*!< MSI clock selected as PLL e
 880:Drivers/STM32L4xx_HAL_Driver/Inc/stm32l4xx_ll_rcc.h **** #define LL_RCC_PLLSOURCE_HSI               RCC_PLLCFGR_PLLSRC_HSI  /*!< HSI16 clock selected as PLL
 881:Drivers/STM32L4xx_HAL_Driver/Inc/stm32l4xx_ll_rcc.h **** #define LL_RCC_PLLSOURCE_HSE               RCC_PLLCFGR_PLLSRC_HSE  /*!< HSE clock selected as PLL e
 882:Drivers/STM32L4xx_HAL_Driver/Inc/stm32l4xx_ll_rcc.h **** /**
 883:Drivers/STM32L4xx_HAL_Driver/Inc/stm32l4xx_ll_rcc.h ****   * @}
 884:Drivers/STM32L4xx_HAL_Driver/Inc/stm32l4xx_ll_rcc.h ****   */
 885:Drivers/STM32L4xx_HAL_Driver/Inc/stm32l4xx_ll_rcc.h **** 
 886:Drivers/STM32L4xx_HAL_Driver/Inc/stm32l4xx_ll_rcc.h **** /** @defgroup RCC_LL_EC_PLLM_DIV  PLL division factor
 887:Drivers/STM32L4xx_HAL_Driver/Inc/stm32l4xx_ll_rcc.h ****   * @{
 888:Drivers/STM32L4xx_HAL_Driver/Inc/stm32l4xx_ll_rcc.h ****   */
 889:Drivers/STM32L4xx_HAL_Driver/Inc/stm32l4xx_ll_rcc.h **** #define LL_RCC_PLLM_DIV_1                  0x00000000U                                             
 890:Drivers/STM32L4xx_HAL_Driver/Inc/stm32l4xx_ll_rcc.h **** #define LL_RCC_PLLM_DIV_2                  (RCC_PLLCFGR_PLLM_0)                                    
 891:Drivers/STM32L4xx_HAL_Driver/Inc/stm32l4xx_ll_rcc.h **** #define LL_RCC_PLLM_DIV_3                  (RCC_PLLCFGR_PLLM_1)                                    
 892:Drivers/STM32L4xx_HAL_Driver/Inc/stm32l4xx_ll_rcc.h **** #define LL_RCC_PLLM_DIV_4                  (RCC_PLLCFGR_PLLM_1 | RCC_PLLCFGR_PLLM_0)               
 893:Drivers/STM32L4xx_HAL_Driver/Inc/stm32l4xx_ll_rcc.h **** #define LL_RCC_PLLM_DIV_5                  (RCC_PLLCFGR_PLLM_2)                                    
 894:Drivers/STM32L4xx_HAL_Driver/Inc/stm32l4xx_ll_rcc.h **** #define LL_RCC_PLLM_DIV_6                  (RCC_PLLCFGR_PLLM_2 | RCC_PLLCFGR_PLLM_0)               
 895:Drivers/STM32L4xx_HAL_Driver/Inc/stm32l4xx_ll_rcc.h **** #define LL_RCC_PLLM_DIV_7                  (RCC_PLLCFGR_PLLM_2 | RCC_PLLCFGR_PLLM_1)               
 896:Drivers/STM32L4xx_HAL_Driver/Inc/stm32l4xx_ll_rcc.h **** #define LL_RCC_PLLM_DIV_8                  (RCC_PLLCFGR_PLLM_2 | RCC_PLLCFGR_PLLM_1 | RCC_PLLCFGR_P
 897:Drivers/STM32L4xx_HAL_Driver/Inc/stm32l4xx_ll_rcc.h **** #if defined(RCC_PLLM_DIV_1_16_SUPPORT)
 898:Drivers/STM32L4xx_HAL_Driver/Inc/stm32l4xx_ll_rcc.h **** #define LL_RCC_PLLM_DIV_9                  (RCC_PLLCFGR_PLLM_3)                                    
 899:Drivers/STM32L4xx_HAL_Driver/Inc/stm32l4xx_ll_rcc.h **** #define LL_RCC_PLLM_DIV_10                 (RCC_PLLCFGR_PLLM_3 | RCC_PLLCFGR_PLLM_0)               
 900:Drivers/STM32L4xx_HAL_Driver/Inc/stm32l4xx_ll_rcc.h **** #define LL_RCC_PLLM_DIV_11                 (RCC_PLLCFGR_PLLM_3 | RCC_PLLCFGR_PLLM_1)               
 901:Drivers/STM32L4xx_HAL_Driver/Inc/stm32l4xx_ll_rcc.h **** #define LL_RCC_PLLM_DIV_12                 (RCC_PLLCFGR_PLLM_3 | RCC_PLLCFGR_PLLM_1 | RCC_PLLCFGR_P
 902:Drivers/STM32L4xx_HAL_Driver/Inc/stm32l4xx_ll_rcc.h **** #define LL_RCC_PLLM_DIV_13                 (RCC_PLLCFGR_PLLM_3 | RCC_PLLCFGR_PLLM_2)               
 903:Drivers/STM32L4xx_HAL_Driver/Inc/stm32l4xx_ll_rcc.h **** #define LL_RCC_PLLM_DIV_14                 (RCC_PLLCFGR_PLLM_3 | RCC_PLLCFGR_PLLM_2 | RCC_PLLCFGR_P
 904:Drivers/STM32L4xx_HAL_Driver/Inc/stm32l4xx_ll_rcc.h **** #define LL_RCC_PLLM_DIV_15                 (RCC_PLLCFGR_PLLM_3 | RCC_PLLCFGR_PLLM_2 | RCC_PLLCFGR_P
 905:Drivers/STM32L4xx_HAL_Driver/Inc/stm32l4xx_ll_rcc.h **** #define LL_RCC_PLLM_DIV_16                 (RCC_PLLCFGR_PLLM_3 | RCC_PLLCFGR_PLLM_2 | RCC_PLLCFGR_P
 906:Drivers/STM32L4xx_HAL_Driver/Inc/stm32l4xx_ll_rcc.h **** #endif /* RCC_PLLM_DIV_1_16_SUPPORT */
 907:Drivers/STM32L4xx_HAL_Driver/Inc/stm32l4xx_ll_rcc.h **** /**
 908:Drivers/STM32L4xx_HAL_Driver/Inc/stm32l4xx_ll_rcc.h ****   * @}
 909:Drivers/STM32L4xx_HAL_Driver/Inc/stm32l4xx_ll_rcc.h ****   */
 910:Drivers/STM32L4xx_HAL_Driver/Inc/stm32l4xx_ll_rcc.h **** 
 911:Drivers/STM32L4xx_HAL_Driver/Inc/stm32l4xx_ll_rcc.h **** /** @defgroup RCC_LL_EC_PLLR_DIV  PLL division factor (PLLR)
 912:Drivers/STM32L4xx_HAL_Driver/Inc/stm32l4xx_ll_rcc.h ****   * @{
ARM GAS  C:\Temp\ccmvY2mT.s 			page 34


 913:Drivers/STM32L4xx_HAL_Driver/Inc/stm32l4xx_ll_rcc.h ****   */
 914:Drivers/STM32L4xx_HAL_Driver/Inc/stm32l4xx_ll_rcc.h **** #define LL_RCC_PLLR_DIV_2                  0x00000000U            /*!< Main PLL division factor for
 915:Drivers/STM32L4xx_HAL_Driver/Inc/stm32l4xx_ll_rcc.h **** #define LL_RCC_PLLR_DIV_4                  (RCC_PLLCFGR_PLLR_0)   /*!< Main PLL division factor for
 916:Drivers/STM32L4xx_HAL_Driver/Inc/stm32l4xx_ll_rcc.h **** #define LL_RCC_PLLR_DIV_6                  (RCC_PLLCFGR_PLLR_1)   /*!< Main PLL division factor for
 917:Drivers/STM32L4xx_HAL_Driver/Inc/stm32l4xx_ll_rcc.h **** #define LL_RCC_PLLR_DIV_8                  (RCC_PLLCFGR_PLLR)     /*!< Main PLL division factor for
 918:Drivers/STM32L4xx_HAL_Driver/Inc/stm32l4xx_ll_rcc.h **** /**
 919:Drivers/STM32L4xx_HAL_Driver/Inc/stm32l4xx_ll_rcc.h ****   * @}
 920:Drivers/STM32L4xx_HAL_Driver/Inc/stm32l4xx_ll_rcc.h ****   */
 921:Drivers/STM32L4xx_HAL_Driver/Inc/stm32l4xx_ll_rcc.h **** 
 922:Drivers/STM32L4xx_HAL_Driver/Inc/stm32l4xx_ll_rcc.h **** #if defined(RCC_PLLP_SUPPORT)
 923:Drivers/STM32L4xx_HAL_Driver/Inc/stm32l4xx_ll_rcc.h **** /** @defgroup RCC_LL_EC_PLLP_DIV  PLL division factor (PLLP)
 924:Drivers/STM32L4xx_HAL_Driver/Inc/stm32l4xx_ll_rcc.h ****   * @{
 925:Drivers/STM32L4xx_HAL_Driver/Inc/stm32l4xx_ll_rcc.h ****   */
 926:Drivers/STM32L4xx_HAL_Driver/Inc/stm32l4xx_ll_rcc.h **** #if defined(RCC_PLLP_DIV_2_31_SUPPORT)
 927:Drivers/STM32L4xx_HAL_Driver/Inc/stm32l4xx_ll_rcc.h **** #define LL_RCC_PLLP_DIV_2                  (RCC_PLLCFGR_PLLPDIV_1)                                 
 928:Drivers/STM32L4xx_HAL_Driver/Inc/stm32l4xx_ll_rcc.h **** #define LL_RCC_PLLP_DIV_3                  (RCC_PLLCFGR_PLLPDIV_1|RCC_PLLCFGR_PLLPDIV_0)           
 929:Drivers/STM32L4xx_HAL_Driver/Inc/stm32l4xx_ll_rcc.h **** #define LL_RCC_PLLP_DIV_4                  (RCC_PLLCFGR_PLLPDIV_2)                                 
 930:Drivers/STM32L4xx_HAL_Driver/Inc/stm32l4xx_ll_rcc.h **** #define LL_RCC_PLLP_DIV_5                  (RCC_PLLCFGR_PLLPDIV_2|RCC_PLLCFGR_PLLPDIV_0)           
 931:Drivers/STM32L4xx_HAL_Driver/Inc/stm32l4xx_ll_rcc.h **** #define LL_RCC_PLLP_DIV_6                  (RCC_PLLCFGR_PLLPDIV_2|RCC_PLLCFGR_PLLPDIV_1)           
 932:Drivers/STM32L4xx_HAL_Driver/Inc/stm32l4xx_ll_rcc.h **** #define LL_RCC_PLLP_DIV_7                  (RCC_PLLCFGR_PLLPDIV_2|RCC_PLLCFGR_PLLPDIV_1|RCC_PLLCFGR
 933:Drivers/STM32L4xx_HAL_Driver/Inc/stm32l4xx_ll_rcc.h **** #define LL_RCC_PLLP_DIV_8                  (RCC_PLLCFGR_PLLPDIV_3)                                 
 934:Drivers/STM32L4xx_HAL_Driver/Inc/stm32l4xx_ll_rcc.h **** #define LL_RCC_PLLP_DIV_9                  (RCC_PLLCFGR_PLLPDIV_3|RCC_PLLCFGR_PLLPDIV_0)           
 935:Drivers/STM32L4xx_HAL_Driver/Inc/stm32l4xx_ll_rcc.h **** #define LL_RCC_PLLP_DIV_10                 (RCC_PLLCFGR_PLLPDIV_3|RCC_PLLCFGR_PLLPDIV_1)           
 936:Drivers/STM32L4xx_HAL_Driver/Inc/stm32l4xx_ll_rcc.h **** #define LL_RCC_PLLP_DIV_11                 (RCC_PLLCFGR_PLLPDIV_3|RCC_PLLCFGR_PLLPDIV_1|RCC_PLLCFGR
 937:Drivers/STM32L4xx_HAL_Driver/Inc/stm32l4xx_ll_rcc.h **** #define LL_RCC_PLLP_DIV_12                 (RCC_PLLCFGR_PLLPDIV_3|RCC_PLLCFGR_PLLPDIV_2)           
 938:Drivers/STM32L4xx_HAL_Driver/Inc/stm32l4xx_ll_rcc.h **** #define LL_RCC_PLLP_DIV_13                 (RCC_PLLCFGR_PLLPDIV_3|RCC_PLLCFGR_PLLPDIV_2|RCC_PLLCFGR
 939:Drivers/STM32L4xx_HAL_Driver/Inc/stm32l4xx_ll_rcc.h **** #define LL_RCC_PLLP_DIV_14                 (RCC_PLLCFGR_PLLPDIV_3|RCC_PLLCFGR_PLLPDIV_2|RCC_PLLCFGR
 940:Drivers/STM32L4xx_HAL_Driver/Inc/stm32l4xx_ll_rcc.h **** #define LL_RCC_PLLP_DIV_15                 (RCC_PLLCFGR_PLLPDIV_3|RCC_PLLCFGR_PLLPDIV_2|RCC_PLLCFGR
 941:Drivers/STM32L4xx_HAL_Driver/Inc/stm32l4xx_ll_rcc.h **** #define LL_RCC_PLLP_DIV_16                 (RCC_PLLCFGR_PLLPDIV_4)                                 
 942:Drivers/STM32L4xx_HAL_Driver/Inc/stm32l4xx_ll_rcc.h **** #define LL_RCC_PLLP_DIV_17                 (RCC_PLLCFGR_PLLPDIV_4|RCC_PLLCFGR_PLLPDIV_0)           
 943:Drivers/STM32L4xx_HAL_Driver/Inc/stm32l4xx_ll_rcc.h **** #define LL_RCC_PLLP_DIV_18                 (RCC_PLLCFGR_PLLPDIV_4|RCC_PLLCFGR_PLLPDIV_1)           
 944:Drivers/STM32L4xx_HAL_Driver/Inc/stm32l4xx_ll_rcc.h **** #define LL_RCC_PLLP_DIV_19                 (RCC_PLLCFGR_PLLPDIV_4|RCC_PLLCFGR_PLLPDIV_1|RCC_PLLCFGR
 945:Drivers/STM32L4xx_HAL_Driver/Inc/stm32l4xx_ll_rcc.h **** #define LL_RCC_PLLP_DIV_20                 (RCC_PLLCFGR_PLLPDIV_4|RCC_PLLCFGR_PLLPDIV_2)           
 946:Drivers/STM32L4xx_HAL_Driver/Inc/stm32l4xx_ll_rcc.h **** #define LL_RCC_PLLP_DIV_21                 (RCC_PLLCFGR_PLLPDIV_4|RCC_PLLCFGR_PLLPDIV_2|RCC_PLLCFGR
 947:Drivers/STM32L4xx_HAL_Driver/Inc/stm32l4xx_ll_rcc.h **** #define LL_RCC_PLLP_DIV_22                 (RCC_PLLCFGR_PLLPDIV_4|RCC_PLLCFGR_PLLPDIV_2|RCC_PLLCFGR
 948:Drivers/STM32L4xx_HAL_Driver/Inc/stm32l4xx_ll_rcc.h **** #define LL_RCC_PLLP_DIV_23                 (RCC_PLLCFGR_PLLPDIV_4|RCC_PLLCFGR_PLLPDIV_2|RCC_PLLCFGR
 949:Drivers/STM32L4xx_HAL_Driver/Inc/stm32l4xx_ll_rcc.h **** #define LL_RCC_PLLP_DIV_24                 (RCC_PLLCFGR_PLLPDIV_4|RCC_PLLCFGR_PLLPDIV_3)           
 950:Drivers/STM32L4xx_HAL_Driver/Inc/stm32l4xx_ll_rcc.h **** #define LL_RCC_PLLP_DIV_25                 (RCC_PLLCFGR_PLLPDIV_4|RCC_PLLCFGR_PLLPDIV_3|RCC_PLLCFGR
 951:Drivers/STM32L4xx_HAL_Driver/Inc/stm32l4xx_ll_rcc.h **** #define LL_RCC_PLLP_DIV_26                 (RCC_PLLCFGR_PLLPDIV_4|RCC_PLLCFGR_PLLPDIV_3|RCC_PLLCFGR
 952:Drivers/STM32L4xx_HAL_Driver/Inc/stm32l4xx_ll_rcc.h **** #define LL_RCC_PLLP_DIV_27                 (RCC_PLLCFGR_PLLPDIV_4|RCC_PLLCFGR_PLLPDIV_3|RCC_PLLCFGR
 953:Drivers/STM32L4xx_HAL_Driver/Inc/stm32l4xx_ll_rcc.h **** #define LL_RCC_PLLP_DIV_28                 (RCC_PLLCFGR_PLLPDIV_4|RCC_PLLCFGR_PLLPDIV_3|RCC_PLLCFGR
 954:Drivers/STM32L4xx_HAL_Driver/Inc/stm32l4xx_ll_rcc.h **** #define LL_RCC_PLLP_DIV_29                 (RCC_PLLCFGR_PLLPDIV_4|RCC_PLLCFGR_PLLPDIV_3|RCC_PLLCFGR
 955:Drivers/STM32L4xx_HAL_Driver/Inc/stm32l4xx_ll_rcc.h **** #define LL_RCC_PLLP_DIV_30                 (RCC_PLLCFGR_PLLPDIV_4|RCC_PLLCFGR_PLLPDIV_3|RCC_PLLCFGR
 956:Drivers/STM32L4xx_HAL_Driver/Inc/stm32l4xx_ll_rcc.h **** #define LL_RCC_PLLP_DIV_31                 (RCC_PLLCFGR_PLLPDIV_4|RCC_PLLCFGR_PLLPDIV_3|RCC_PLLCFGR
 957:Drivers/STM32L4xx_HAL_Driver/Inc/stm32l4xx_ll_rcc.h **** #else
 958:Drivers/STM32L4xx_HAL_Driver/Inc/stm32l4xx_ll_rcc.h **** #define LL_RCC_PLLP_DIV_7                  0x00000000U            /*!< Main PLL division factor for
 959:Drivers/STM32L4xx_HAL_Driver/Inc/stm32l4xx_ll_rcc.h **** #define LL_RCC_PLLP_DIV_17                 (RCC_PLLCFGR_PLLP)     /*!< Main PLL division factor for
 960:Drivers/STM32L4xx_HAL_Driver/Inc/stm32l4xx_ll_rcc.h **** #endif /* RCC_PLLP_DIV_2_31_SUPPORT */
 961:Drivers/STM32L4xx_HAL_Driver/Inc/stm32l4xx_ll_rcc.h **** /**
 962:Drivers/STM32L4xx_HAL_Driver/Inc/stm32l4xx_ll_rcc.h ****   * @}
 963:Drivers/STM32L4xx_HAL_Driver/Inc/stm32l4xx_ll_rcc.h ****   */
 964:Drivers/STM32L4xx_HAL_Driver/Inc/stm32l4xx_ll_rcc.h **** #endif /* RCC_PLLP_SUPPORT */
 965:Drivers/STM32L4xx_HAL_Driver/Inc/stm32l4xx_ll_rcc.h **** 
 966:Drivers/STM32L4xx_HAL_Driver/Inc/stm32l4xx_ll_rcc.h **** /** @defgroup RCC_LL_EC_PLLQ_DIV  PLL division factor (PLLQ)
 967:Drivers/STM32L4xx_HAL_Driver/Inc/stm32l4xx_ll_rcc.h ****   * @{
 968:Drivers/STM32L4xx_HAL_Driver/Inc/stm32l4xx_ll_rcc.h ****   */
 969:Drivers/STM32L4xx_HAL_Driver/Inc/stm32l4xx_ll_rcc.h **** #define LL_RCC_PLLQ_DIV_2                  0x00000000U             /*!< Main PLL division factor fo
ARM GAS  C:\Temp\ccmvY2mT.s 			page 35


 970:Drivers/STM32L4xx_HAL_Driver/Inc/stm32l4xx_ll_rcc.h **** #define LL_RCC_PLLQ_DIV_4                  (RCC_PLLCFGR_PLLQ_0)    /*!< Main PLL division factor fo
 971:Drivers/STM32L4xx_HAL_Driver/Inc/stm32l4xx_ll_rcc.h **** #define LL_RCC_PLLQ_DIV_6                  (RCC_PLLCFGR_PLLQ_1)    /*!< Main PLL division factor fo
 972:Drivers/STM32L4xx_HAL_Driver/Inc/stm32l4xx_ll_rcc.h **** #define LL_RCC_PLLQ_DIV_8                  (RCC_PLLCFGR_PLLQ)      /*!< Main PLL division factor fo
 973:Drivers/STM32L4xx_HAL_Driver/Inc/stm32l4xx_ll_rcc.h **** /**
 974:Drivers/STM32L4xx_HAL_Driver/Inc/stm32l4xx_ll_rcc.h ****   * @}
 975:Drivers/STM32L4xx_HAL_Driver/Inc/stm32l4xx_ll_rcc.h ****   */
 976:Drivers/STM32L4xx_HAL_Driver/Inc/stm32l4xx_ll_rcc.h **** 
 977:Drivers/STM32L4xx_HAL_Driver/Inc/stm32l4xx_ll_rcc.h **** #if defined(RCC_PLLSAI1M_DIV_1_16_SUPPORT)
 978:Drivers/STM32L4xx_HAL_Driver/Inc/stm32l4xx_ll_rcc.h **** /** @defgroup RCC_LL_EC_PLLSAI1M  PLLSAI1 division factor (PLLSAI1M)
 979:Drivers/STM32L4xx_HAL_Driver/Inc/stm32l4xx_ll_rcc.h ****   * @{
 980:Drivers/STM32L4xx_HAL_Driver/Inc/stm32l4xx_ll_rcc.h ****   */
 981:Drivers/STM32L4xx_HAL_Driver/Inc/stm32l4xx_ll_rcc.h **** #define LL_RCC_PLLSAI1M_DIV_1              0x00000000U                                             
 982:Drivers/STM32L4xx_HAL_Driver/Inc/stm32l4xx_ll_rcc.h **** #define LL_RCC_PLLSAI1M_DIV_2              (RCC_PLLSAI1CFGR_PLLSAI1M_0)                            
 983:Drivers/STM32L4xx_HAL_Driver/Inc/stm32l4xx_ll_rcc.h **** #define LL_RCC_PLLSAI1M_DIV_3              (RCC_PLLSAI1CFGR_PLLSAI1M_1)                            
 984:Drivers/STM32L4xx_HAL_Driver/Inc/stm32l4xx_ll_rcc.h **** #define LL_RCC_PLLSAI1M_DIV_4              (RCC_PLLSAI1CFGR_PLLSAI1M_1|RCC_PLLSAI1CFGR_PLLSAI1M_0) 
 985:Drivers/STM32L4xx_HAL_Driver/Inc/stm32l4xx_ll_rcc.h **** #define LL_RCC_PLLSAI1M_DIV_5              (RCC_PLLSAI1CFGR_PLLSAI1M_2)                            
 986:Drivers/STM32L4xx_HAL_Driver/Inc/stm32l4xx_ll_rcc.h **** #define LL_RCC_PLLSAI1M_DIV_6              (RCC_PLLSAI1CFGR_PLLSAI1M_2|RCC_PLLSAI1CFGR_PLLSAI1M_0) 
 987:Drivers/STM32L4xx_HAL_Driver/Inc/stm32l4xx_ll_rcc.h **** #define LL_RCC_PLLSAI1M_DIV_7              (RCC_PLLSAI1CFGR_PLLSAI1M_2|RCC_PLLSAI1CFGR_PLLSAI1M_1) 
 988:Drivers/STM32L4xx_HAL_Driver/Inc/stm32l4xx_ll_rcc.h **** #define LL_RCC_PLLSAI1M_DIV_8              (RCC_PLLSAI1CFGR_PLLSAI1M_2|RCC_PLLSAI1CFGR_PLLSAI1M_1|R
 989:Drivers/STM32L4xx_HAL_Driver/Inc/stm32l4xx_ll_rcc.h **** #define LL_RCC_PLLSAI1M_DIV_9              (RCC_PLLSAI1CFGR_PLLSAI1M_3)                            
 990:Drivers/STM32L4xx_HAL_Driver/Inc/stm32l4xx_ll_rcc.h **** #define LL_RCC_PLLSAI1M_DIV_10             (RCC_PLLSAI1CFGR_PLLSAI1M_3|RCC_PLLSAI1CFGR_PLLSAI1M_0) 
 991:Drivers/STM32L4xx_HAL_Driver/Inc/stm32l4xx_ll_rcc.h **** #define LL_RCC_PLLSAI1M_DIV_11             (RCC_PLLSAI1CFGR_PLLSAI1M_3|RCC_PLLSAI1CFGR_PLLSAI1M_1) 
 992:Drivers/STM32L4xx_HAL_Driver/Inc/stm32l4xx_ll_rcc.h **** #define LL_RCC_PLLSAI1M_DIV_12             (RCC_PLLSAI1CFGR_PLLSAI1M_3|RCC_PLLSAI1CFGR_PLLSAI1M_1|R
 993:Drivers/STM32L4xx_HAL_Driver/Inc/stm32l4xx_ll_rcc.h **** #define LL_RCC_PLLSAI1M_DIV_13             (RCC_PLLSAI1CFGR_PLLSAI1M_3|RCC_PLLSAI1CFGR_PLLSAI1M_2) 
 994:Drivers/STM32L4xx_HAL_Driver/Inc/stm32l4xx_ll_rcc.h **** #define LL_RCC_PLLSAI1M_DIV_14             (RCC_PLLSAI1CFGR_PLLSAI1M_3|RCC_PLLSAI1CFGR_PLLSAI1M_2|R
 995:Drivers/STM32L4xx_HAL_Driver/Inc/stm32l4xx_ll_rcc.h **** #define LL_RCC_PLLSAI1M_DIV_15             (RCC_PLLSAI1CFGR_PLLSAI1M_3|RCC_PLLSAI1CFGR_PLLSAI1M_2|R
 996:Drivers/STM32L4xx_HAL_Driver/Inc/stm32l4xx_ll_rcc.h **** #define LL_RCC_PLLSAI1M_DIV_16             (RCC_PLLSAI1CFGR_PLLSAI1M_3|RCC_PLLSAI1CFGR_PLLSAI1M_2|R
 997:Drivers/STM32L4xx_HAL_Driver/Inc/stm32l4xx_ll_rcc.h **** /**
 998:Drivers/STM32L4xx_HAL_Driver/Inc/stm32l4xx_ll_rcc.h ****   * @}
 999:Drivers/STM32L4xx_HAL_Driver/Inc/stm32l4xx_ll_rcc.h ****   */
1000:Drivers/STM32L4xx_HAL_Driver/Inc/stm32l4xx_ll_rcc.h **** #endif /* RCC_PLLSAI1M_DIV_1_16_SUPPORT */
1001:Drivers/STM32L4xx_HAL_Driver/Inc/stm32l4xx_ll_rcc.h **** 
1002:Drivers/STM32L4xx_HAL_Driver/Inc/stm32l4xx_ll_rcc.h **** #if defined(RCC_PLLSAI1_SUPPORT)
1003:Drivers/STM32L4xx_HAL_Driver/Inc/stm32l4xx_ll_rcc.h **** /** @defgroup RCC_LL_EC_PLLSAI1Q  PLLSAI1 division factor (PLLSAI1Q)
1004:Drivers/STM32L4xx_HAL_Driver/Inc/stm32l4xx_ll_rcc.h ****   * @{
1005:Drivers/STM32L4xx_HAL_Driver/Inc/stm32l4xx_ll_rcc.h ****   */
1006:Drivers/STM32L4xx_HAL_Driver/Inc/stm32l4xx_ll_rcc.h **** #define LL_RCC_PLLSAI1Q_DIV_2              0x00000000U                  /*!< PLLSAI1 division facto
1007:Drivers/STM32L4xx_HAL_Driver/Inc/stm32l4xx_ll_rcc.h **** #define LL_RCC_PLLSAI1Q_DIV_4              (RCC_PLLSAI1CFGR_PLLSAI1Q_0) /*!< PLLSAI1 division facto
1008:Drivers/STM32L4xx_HAL_Driver/Inc/stm32l4xx_ll_rcc.h **** #define LL_RCC_PLLSAI1Q_DIV_6              (RCC_PLLSAI1CFGR_PLLSAI1Q_1) /*!< PLLSAI1 division facto
1009:Drivers/STM32L4xx_HAL_Driver/Inc/stm32l4xx_ll_rcc.h **** #define LL_RCC_PLLSAI1Q_DIV_8              (RCC_PLLSAI1CFGR_PLLSAI1Q)   /*!< PLLSAI1 division facto
1010:Drivers/STM32L4xx_HAL_Driver/Inc/stm32l4xx_ll_rcc.h **** /**
1011:Drivers/STM32L4xx_HAL_Driver/Inc/stm32l4xx_ll_rcc.h ****   * @}
1012:Drivers/STM32L4xx_HAL_Driver/Inc/stm32l4xx_ll_rcc.h ****   */
1013:Drivers/STM32L4xx_HAL_Driver/Inc/stm32l4xx_ll_rcc.h **** 
1014:Drivers/STM32L4xx_HAL_Driver/Inc/stm32l4xx_ll_rcc.h **** /** @defgroup RCC_LL_EC_PLLSAI1P  PLLSAI1 division factor (PLLSAI1P)
1015:Drivers/STM32L4xx_HAL_Driver/Inc/stm32l4xx_ll_rcc.h ****   * @{
1016:Drivers/STM32L4xx_HAL_Driver/Inc/stm32l4xx_ll_rcc.h ****   */
1017:Drivers/STM32L4xx_HAL_Driver/Inc/stm32l4xx_ll_rcc.h **** #if defined(RCC_PLLSAI1P_DIV_2_31_SUPPORT)
1018:Drivers/STM32L4xx_HAL_Driver/Inc/stm32l4xx_ll_rcc.h **** #define LL_RCC_PLLSAI1P_DIV_2              (RCC_PLLSAI1CFGR_PLLSAI1PDIV_1)                         
1019:Drivers/STM32L4xx_HAL_Driver/Inc/stm32l4xx_ll_rcc.h **** #define LL_RCC_PLLSAI1P_DIV_3              (RCC_PLLSAI1CFGR_PLLSAI1PDIV_1|RCC_PLLSAI1CFGR_PLLSAI1PD
1020:Drivers/STM32L4xx_HAL_Driver/Inc/stm32l4xx_ll_rcc.h **** #define LL_RCC_PLLSAI1P_DIV_4              (RCC_PLLSAI1CFGR_PLLSAI1PDIV_2)                         
1021:Drivers/STM32L4xx_HAL_Driver/Inc/stm32l4xx_ll_rcc.h **** #define LL_RCC_PLLSAI1P_DIV_5              (RCC_PLLSAI1CFGR_PLLSAI1PDIV_2|RCC_PLLSAI1CFGR_PLLSAI1PD
1022:Drivers/STM32L4xx_HAL_Driver/Inc/stm32l4xx_ll_rcc.h **** #define LL_RCC_PLLSAI1P_DIV_6              (RCC_PLLSAI1CFGR_PLLSAI1PDIV_2|RCC_PLLSAI1CFGR_PLLSAI1PD
1023:Drivers/STM32L4xx_HAL_Driver/Inc/stm32l4xx_ll_rcc.h **** #define LL_RCC_PLLSAI1P_DIV_7              (RCC_PLLSAI1CFGR_PLLSAI1PDIV_2|RCC_PLLSAI1CFGR_PLLSAI1PD
1024:Drivers/STM32L4xx_HAL_Driver/Inc/stm32l4xx_ll_rcc.h **** #define LL_RCC_PLLSAI1P_DIV_8              (RCC_PLLSAI1CFGR_PLLSAI1PDIV_3)                         
1025:Drivers/STM32L4xx_HAL_Driver/Inc/stm32l4xx_ll_rcc.h **** #define LL_RCC_PLLSAI1P_DIV_9              (RCC_PLLSAI1CFGR_PLLSAI1PDIV_3|RCC_PLLSAI1CFGR_PLLSAI1PD
1026:Drivers/STM32L4xx_HAL_Driver/Inc/stm32l4xx_ll_rcc.h **** #define LL_RCC_PLLSAI1P_DIV_10             (RCC_PLLSAI1CFGR_PLLSAI1PDIV_3|RCC_PLLSAI1CFGR_PLLSAI1PD
ARM GAS  C:\Temp\ccmvY2mT.s 			page 36


1027:Drivers/STM32L4xx_HAL_Driver/Inc/stm32l4xx_ll_rcc.h **** #define LL_RCC_PLLSAI1P_DIV_11             (RCC_PLLSAI1CFGR_PLLSAI1PDIV_3|RCC_PLLSAI1CFGR_PLLSAI1PD
1028:Drivers/STM32L4xx_HAL_Driver/Inc/stm32l4xx_ll_rcc.h **** #define LL_RCC_PLLSAI1P_DIV_12             (RCC_PLLSAI1CFGR_PLLSAI1PDIV_3|RCC_PLLSAI1CFGR_PLLSAI1PD
1029:Drivers/STM32L4xx_HAL_Driver/Inc/stm32l4xx_ll_rcc.h **** #define LL_RCC_PLLSAI1P_DIV_13             (RCC_PLLSAI1CFGR_PLLSAI1PDIV_3|RCC_PLLSAI1CFGR_PLLSAI1PD
1030:Drivers/STM32L4xx_HAL_Driver/Inc/stm32l4xx_ll_rcc.h **** #define LL_RCC_PLLSAI1P_DIV_14             (RCC_PLLSAI1CFGR_PLLSAI1PDIV_3|RCC_PLLSAI1CFGR_PLLSAI1PD
1031:Drivers/STM32L4xx_HAL_Driver/Inc/stm32l4xx_ll_rcc.h **** #define LL_RCC_PLLSAI1P_DIV_15             (RCC_PLLSAI1CFGR_PLLSAI1PDIV_3|RCC_PLLSAI1CFGR_PLLSAI1PD
1032:Drivers/STM32L4xx_HAL_Driver/Inc/stm32l4xx_ll_rcc.h **** #define LL_RCC_PLLSAI1P_DIV_16             (RCC_PLLSAI1CFGR_PLLSAI1PDIV_4)                         
1033:Drivers/STM32L4xx_HAL_Driver/Inc/stm32l4xx_ll_rcc.h **** #define LL_RCC_PLLSAI1P_DIV_17             (RCC_PLLSAI1CFGR_PLLSAI1PDIV_4|RCC_PLLSAI1CFGR_PLLSAI1PD
1034:Drivers/STM32L4xx_HAL_Driver/Inc/stm32l4xx_ll_rcc.h **** #define LL_RCC_PLLSAI1P_DIV_18             (RCC_PLLSAI1CFGR_PLLSAI1PDIV_4|RCC_PLLSAI1CFGR_PLLSAI1PD
1035:Drivers/STM32L4xx_HAL_Driver/Inc/stm32l4xx_ll_rcc.h **** #define LL_RCC_PLLSAI1P_DIV_19             (RCC_PLLSAI1CFGR_PLLSAI1PDIV_4|RCC_PLLSAI1CFGR_PLLSAI1PD
1036:Drivers/STM32L4xx_HAL_Driver/Inc/stm32l4xx_ll_rcc.h **** #define LL_RCC_PLLSAI1P_DIV_20             (RCC_PLLSAI1CFGR_PLLSAI1PDIV_4|RCC_PLLSAI1CFGR_PLLSAI1PD
1037:Drivers/STM32L4xx_HAL_Driver/Inc/stm32l4xx_ll_rcc.h **** #define LL_RCC_PLLSAI1P_DIV_21             (RCC_PLLSAI1CFGR_PLLSAI1PDIV_4|RCC_PLLSAI1CFGR_PLLSAI1PD
1038:Drivers/STM32L4xx_HAL_Driver/Inc/stm32l4xx_ll_rcc.h **** #define LL_RCC_PLLSAI1P_DIV_22             (RCC_PLLSAI1CFGR_PLLSAI1PDIV_4|RCC_PLLSAI1CFGR_PLLSAI1PD
1039:Drivers/STM32L4xx_HAL_Driver/Inc/stm32l4xx_ll_rcc.h **** #define LL_RCC_PLLSAI1P_DIV_23             (RCC_PLLSAI1CFGR_PLLSAI1PDIV_4|RCC_PLLSAI1CFGR_PLLSAI1PD
1040:Drivers/STM32L4xx_HAL_Driver/Inc/stm32l4xx_ll_rcc.h **** #define LL_RCC_PLLSAI1P_DIV_24             (RCC_PLLSAI1CFGR_PLLSAI1PDIV_4|RCC_PLLSAI1CFGR_PLLSAI1PD
1041:Drivers/STM32L4xx_HAL_Driver/Inc/stm32l4xx_ll_rcc.h **** #define LL_RCC_PLLSAI1P_DIV_25             (RCC_PLLSAI1CFGR_PLLSAI1PDIV_4|RCC_PLLSAI1CFGR_PLLSAI1PD
1042:Drivers/STM32L4xx_HAL_Driver/Inc/stm32l4xx_ll_rcc.h **** #define LL_RCC_PLLSAI1P_DIV_26             (RCC_PLLSAI1CFGR_PLLSAI1PDIV_4|RCC_PLLSAI1CFGR_PLLSAI1PD
1043:Drivers/STM32L4xx_HAL_Driver/Inc/stm32l4xx_ll_rcc.h **** #define LL_RCC_PLLSAI1P_DIV_27             (RCC_PLLSAI1CFGR_PLLSAI1PDIV_4|RCC_PLLSAI1CFGR_PLLSAI1PD
1044:Drivers/STM32L4xx_HAL_Driver/Inc/stm32l4xx_ll_rcc.h **** #define LL_RCC_PLLSAI1P_DIV_28             (RCC_PLLSAI1CFGR_PLLSAI1PDIV_4|RCC_PLLSAI1CFGR_PLLSAI1PD
1045:Drivers/STM32L4xx_HAL_Driver/Inc/stm32l4xx_ll_rcc.h **** #define LL_RCC_PLLSAI1P_DIV_29             (RCC_PLLSAI1CFGR_PLLSAI1PDIV_4|RCC_PLLSAI1CFGR_PLLSAI1PD
1046:Drivers/STM32L4xx_HAL_Driver/Inc/stm32l4xx_ll_rcc.h **** #define LL_RCC_PLLSAI1P_DIV_30             (RCC_PLLSAI1CFGR_PLLSAI1PDIV_4|RCC_PLLSAI1CFGR_PLLSAI1PD
1047:Drivers/STM32L4xx_HAL_Driver/Inc/stm32l4xx_ll_rcc.h **** #define LL_RCC_PLLSAI1P_DIV_31             (RCC_PLLSAI1CFGR_PLLSAI1PDIV_4|RCC_PLLSAI1CFGR_PLLSAI1PD
1048:Drivers/STM32L4xx_HAL_Driver/Inc/stm32l4xx_ll_rcc.h **** #else
1049:Drivers/STM32L4xx_HAL_Driver/Inc/stm32l4xx_ll_rcc.h **** #define LL_RCC_PLLSAI1P_DIV_7              0x00000000U                /*!< PLLSAI1 division factor 
1050:Drivers/STM32L4xx_HAL_Driver/Inc/stm32l4xx_ll_rcc.h **** #define LL_RCC_PLLSAI1P_DIV_17             (RCC_PLLSAI1CFGR_PLLSAI1P) /*!< PLLSAI1 division factor 
1051:Drivers/STM32L4xx_HAL_Driver/Inc/stm32l4xx_ll_rcc.h **** #endif /* RCC_PLLSAI1P_DIV_2_31_SUPPORT */
1052:Drivers/STM32L4xx_HAL_Driver/Inc/stm32l4xx_ll_rcc.h **** /**
1053:Drivers/STM32L4xx_HAL_Driver/Inc/stm32l4xx_ll_rcc.h ****   * @}
1054:Drivers/STM32L4xx_HAL_Driver/Inc/stm32l4xx_ll_rcc.h ****   */
1055:Drivers/STM32L4xx_HAL_Driver/Inc/stm32l4xx_ll_rcc.h **** 
1056:Drivers/STM32L4xx_HAL_Driver/Inc/stm32l4xx_ll_rcc.h **** /** @defgroup RCC_LL_EC_PLLSAI1R  PLLSAI1 division factor (PLLSAI1R)
1057:Drivers/STM32L4xx_HAL_Driver/Inc/stm32l4xx_ll_rcc.h ****   * @{
1058:Drivers/STM32L4xx_HAL_Driver/Inc/stm32l4xx_ll_rcc.h ****   */
1059:Drivers/STM32L4xx_HAL_Driver/Inc/stm32l4xx_ll_rcc.h **** #define LL_RCC_PLLSAI1R_DIV_2              0x00000000U                  /*!< PLLSAI1 division facto
1060:Drivers/STM32L4xx_HAL_Driver/Inc/stm32l4xx_ll_rcc.h **** #define LL_RCC_PLLSAI1R_DIV_4              (RCC_PLLSAI1CFGR_PLLSAI1R_0) /*!< PLLSAI1 division facto
1061:Drivers/STM32L4xx_HAL_Driver/Inc/stm32l4xx_ll_rcc.h **** #define LL_RCC_PLLSAI1R_DIV_6              (RCC_PLLSAI1CFGR_PLLSAI1R_1) /*!< PLLSAI1 division facto
1062:Drivers/STM32L4xx_HAL_Driver/Inc/stm32l4xx_ll_rcc.h **** #define LL_RCC_PLLSAI1R_DIV_8              (RCC_PLLSAI1CFGR_PLLSAI1R)   /*!< PLLSAI1 division facto
1063:Drivers/STM32L4xx_HAL_Driver/Inc/stm32l4xx_ll_rcc.h **** /**
1064:Drivers/STM32L4xx_HAL_Driver/Inc/stm32l4xx_ll_rcc.h ****   * @}
1065:Drivers/STM32L4xx_HAL_Driver/Inc/stm32l4xx_ll_rcc.h ****   */
1066:Drivers/STM32L4xx_HAL_Driver/Inc/stm32l4xx_ll_rcc.h **** #endif /* RCC_PLLSAI1_SUPPORT */
1067:Drivers/STM32L4xx_HAL_Driver/Inc/stm32l4xx_ll_rcc.h **** 
1068:Drivers/STM32L4xx_HAL_Driver/Inc/stm32l4xx_ll_rcc.h **** #if defined(RCC_PLLSAI2_SUPPORT)
1069:Drivers/STM32L4xx_HAL_Driver/Inc/stm32l4xx_ll_rcc.h **** #if defined(RCC_PLLSAI2M_DIV_1_16_SUPPORT)
1070:Drivers/STM32L4xx_HAL_Driver/Inc/stm32l4xx_ll_rcc.h **** /** @defgroup RCC_LL_EC_PLLSAI2M  PLLSAI1 division factor (PLLSAI2M)
1071:Drivers/STM32L4xx_HAL_Driver/Inc/stm32l4xx_ll_rcc.h ****   * @{
1072:Drivers/STM32L4xx_HAL_Driver/Inc/stm32l4xx_ll_rcc.h ****   */
1073:Drivers/STM32L4xx_HAL_Driver/Inc/stm32l4xx_ll_rcc.h **** #define LL_RCC_PLLSAI2M_DIV_1              0x00000000U                                             
1074:Drivers/STM32L4xx_HAL_Driver/Inc/stm32l4xx_ll_rcc.h **** #define LL_RCC_PLLSAI2M_DIV_2              (RCC_PLLSAI2CFGR_PLLSAI2M_0)                            
1075:Drivers/STM32L4xx_HAL_Driver/Inc/stm32l4xx_ll_rcc.h **** #define LL_RCC_PLLSAI2M_DIV_3              (RCC_PLLSAI2CFGR_PLLSAI2M_1)                            
1076:Drivers/STM32L4xx_HAL_Driver/Inc/stm32l4xx_ll_rcc.h **** #define LL_RCC_PLLSAI2M_DIV_4              (RCC_PLLSAI2CFGR_PLLSAI2M_1|RCC_PLLSAI2CFGR_PLLSAI2M_0) 
1077:Drivers/STM32L4xx_HAL_Driver/Inc/stm32l4xx_ll_rcc.h **** #define LL_RCC_PLLSAI2M_DIV_5              (RCC_PLLSAI2CFGR_PLLSAI2M_2)                            
1078:Drivers/STM32L4xx_HAL_Driver/Inc/stm32l4xx_ll_rcc.h **** #define LL_RCC_PLLSAI2M_DIV_6              (RCC_PLLSAI2CFGR_PLLSAI2M_2|RCC_PLLSAI2CFGR_PLLSAI2M_0) 
1079:Drivers/STM32L4xx_HAL_Driver/Inc/stm32l4xx_ll_rcc.h **** #define LL_RCC_PLLSAI2M_DIV_7              (RCC_PLLSAI2CFGR_PLLSAI2M_2|RCC_PLLSAI2CFGR_PLLSAI2M_1) 
1080:Drivers/STM32L4xx_HAL_Driver/Inc/stm32l4xx_ll_rcc.h **** #define LL_RCC_PLLSAI2M_DIV_8              (RCC_PLLSAI2CFGR_PLLSAI2M_2|RCC_PLLSAI2CFGR_PLLSAI2M_1|R
1081:Drivers/STM32L4xx_HAL_Driver/Inc/stm32l4xx_ll_rcc.h **** #define LL_RCC_PLLSAI2M_DIV_9              (RCC_PLLSAI2CFGR_PLLSAI2M_3)                            
1082:Drivers/STM32L4xx_HAL_Driver/Inc/stm32l4xx_ll_rcc.h **** #define LL_RCC_PLLSAI2M_DIV_10             (RCC_PLLSAI2CFGR_PLLSAI2M_3|RCC_PLLSAI2CFGR_PLLSAI2M_0) 
1083:Drivers/STM32L4xx_HAL_Driver/Inc/stm32l4xx_ll_rcc.h **** #define LL_RCC_PLLSAI2M_DIV_11             (RCC_PLLSAI2CFGR_PLLSAI2M_3|RCC_PLLSAI2CFGR_PLLSAI2M_1) 
ARM GAS  C:\Temp\ccmvY2mT.s 			page 37


1084:Drivers/STM32L4xx_HAL_Driver/Inc/stm32l4xx_ll_rcc.h **** #define LL_RCC_PLLSAI2M_DIV_12             (RCC_PLLSAI2CFGR_PLLSAI2M_3|RCC_PLLSAI2CFGR_PLLSAI2M_1|R
1085:Drivers/STM32L4xx_HAL_Driver/Inc/stm32l4xx_ll_rcc.h **** #define LL_RCC_PLLSAI2M_DIV_13             (RCC_PLLSAI2CFGR_PLLSAI2M_3|RCC_PLLSAI2CFGR_PLLSAI2M_2) 
1086:Drivers/STM32L4xx_HAL_Driver/Inc/stm32l4xx_ll_rcc.h **** #define LL_RCC_PLLSAI2M_DIV_14             (RCC_PLLSAI2CFGR_PLLSAI2M_3|RCC_PLLSAI2CFGR_PLLSAI2M_2|R
1087:Drivers/STM32L4xx_HAL_Driver/Inc/stm32l4xx_ll_rcc.h **** #define LL_RCC_PLLSAI2M_DIV_15             (RCC_PLLSAI2CFGR_PLLSAI2M_3|RCC_PLLSAI2CFGR_PLLSAI2M_2|R
1088:Drivers/STM32L4xx_HAL_Driver/Inc/stm32l4xx_ll_rcc.h **** #define LL_RCC_PLLSAI2M_DIV_16             (RCC_PLLSAI2CFGR_PLLSAI2M_3|RCC_PLLSAI2CFGR_PLLSAI2M_2|R
1089:Drivers/STM32L4xx_HAL_Driver/Inc/stm32l4xx_ll_rcc.h **** /**
1090:Drivers/STM32L4xx_HAL_Driver/Inc/stm32l4xx_ll_rcc.h ****   * @}
1091:Drivers/STM32L4xx_HAL_Driver/Inc/stm32l4xx_ll_rcc.h ****   */
1092:Drivers/STM32L4xx_HAL_Driver/Inc/stm32l4xx_ll_rcc.h **** #endif /* RCC_PLLSAI2M_DIV_1_16_SUPPORT */
1093:Drivers/STM32L4xx_HAL_Driver/Inc/stm32l4xx_ll_rcc.h **** 
1094:Drivers/STM32L4xx_HAL_Driver/Inc/stm32l4xx_ll_rcc.h **** #if defined(RCC_PLLSAI2Q_DIV_SUPPORT)
1095:Drivers/STM32L4xx_HAL_Driver/Inc/stm32l4xx_ll_rcc.h **** /** @defgroup RCC_LL_EC_PLLSAI2Q  PLLSAI2 division factor (PLLSAI2Q)
1096:Drivers/STM32L4xx_HAL_Driver/Inc/stm32l4xx_ll_rcc.h ****   * @{
1097:Drivers/STM32L4xx_HAL_Driver/Inc/stm32l4xx_ll_rcc.h ****   */
1098:Drivers/STM32L4xx_HAL_Driver/Inc/stm32l4xx_ll_rcc.h **** #define LL_RCC_PLLSAI2Q_DIV_2              0x00000000U                  /*!< PLLSAI2 division facto
1099:Drivers/STM32L4xx_HAL_Driver/Inc/stm32l4xx_ll_rcc.h **** #define LL_RCC_PLLSAI2Q_DIV_4              (RCC_PLLSAI2CFGR_PLLSAI2Q_0) /*!< PLLSAI2 division facto
1100:Drivers/STM32L4xx_HAL_Driver/Inc/stm32l4xx_ll_rcc.h **** #define LL_RCC_PLLSAI2Q_DIV_6              (RCC_PLLSAI2CFGR_PLLSAI2Q_1) /*!< PLLSAI2 division facto
1101:Drivers/STM32L4xx_HAL_Driver/Inc/stm32l4xx_ll_rcc.h **** #define LL_RCC_PLLSAI2Q_DIV_8              (RCC_PLLSAI2CFGR_PLLSAI2Q)   /*!< PLLSAI2 division facto
1102:Drivers/STM32L4xx_HAL_Driver/Inc/stm32l4xx_ll_rcc.h **** /**
1103:Drivers/STM32L4xx_HAL_Driver/Inc/stm32l4xx_ll_rcc.h ****   * @}
1104:Drivers/STM32L4xx_HAL_Driver/Inc/stm32l4xx_ll_rcc.h ****   */
1105:Drivers/STM32L4xx_HAL_Driver/Inc/stm32l4xx_ll_rcc.h **** #endif /* RCC_PLLSAI2Q_DIV_SUPPORT */
1106:Drivers/STM32L4xx_HAL_Driver/Inc/stm32l4xx_ll_rcc.h **** 
1107:Drivers/STM32L4xx_HAL_Driver/Inc/stm32l4xx_ll_rcc.h **** /** @defgroup RCC_LL_EC_PLLSAI2P  PLLSAI2 division factor (PLLSAI2P)
1108:Drivers/STM32L4xx_HAL_Driver/Inc/stm32l4xx_ll_rcc.h ****   * @{
1109:Drivers/STM32L4xx_HAL_Driver/Inc/stm32l4xx_ll_rcc.h ****   */
1110:Drivers/STM32L4xx_HAL_Driver/Inc/stm32l4xx_ll_rcc.h **** #if defined(RCC_PLLSAI2P_DIV_2_31_SUPPORT)
1111:Drivers/STM32L4xx_HAL_Driver/Inc/stm32l4xx_ll_rcc.h **** #define LL_RCC_PLLSAI2P_DIV_2              (RCC_PLLSAI2CFGR_PLLSAI2PDIV_1)                         
1112:Drivers/STM32L4xx_HAL_Driver/Inc/stm32l4xx_ll_rcc.h **** #define LL_RCC_PLLSAI2P_DIV_3              (RCC_PLLSAI2CFGR_PLLSAI2PDIV_1|RCC_PLLSAI2CFGR_PLLSAI2PD
1113:Drivers/STM32L4xx_HAL_Driver/Inc/stm32l4xx_ll_rcc.h **** #define LL_RCC_PLLSAI2P_DIV_4              (RCC_PLLSAI2CFGR_PLLSAI2PDIV_2)                         
1114:Drivers/STM32L4xx_HAL_Driver/Inc/stm32l4xx_ll_rcc.h **** #define LL_RCC_PLLSAI2P_DIV_5              (RCC_PLLSAI2CFGR_PLLSAI2PDIV_2|RCC_PLLSAI2CFGR_PLLSAI2PD
1115:Drivers/STM32L4xx_HAL_Driver/Inc/stm32l4xx_ll_rcc.h **** #define LL_RCC_PLLSAI2P_DIV_6              (RCC_PLLSAI2CFGR_PLLSAI2PDIV_2|RCC_PLLSAI2CFGR_PLLSAI2PD
1116:Drivers/STM32L4xx_HAL_Driver/Inc/stm32l4xx_ll_rcc.h **** #define LL_RCC_PLLSAI2P_DIV_7              (RCC_PLLSAI2CFGR_PLLSAI2PDIV_2|RCC_PLLSAI2CFGR_PLLSAI2PD
1117:Drivers/STM32L4xx_HAL_Driver/Inc/stm32l4xx_ll_rcc.h **** #define LL_RCC_PLLSAI2P_DIV_8              (RCC_PLLSAI2CFGR_PLLSAI2PDIV_3)                         
1118:Drivers/STM32L4xx_HAL_Driver/Inc/stm32l4xx_ll_rcc.h **** #define LL_RCC_PLLSAI2P_DIV_9              (RCC_PLLSAI2CFGR_PLLSAI2PDIV_3|RCC_PLLSAI2CFGR_PLLSAI2PD
1119:Drivers/STM32L4xx_HAL_Driver/Inc/stm32l4xx_ll_rcc.h **** #define LL_RCC_PLLSAI2P_DIV_10             (RCC_PLLSAI2CFGR_PLLSAI2PDIV_3|RCC_PLLSAI2CFGR_PLLSAI2PD
1120:Drivers/STM32L4xx_HAL_Driver/Inc/stm32l4xx_ll_rcc.h **** #define LL_RCC_PLLSAI2P_DIV_11             (RCC_PLLSAI2CFGR_PLLSAI2PDIV_3|RCC_PLLSAI2CFGR_PLLSAI2PD
1121:Drivers/STM32L4xx_HAL_Driver/Inc/stm32l4xx_ll_rcc.h **** #define LL_RCC_PLLSAI2P_DIV_12             (RCC_PLLSAI2CFGR_PLLSAI2PDIV_3|RCC_PLLSAI2CFGR_PLLSAI2PD
1122:Drivers/STM32L4xx_HAL_Driver/Inc/stm32l4xx_ll_rcc.h **** #define LL_RCC_PLLSAI2P_DIV_13             (RCC_PLLSAI2CFGR_PLLSAI2PDIV_3|RCC_PLLSAI2CFGR_PLLSAI2PD
1123:Drivers/STM32L4xx_HAL_Driver/Inc/stm32l4xx_ll_rcc.h **** #define LL_RCC_PLLSAI2P_DIV_14             (RCC_PLLSAI2CFGR_PLLSAI2PDIV_3|RCC_PLLSAI2CFGR_PLLSAI2PD
1124:Drivers/STM32L4xx_HAL_Driver/Inc/stm32l4xx_ll_rcc.h **** #define LL_RCC_PLLSAI2P_DIV_15             (RCC_PLLSAI2CFGR_PLLSAI2PDIV_3|RCC_PLLSAI2CFGR_PLLSAI2PD
1125:Drivers/STM32L4xx_HAL_Driver/Inc/stm32l4xx_ll_rcc.h **** #define LL_RCC_PLLSAI2P_DIV_16             (RCC_PLLSAI2CFGR_PLLSAI2PDIV_4)                         
1126:Drivers/STM32L4xx_HAL_Driver/Inc/stm32l4xx_ll_rcc.h **** #define LL_RCC_PLLSAI2P_DIV_17             (RCC_PLLSAI2CFGR_PLLSAI2PDIV_4|RCC_PLLSAI2CFGR_PLLSAI2PD
1127:Drivers/STM32L4xx_HAL_Driver/Inc/stm32l4xx_ll_rcc.h **** #define LL_RCC_PLLSAI2P_DIV_18             (RCC_PLLSAI2CFGR_PLLSAI2PDIV_4|RCC_PLLSAI2CFGR_PLLSAI2PD
1128:Drivers/STM32L4xx_HAL_Driver/Inc/stm32l4xx_ll_rcc.h **** #define LL_RCC_PLLSAI2P_DIV_19             (RCC_PLLSAI2CFGR_PLLSAI2PDIV_4|RCC_PLLSAI2CFGR_PLLSAI2PD
1129:Drivers/STM32L4xx_HAL_Driver/Inc/stm32l4xx_ll_rcc.h **** #define LL_RCC_PLLSAI2P_DIV_20             (RCC_PLLSAI2CFGR_PLLSAI2PDIV_4|RCC_PLLSAI2CFGR_PLLSAI2PD
1130:Drivers/STM32L4xx_HAL_Driver/Inc/stm32l4xx_ll_rcc.h **** #define LL_RCC_PLLSAI2P_DIV_21             (RCC_PLLSAI2CFGR_PLLSAI2PDIV_4|RCC_PLLSAI2CFGR_PLLSAI2PD
1131:Drivers/STM32L4xx_HAL_Driver/Inc/stm32l4xx_ll_rcc.h **** #define LL_RCC_PLLSAI2P_DIV_22             (RCC_PLLSAI2CFGR_PLLSAI2PDIV_4|RCC_PLLSAI2CFGR_PLLSAI2PD
1132:Drivers/STM32L4xx_HAL_Driver/Inc/stm32l4xx_ll_rcc.h **** #define LL_RCC_PLLSAI2P_DIV_23             (RCC_PLLSAI2CFGR_PLLSAI2PDIV_4|RCC_PLLSAI2CFGR_PLLSAI2PD
1133:Drivers/STM32L4xx_HAL_Driver/Inc/stm32l4xx_ll_rcc.h **** #define LL_RCC_PLLSAI2P_DIV_24             (RCC_PLLSAI2CFGR_PLLSAI2PDIV_4|RCC_PLLSAI2CFGR_PLLSAI2PD
1134:Drivers/STM32L4xx_HAL_Driver/Inc/stm32l4xx_ll_rcc.h **** #define LL_RCC_PLLSAI2P_DIV_25             (RCC_PLLSAI2CFGR_PLLSAI2PDIV_4|RCC_PLLSAI2CFGR_PLLSAI2PD
1135:Drivers/STM32L4xx_HAL_Driver/Inc/stm32l4xx_ll_rcc.h **** #define LL_RCC_PLLSAI2P_DIV_26             (RCC_PLLSAI2CFGR_PLLSAI2PDIV_4|RCC_PLLSAI2CFGR_PLLSAI2PD
1136:Drivers/STM32L4xx_HAL_Driver/Inc/stm32l4xx_ll_rcc.h **** #define LL_RCC_PLLSAI2P_DIV_27             (RCC_PLLSAI2CFGR_PLLSAI2PDIV_4|RCC_PLLSAI2CFGR_PLLSAI2PD
1137:Drivers/STM32L4xx_HAL_Driver/Inc/stm32l4xx_ll_rcc.h **** #define LL_RCC_PLLSAI2P_DIV_28             (RCC_PLLSAI2CFGR_PLLSAI2PDIV_4|RCC_PLLSAI2CFGR_PLLSAI2PD
1138:Drivers/STM32L4xx_HAL_Driver/Inc/stm32l4xx_ll_rcc.h **** #define LL_RCC_PLLSAI2P_DIV_29             (RCC_PLLSAI2CFGR_PLLSAI2PDIV_4|RCC_PLLSAI2CFGR_PLLSAI2PD
1139:Drivers/STM32L4xx_HAL_Driver/Inc/stm32l4xx_ll_rcc.h **** #define LL_RCC_PLLSAI2P_DIV_30             (RCC_PLLSAI2CFGR_PLLSAI2PDIV_4|RCC_PLLSAI2CFGR_PLLSAI2PD
1140:Drivers/STM32L4xx_HAL_Driver/Inc/stm32l4xx_ll_rcc.h **** #define LL_RCC_PLLSAI2P_DIV_31             (RCC_PLLSAI2CFGR_PLLSAI2PDIV_4|RCC_PLLSAI2CFGR_PLLSAI2PD
ARM GAS  C:\Temp\ccmvY2mT.s 			page 38


1141:Drivers/STM32L4xx_HAL_Driver/Inc/stm32l4xx_ll_rcc.h **** #else
1142:Drivers/STM32L4xx_HAL_Driver/Inc/stm32l4xx_ll_rcc.h **** #define LL_RCC_PLLSAI2P_DIV_7              0x00000000U                /*!< PLLSAI2 division factor 
1143:Drivers/STM32L4xx_HAL_Driver/Inc/stm32l4xx_ll_rcc.h **** #define LL_RCC_PLLSAI2P_DIV_17             (RCC_PLLSAI2CFGR_PLLSAI2P) /*!< PLLSAI2 division factor 
1144:Drivers/STM32L4xx_HAL_Driver/Inc/stm32l4xx_ll_rcc.h **** #endif /* RCC_PLLSAI2P_DIV_2_31_SUPPORT */
1145:Drivers/STM32L4xx_HAL_Driver/Inc/stm32l4xx_ll_rcc.h **** /**
1146:Drivers/STM32L4xx_HAL_Driver/Inc/stm32l4xx_ll_rcc.h ****   * @}
1147:Drivers/STM32L4xx_HAL_Driver/Inc/stm32l4xx_ll_rcc.h ****   */
1148:Drivers/STM32L4xx_HAL_Driver/Inc/stm32l4xx_ll_rcc.h **** 
1149:Drivers/STM32L4xx_HAL_Driver/Inc/stm32l4xx_ll_rcc.h **** /** @defgroup RCC_LL_EC_PLLSAI2R  PLLSAI2 division factor (PLLSAI2R)
1150:Drivers/STM32L4xx_HAL_Driver/Inc/stm32l4xx_ll_rcc.h ****   * @{
1151:Drivers/STM32L4xx_HAL_Driver/Inc/stm32l4xx_ll_rcc.h ****   */
1152:Drivers/STM32L4xx_HAL_Driver/Inc/stm32l4xx_ll_rcc.h **** #define LL_RCC_PLLSAI2R_DIV_2              0x00000000U                  /*!< PLLSAI2 division facto
1153:Drivers/STM32L4xx_HAL_Driver/Inc/stm32l4xx_ll_rcc.h **** #define LL_RCC_PLLSAI2R_DIV_4              (RCC_PLLSAI2CFGR_PLLSAI2R_0) /*!< PLLSAI2 division facto
1154:Drivers/STM32L4xx_HAL_Driver/Inc/stm32l4xx_ll_rcc.h **** #define LL_RCC_PLLSAI2R_DIV_6              (RCC_PLLSAI2CFGR_PLLSAI2R_1) /*!< PLLSAI2 division facto
1155:Drivers/STM32L4xx_HAL_Driver/Inc/stm32l4xx_ll_rcc.h **** #define LL_RCC_PLLSAI2R_DIV_8              (RCC_PLLSAI2CFGR_PLLSAI2R)   /*!< PLLSAI2 division facto
1156:Drivers/STM32L4xx_HAL_Driver/Inc/stm32l4xx_ll_rcc.h **** /**
1157:Drivers/STM32L4xx_HAL_Driver/Inc/stm32l4xx_ll_rcc.h ****   * @}
1158:Drivers/STM32L4xx_HAL_Driver/Inc/stm32l4xx_ll_rcc.h ****   */
1159:Drivers/STM32L4xx_HAL_Driver/Inc/stm32l4xx_ll_rcc.h **** 
1160:Drivers/STM32L4xx_HAL_Driver/Inc/stm32l4xx_ll_rcc.h **** #if defined(RCC_CCIPR2_PLLSAI2DIVR)
1161:Drivers/STM32L4xx_HAL_Driver/Inc/stm32l4xx_ll_rcc.h **** /** @defgroup RCC_LL_EC_PLLSAI2DIVR  PLLSAI2DIVR division factor (PLLSAI2DIVR)
1162:Drivers/STM32L4xx_HAL_Driver/Inc/stm32l4xx_ll_rcc.h ****   * @{
1163:Drivers/STM32L4xx_HAL_Driver/Inc/stm32l4xx_ll_rcc.h ****   */
1164:Drivers/STM32L4xx_HAL_Driver/Inc/stm32l4xx_ll_rcc.h **** #define LL_RCC_PLLSAI2DIVR_DIV_2           0x00000000U                     /*!< PLLSAI2 division fa
1165:Drivers/STM32L4xx_HAL_Driver/Inc/stm32l4xx_ll_rcc.h **** #define LL_RCC_PLLSAI2DIVR_DIV_4           RCC_CCIPR2_PLLSAI2DIVR_0        /*!< PLLSAI2 division fa
1166:Drivers/STM32L4xx_HAL_Driver/Inc/stm32l4xx_ll_rcc.h **** #define LL_RCC_PLLSAI2DIVR_DIV_8           RCC_CCIPR2_PLLSAI2DIVR_1        /*!< PLLSAI2 division fa
1167:Drivers/STM32L4xx_HAL_Driver/Inc/stm32l4xx_ll_rcc.h **** #define LL_RCC_PLLSAI2DIVR_DIV_16          (RCC_CCIPR2_PLLSAI2DIVR_1 | RCC_CCIPR2_PLLSAI2DIVR_0) /*
1168:Drivers/STM32L4xx_HAL_Driver/Inc/stm32l4xx_ll_rcc.h **** /**
1169:Drivers/STM32L4xx_HAL_Driver/Inc/stm32l4xx_ll_rcc.h ****   * @}
1170:Drivers/STM32L4xx_HAL_Driver/Inc/stm32l4xx_ll_rcc.h ****   */
1171:Drivers/STM32L4xx_HAL_Driver/Inc/stm32l4xx_ll_rcc.h **** #endif /* RCC_CCIPR2_PLLSAI2DIVR */
1172:Drivers/STM32L4xx_HAL_Driver/Inc/stm32l4xx_ll_rcc.h **** #endif /* RCC_PLLSAI2_SUPPORT */
1173:Drivers/STM32L4xx_HAL_Driver/Inc/stm32l4xx_ll_rcc.h **** 
1174:Drivers/STM32L4xx_HAL_Driver/Inc/stm32l4xx_ll_rcc.h **** /** @defgroup RCC_LL_EC_MSIRANGESEL  MSI clock range selection
1175:Drivers/STM32L4xx_HAL_Driver/Inc/stm32l4xx_ll_rcc.h ****   * @{
1176:Drivers/STM32L4xx_HAL_Driver/Inc/stm32l4xx_ll_rcc.h ****   */
1177:Drivers/STM32L4xx_HAL_Driver/Inc/stm32l4xx_ll_rcc.h **** #define LL_RCC_MSIRANGESEL_STANDBY         0U                  /*!< MSI Range is provided by MSISRA
1178:Drivers/STM32L4xx_HAL_Driver/Inc/stm32l4xx_ll_rcc.h **** #define LL_RCC_MSIRANGESEL_RUN             1U                  /*!< MSI Range is provided by MSIRAN
1179:Drivers/STM32L4xx_HAL_Driver/Inc/stm32l4xx_ll_rcc.h **** /**
1180:Drivers/STM32L4xx_HAL_Driver/Inc/stm32l4xx_ll_rcc.h ****   * @}
1181:Drivers/STM32L4xx_HAL_Driver/Inc/stm32l4xx_ll_rcc.h ****   */
1182:Drivers/STM32L4xx_HAL_Driver/Inc/stm32l4xx_ll_rcc.h **** 
1183:Drivers/STM32L4xx_HAL_Driver/Inc/stm32l4xx_ll_rcc.h **** #if defined(RCC_CSR_LSIPREDIV)
1184:Drivers/STM32L4xx_HAL_Driver/Inc/stm32l4xx_ll_rcc.h **** /** @defgroup RCC_LL_EC_LSIPREDIV  LSI division factor
1185:Drivers/STM32L4xx_HAL_Driver/Inc/stm32l4xx_ll_rcc.h ****   * @{
1186:Drivers/STM32L4xx_HAL_Driver/Inc/stm32l4xx_ll_rcc.h ****   */
1187:Drivers/STM32L4xx_HAL_Driver/Inc/stm32l4xx_ll_rcc.h **** #define LL_RCC_LSI_PREDIV_1                0x00000000U         /*!< LSI division factor by 1   */
1188:Drivers/STM32L4xx_HAL_Driver/Inc/stm32l4xx_ll_rcc.h **** #define LL_RCC_LSI_PREDIV_128              RCC_CSR_LSIPREDIV   /*!< LSI division factor by 128 */
1189:Drivers/STM32L4xx_HAL_Driver/Inc/stm32l4xx_ll_rcc.h **** /**
1190:Drivers/STM32L4xx_HAL_Driver/Inc/stm32l4xx_ll_rcc.h ****   * @}
1191:Drivers/STM32L4xx_HAL_Driver/Inc/stm32l4xx_ll_rcc.h ****   */
1192:Drivers/STM32L4xx_HAL_Driver/Inc/stm32l4xx_ll_rcc.h **** #endif /* RCC_CSR_LSIPREDIV */
1193:Drivers/STM32L4xx_HAL_Driver/Inc/stm32l4xx_ll_rcc.h **** 
1194:Drivers/STM32L4xx_HAL_Driver/Inc/stm32l4xx_ll_rcc.h **** /** Legacy definitions for compatibility purpose
1195:Drivers/STM32L4xx_HAL_Driver/Inc/stm32l4xx_ll_rcc.h **** @cond 0
1196:Drivers/STM32L4xx_HAL_Driver/Inc/stm32l4xx_ll_rcc.h **** */
1197:Drivers/STM32L4xx_HAL_Driver/Inc/stm32l4xx_ll_rcc.h **** #if defined(DFSDM1_Channel0)
ARM GAS  C:\Temp\ccmvY2mT.s 			page 39


1198:Drivers/STM32L4xx_HAL_Driver/Inc/stm32l4xx_ll_rcc.h **** #define LL_RCC_DFSDM1_CLKSOURCE_PCLK       LL_RCC_DFSDM1_CLKSOURCE_PCLK2
1199:Drivers/STM32L4xx_HAL_Driver/Inc/stm32l4xx_ll_rcc.h **** #define LL_RCC_DFSDM_CLKSOURCE_PCLK        LL_RCC_DFSDM1_CLKSOURCE_PCLK2
1200:Drivers/STM32L4xx_HAL_Driver/Inc/stm32l4xx_ll_rcc.h **** #define LL_RCC_DFSDM_CLKSOURCE_SYSCLK      LL_RCC_DFSDM1_CLKSOURCE_SYSCLK
1201:Drivers/STM32L4xx_HAL_Driver/Inc/stm32l4xx_ll_rcc.h **** #define LL_RCC_DFSDM_CLKSOURCE             LL_RCC_DFSDM1_CLKSOURCE
1202:Drivers/STM32L4xx_HAL_Driver/Inc/stm32l4xx_ll_rcc.h **** #endif /* DFSDM1_Channel0 */
1203:Drivers/STM32L4xx_HAL_Driver/Inc/stm32l4xx_ll_rcc.h **** #if defined(SWPMI1)
1204:Drivers/STM32L4xx_HAL_Driver/Inc/stm32l4xx_ll_rcc.h **** #define LL_RCC_SWPMI1_CLKSOURCE_PCLK       LL_RCC_SWPMI1_CLKSOURCE_PCLK1
1205:Drivers/STM32L4xx_HAL_Driver/Inc/stm32l4xx_ll_rcc.h **** #endif /* SWPMI1 */
1206:Drivers/STM32L4xx_HAL_Driver/Inc/stm32l4xx_ll_rcc.h **** /**
1207:Drivers/STM32L4xx_HAL_Driver/Inc/stm32l4xx_ll_rcc.h **** @endcond
1208:Drivers/STM32L4xx_HAL_Driver/Inc/stm32l4xx_ll_rcc.h ****   */
1209:Drivers/STM32L4xx_HAL_Driver/Inc/stm32l4xx_ll_rcc.h **** 
1210:Drivers/STM32L4xx_HAL_Driver/Inc/stm32l4xx_ll_rcc.h **** /**
1211:Drivers/STM32L4xx_HAL_Driver/Inc/stm32l4xx_ll_rcc.h ****   * @}
1212:Drivers/STM32L4xx_HAL_Driver/Inc/stm32l4xx_ll_rcc.h ****   */
1213:Drivers/STM32L4xx_HAL_Driver/Inc/stm32l4xx_ll_rcc.h **** 
1214:Drivers/STM32L4xx_HAL_Driver/Inc/stm32l4xx_ll_rcc.h **** /* Exported macro ------------------------------------------------------------*/
1215:Drivers/STM32L4xx_HAL_Driver/Inc/stm32l4xx_ll_rcc.h **** /** @defgroup RCC_LL_Exported_Macros RCC Exported Macros
1216:Drivers/STM32L4xx_HAL_Driver/Inc/stm32l4xx_ll_rcc.h ****   * @{
1217:Drivers/STM32L4xx_HAL_Driver/Inc/stm32l4xx_ll_rcc.h ****   */
1218:Drivers/STM32L4xx_HAL_Driver/Inc/stm32l4xx_ll_rcc.h **** 
1219:Drivers/STM32L4xx_HAL_Driver/Inc/stm32l4xx_ll_rcc.h **** /** @defgroup RCC_LL_EM_WRITE_READ Common Write and read registers Macros
1220:Drivers/STM32L4xx_HAL_Driver/Inc/stm32l4xx_ll_rcc.h ****   * @{
1221:Drivers/STM32L4xx_HAL_Driver/Inc/stm32l4xx_ll_rcc.h ****   */
1222:Drivers/STM32L4xx_HAL_Driver/Inc/stm32l4xx_ll_rcc.h **** 
1223:Drivers/STM32L4xx_HAL_Driver/Inc/stm32l4xx_ll_rcc.h **** /**
1224:Drivers/STM32L4xx_HAL_Driver/Inc/stm32l4xx_ll_rcc.h ****   * @brief  Write a value in RCC register
1225:Drivers/STM32L4xx_HAL_Driver/Inc/stm32l4xx_ll_rcc.h ****   * @param  __REG__ Register to be written
1226:Drivers/STM32L4xx_HAL_Driver/Inc/stm32l4xx_ll_rcc.h ****   * @param  __VALUE__ Value to be written in the register
1227:Drivers/STM32L4xx_HAL_Driver/Inc/stm32l4xx_ll_rcc.h ****   * @retval None
1228:Drivers/STM32L4xx_HAL_Driver/Inc/stm32l4xx_ll_rcc.h ****   */
1229:Drivers/STM32L4xx_HAL_Driver/Inc/stm32l4xx_ll_rcc.h **** #define LL_RCC_WriteReg(__REG__, __VALUE__) WRITE_REG(RCC->__REG__, (__VALUE__))
1230:Drivers/STM32L4xx_HAL_Driver/Inc/stm32l4xx_ll_rcc.h **** 
1231:Drivers/STM32L4xx_HAL_Driver/Inc/stm32l4xx_ll_rcc.h **** /**
1232:Drivers/STM32L4xx_HAL_Driver/Inc/stm32l4xx_ll_rcc.h ****   * @brief  Read a value in RCC register
1233:Drivers/STM32L4xx_HAL_Driver/Inc/stm32l4xx_ll_rcc.h ****   * @param  __REG__ Register to be read
1234:Drivers/STM32L4xx_HAL_Driver/Inc/stm32l4xx_ll_rcc.h ****   * @retval Register value
1235:Drivers/STM32L4xx_HAL_Driver/Inc/stm32l4xx_ll_rcc.h ****   */
1236:Drivers/STM32L4xx_HAL_Driver/Inc/stm32l4xx_ll_rcc.h **** #define LL_RCC_ReadReg(__REG__) READ_REG(RCC->__REG__)
1237:Drivers/STM32L4xx_HAL_Driver/Inc/stm32l4xx_ll_rcc.h **** /**
1238:Drivers/STM32L4xx_HAL_Driver/Inc/stm32l4xx_ll_rcc.h ****   * @}
1239:Drivers/STM32L4xx_HAL_Driver/Inc/stm32l4xx_ll_rcc.h ****   */
1240:Drivers/STM32L4xx_HAL_Driver/Inc/stm32l4xx_ll_rcc.h **** 
1241:Drivers/STM32L4xx_HAL_Driver/Inc/stm32l4xx_ll_rcc.h **** /** @defgroup RCC_LL_EM_CALC_FREQ Calculate frequencies
1242:Drivers/STM32L4xx_HAL_Driver/Inc/stm32l4xx_ll_rcc.h ****   * @{
1243:Drivers/STM32L4xx_HAL_Driver/Inc/stm32l4xx_ll_rcc.h ****   */
1244:Drivers/STM32L4xx_HAL_Driver/Inc/stm32l4xx_ll_rcc.h **** 
1245:Drivers/STM32L4xx_HAL_Driver/Inc/stm32l4xx_ll_rcc.h **** /**
1246:Drivers/STM32L4xx_HAL_Driver/Inc/stm32l4xx_ll_rcc.h ****   * @brief  Helper macro to calculate the PLLCLK frequency on system domain
1247:Drivers/STM32L4xx_HAL_Driver/Inc/stm32l4xx_ll_rcc.h ****   * @note ex: @ref __LL_RCC_CALC_PLLCLK_FREQ (HSE_VALUE,@ref LL_RCC_PLL_GetDivider (),
1248:Drivers/STM32L4xx_HAL_Driver/Inc/stm32l4xx_ll_rcc.h ****   *             @ref LL_RCC_PLL_GetN (), @ref LL_RCC_PLL_GetR ());
1249:Drivers/STM32L4xx_HAL_Driver/Inc/stm32l4xx_ll_rcc.h ****   * @param  __INPUTFREQ__ PLL Input frequency (based on MSI/HSE/HSI)
1250:Drivers/STM32L4xx_HAL_Driver/Inc/stm32l4xx_ll_rcc.h ****   * @param  __PLLM__ This parameter can be one of the following values:
1251:Drivers/STM32L4xx_HAL_Driver/Inc/stm32l4xx_ll_rcc.h ****   *         @arg @ref LL_RCC_PLLM_DIV_1
1252:Drivers/STM32L4xx_HAL_Driver/Inc/stm32l4xx_ll_rcc.h ****   *         @arg @ref LL_RCC_PLLM_DIV_2
1253:Drivers/STM32L4xx_HAL_Driver/Inc/stm32l4xx_ll_rcc.h ****   *         @arg @ref LL_RCC_PLLM_DIV_3
1254:Drivers/STM32L4xx_HAL_Driver/Inc/stm32l4xx_ll_rcc.h ****   *         @arg @ref LL_RCC_PLLM_DIV_4
ARM GAS  C:\Temp\ccmvY2mT.s 			page 40


1255:Drivers/STM32L4xx_HAL_Driver/Inc/stm32l4xx_ll_rcc.h ****   *         @arg @ref LL_RCC_PLLM_DIV_5
1256:Drivers/STM32L4xx_HAL_Driver/Inc/stm32l4xx_ll_rcc.h ****   *         @arg @ref LL_RCC_PLLM_DIV_6
1257:Drivers/STM32L4xx_HAL_Driver/Inc/stm32l4xx_ll_rcc.h ****   *         @arg @ref LL_RCC_PLLM_DIV_7
1258:Drivers/STM32L4xx_HAL_Driver/Inc/stm32l4xx_ll_rcc.h ****   *         @arg @ref LL_RCC_PLLM_DIV_8
1259:Drivers/STM32L4xx_HAL_Driver/Inc/stm32l4xx_ll_rcc.h ****   *         @arg @ref LL_RCC_PLLM_DIV_9 (*)
1260:Drivers/STM32L4xx_HAL_Driver/Inc/stm32l4xx_ll_rcc.h ****   *         @arg @ref LL_RCC_PLLM_DIV_10 (*)
1261:Drivers/STM32L4xx_HAL_Driver/Inc/stm32l4xx_ll_rcc.h ****   *         @arg @ref LL_RCC_PLLM_DIV_11 (*)
1262:Drivers/STM32L4xx_HAL_Driver/Inc/stm32l4xx_ll_rcc.h ****   *         @arg @ref LL_RCC_PLLM_DIV_12 (*)
1263:Drivers/STM32L4xx_HAL_Driver/Inc/stm32l4xx_ll_rcc.h ****   *         @arg @ref LL_RCC_PLLM_DIV_13 (*)
1264:Drivers/STM32L4xx_HAL_Driver/Inc/stm32l4xx_ll_rcc.h ****   *         @arg @ref LL_RCC_PLLM_DIV_14 (*)
1265:Drivers/STM32L4xx_HAL_Driver/Inc/stm32l4xx_ll_rcc.h ****   *         @arg @ref LL_RCC_PLLM_DIV_15 (*)
1266:Drivers/STM32L4xx_HAL_Driver/Inc/stm32l4xx_ll_rcc.h ****   *         @arg @ref LL_RCC_PLLM_DIV_16 (*)
1267:Drivers/STM32L4xx_HAL_Driver/Inc/stm32l4xx_ll_rcc.h ****   *
1268:Drivers/STM32L4xx_HAL_Driver/Inc/stm32l4xx_ll_rcc.h ****   *         (*) value not defined in all devices.
1269:Drivers/STM32L4xx_HAL_Driver/Inc/stm32l4xx_ll_rcc.h ****   * @param  __PLLN__ Between 8 and 86 or 127 depending on devices
1270:Drivers/STM32L4xx_HAL_Driver/Inc/stm32l4xx_ll_rcc.h ****   * @param  __PLLR__ This parameter can be one of the following values:
1271:Drivers/STM32L4xx_HAL_Driver/Inc/stm32l4xx_ll_rcc.h ****   *         @arg @ref LL_RCC_PLLR_DIV_2
1272:Drivers/STM32L4xx_HAL_Driver/Inc/stm32l4xx_ll_rcc.h ****   *         @arg @ref LL_RCC_PLLR_DIV_4
1273:Drivers/STM32L4xx_HAL_Driver/Inc/stm32l4xx_ll_rcc.h ****   *         @arg @ref LL_RCC_PLLR_DIV_6
1274:Drivers/STM32L4xx_HAL_Driver/Inc/stm32l4xx_ll_rcc.h ****   *         @arg @ref LL_RCC_PLLR_DIV_8
1275:Drivers/STM32L4xx_HAL_Driver/Inc/stm32l4xx_ll_rcc.h ****   * @retval PLL clock frequency (in Hz)
1276:Drivers/STM32L4xx_HAL_Driver/Inc/stm32l4xx_ll_rcc.h ****   */
1277:Drivers/STM32L4xx_HAL_Driver/Inc/stm32l4xx_ll_rcc.h **** #define __LL_RCC_CALC_PLLCLK_FREQ(__INPUTFREQ__, __PLLM__, __PLLN__, __PLLR__) ((__INPUTFREQ__) / (
1278:Drivers/STM32L4xx_HAL_Driver/Inc/stm32l4xx_ll_rcc.h ****                    ((((__PLLR__) >> RCC_PLLCFGR_PLLR_Pos) + 1U) * 2U))
1279:Drivers/STM32L4xx_HAL_Driver/Inc/stm32l4xx_ll_rcc.h **** 
1280:Drivers/STM32L4xx_HAL_Driver/Inc/stm32l4xx_ll_rcc.h **** #if defined(RCC_PLLSAI1_SUPPORT)
1281:Drivers/STM32L4xx_HAL_Driver/Inc/stm32l4xx_ll_rcc.h **** #if defined(RCC_PLLP_DIV_2_31_SUPPORT)
1282:Drivers/STM32L4xx_HAL_Driver/Inc/stm32l4xx_ll_rcc.h **** /**
1283:Drivers/STM32L4xx_HAL_Driver/Inc/stm32l4xx_ll_rcc.h ****   * @brief  Helper macro to calculate the PLLCLK frequency used on SAI domain
1284:Drivers/STM32L4xx_HAL_Driver/Inc/stm32l4xx_ll_rcc.h ****   * @note ex: @ref __LL_RCC_CALC_PLLCLK_SAI_FREQ (HSE_VALUE,@ref LL_RCC_PLL_GetDivider (),
1285:Drivers/STM32L4xx_HAL_Driver/Inc/stm32l4xx_ll_rcc.h ****   *             @ref LL_RCC_PLL_GetN (), @ref LL_RCC_PLL_GetP ());
1286:Drivers/STM32L4xx_HAL_Driver/Inc/stm32l4xx_ll_rcc.h ****   * @param  __INPUTFREQ__ PLL Input frequency (based on MSI/HSE/HSI)
1287:Drivers/STM32L4xx_HAL_Driver/Inc/stm32l4xx_ll_rcc.h ****   * @param  __PLLM__ This parameter can be one of the following values:
1288:Drivers/STM32L4xx_HAL_Driver/Inc/stm32l4xx_ll_rcc.h ****   *         @arg @ref LL_RCC_PLLM_DIV_1
1289:Drivers/STM32L4xx_HAL_Driver/Inc/stm32l4xx_ll_rcc.h ****   *         @arg @ref LL_RCC_PLLM_DIV_2
1290:Drivers/STM32L4xx_HAL_Driver/Inc/stm32l4xx_ll_rcc.h ****   *         @arg @ref LL_RCC_PLLM_DIV_3
1291:Drivers/STM32L4xx_HAL_Driver/Inc/stm32l4xx_ll_rcc.h ****   *         @arg @ref LL_RCC_PLLM_DIV_4
1292:Drivers/STM32L4xx_HAL_Driver/Inc/stm32l4xx_ll_rcc.h ****   *         @arg @ref LL_RCC_PLLM_DIV_5
1293:Drivers/STM32L4xx_HAL_Driver/Inc/stm32l4xx_ll_rcc.h ****   *         @arg @ref LL_RCC_PLLM_DIV_6
1294:Drivers/STM32L4xx_HAL_Driver/Inc/stm32l4xx_ll_rcc.h ****   *         @arg @ref LL_RCC_PLLM_DIV_7
1295:Drivers/STM32L4xx_HAL_Driver/Inc/stm32l4xx_ll_rcc.h ****   *         @arg @ref LL_RCC_PLLM_DIV_8
1296:Drivers/STM32L4xx_HAL_Driver/Inc/stm32l4xx_ll_rcc.h ****   *         @arg @ref LL_RCC_PLLM_DIV_9 (*)
1297:Drivers/STM32L4xx_HAL_Driver/Inc/stm32l4xx_ll_rcc.h ****   *         @arg @ref LL_RCC_PLLM_DIV_10 (*)
1298:Drivers/STM32L4xx_HAL_Driver/Inc/stm32l4xx_ll_rcc.h ****   *         @arg @ref LL_RCC_PLLM_DIV_11 (*)
1299:Drivers/STM32L4xx_HAL_Driver/Inc/stm32l4xx_ll_rcc.h ****   *         @arg @ref LL_RCC_PLLM_DIV_12 (*)
1300:Drivers/STM32L4xx_HAL_Driver/Inc/stm32l4xx_ll_rcc.h ****   *         @arg @ref LL_RCC_PLLM_DIV_13 (*)
1301:Drivers/STM32L4xx_HAL_Driver/Inc/stm32l4xx_ll_rcc.h ****   *         @arg @ref LL_RCC_PLLM_DIV_14 (*)
1302:Drivers/STM32L4xx_HAL_Driver/Inc/stm32l4xx_ll_rcc.h ****   *         @arg @ref LL_RCC_PLLM_DIV_15 (*)
1303:Drivers/STM32L4xx_HAL_Driver/Inc/stm32l4xx_ll_rcc.h ****   *         @arg @ref LL_RCC_PLLM_DIV_16 (*)
1304:Drivers/STM32L4xx_HAL_Driver/Inc/stm32l4xx_ll_rcc.h ****   *
1305:Drivers/STM32L4xx_HAL_Driver/Inc/stm32l4xx_ll_rcc.h ****   *         (*) value not defined in all devices.
1306:Drivers/STM32L4xx_HAL_Driver/Inc/stm32l4xx_ll_rcc.h ****   * @param  __PLLN__ Between 8 and 86 or 127 depending on devices
1307:Drivers/STM32L4xx_HAL_Driver/Inc/stm32l4xx_ll_rcc.h ****   * @param  __PLLP__ This parameter can be one of the following values:
1308:Drivers/STM32L4xx_HAL_Driver/Inc/stm32l4xx_ll_rcc.h ****   *         @arg @ref LL_RCC_PLLP_DIV_2
1309:Drivers/STM32L4xx_HAL_Driver/Inc/stm32l4xx_ll_rcc.h ****   *         @arg @ref LL_RCC_PLLP_DIV_3
1310:Drivers/STM32L4xx_HAL_Driver/Inc/stm32l4xx_ll_rcc.h ****   *         @arg @ref LL_RCC_PLLP_DIV_4
1311:Drivers/STM32L4xx_HAL_Driver/Inc/stm32l4xx_ll_rcc.h ****   *         @arg @ref LL_RCC_PLLP_DIV_5
ARM GAS  C:\Temp\ccmvY2mT.s 			page 41


1312:Drivers/STM32L4xx_HAL_Driver/Inc/stm32l4xx_ll_rcc.h ****   *         @arg @ref LL_RCC_PLLP_DIV_6
1313:Drivers/STM32L4xx_HAL_Driver/Inc/stm32l4xx_ll_rcc.h ****   *         @arg @ref LL_RCC_PLLP_DIV_7
1314:Drivers/STM32L4xx_HAL_Driver/Inc/stm32l4xx_ll_rcc.h ****   *         @arg @ref LL_RCC_PLLP_DIV_8
1315:Drivers/STM32L4xx_HAL_Driver/Inc/stm32l4xx_ll_rcc.h ****   *         @arg @ref LL_RCC_PLLP_DIV_9
1316:Drivers/STM32L4xx_HAL_Driver/Inc/stm32l4xx_ll_rcc.h ****   *         @arg @ref LL_RCC_PLLP_DIV_10
1317:Drivers/STM32L4xx_HAL_Driver/Inc/stm32l4xx_ll_rcc.h ****   *         @arg @ref LL_RCC_PLLP_DIV_11
1318:Drivers/STM32L4xx_HAL_Driver/Inc/stm32l4xx_ll_rcc.h ****   *         @arg @ref LL_RCC_PLLP_DIV_12
1319:Drivers/STM32L4xx_HAL_Driver/Inc/stm32l4xx_ll_rcc.h ****   *         @arg @ref LL_RCC_PLLP_DIV_13
1320:Drivers/STM32L4xx_HAL_Driver/Inc/stm32l4xx_ll_rcc.h ****   *         @arg @ref LL_RCC_PLLP_DIV_14
1321:Drivers/STM32L4xx_HAL_Driver/Inc/stm32l4xx_ll_rcc.h ****   *         @arg @ref LL_RCC_PLLP_DIV_15
1322:Drivers/STM32L4xx_HAL_Driver/Inc/stm32l4xx_ll_rcc.h ****   *         @arg @ref LL_RCC_PLLP_DIV_16
1323:Drivers/STM32L4xx_HAL_Driver/Inc/stm32l4xx_ll_rcc.h ****   *         @arg @ref LL_RCC_PLLP_DIV_17
1324:Drivers/STM32L4xx_HAL_Driver/Inc/stm32l4xx_ll_rcc.h ****   *         @arg @ref LL_RCC_PLLP_DIV_18
1325:Drivers/STM32L4xx_HAL_Driver/Inc/stm32l4xx_ll_rcc.h ****   *         @arg @ref LL_RCC_PLLP_DIV_19
1326:Drivers/STM32L4xx_HAL_Driver/Inc/stm32l4xx_ll_rcc.h ****   *         @arg @ref LL_RCC_PLLP_DIV_20
1327:Drivers/STM32L4xx_HAL_Driver/Inc/stm32l4xx_ll_rcc.h ****   *         @arg @ref LL_RCC_PLLP_DIV_21
1328:Drivers/STM32L4xx_HAL_Driver/Inc/stm32l4xx_ll_rcc.h ****   *         @arg @ref LL_RCC_PLLP_DIV_22
1329:Drivers/STM32L4xx_HAL_Driver/Inc/stm32l4xx_ll_rcc.h ****   *         @arg @ref LL_RCC_PLLP_DIV_23
1330:Drivers/STM32L4xx_HAL_Driver/Inc/stm32l4xx_ll_rcc.h ****   *         @arg @ref LL_RCC_PLLP_DIV_24
1331:Drivers/STM32L4xx_HAL_Driver/Inc/stm32l4xx_ll_rcc.h ****   *         @arg @ref LL_RCC_PLLP_DIV_25
1332:Drivers/STM32L4xx_HAL_Driver/Inc/stm32l4xx_ll_rcc.h ****   *         @arg @ref LL_RCC_PLLP_DIV_26
1333:Drivers/STM32L4xx_HAL_Driver/Inc/stm32l4xx_ll_rcc.h ****   *         @arg @ref LL_RCC_PLLP_DIV_27
1334:Drivers/STM32L4xx_HAL_Driver/Inc/stm32l4xx_ll_rcc.h ****   *         @arg @ref LL_RCC_PLLP_DIV_28
1335:Drivers/STM32L4xx_HAL_Driver/Inc/stm32l4xx_ll_rcc.h ****   *         @arg @ref LL_RCC_PLLP_DIV_29
1336:Drivers/STM32L4xx_HAL_Driver/Inc/stm32l4xx_ll_rcc.h ****   *         @arg @ref LL_RCC_PLLP_DIV_30
1337:Drivers/STM32L4xx_HAL_Driver/Inc/stm32l4xx_ll_rcc.h ****   *         @arg @ref LL_RCC_PLLP_DIV_31
1338:Drivers/STM32L4xx_HAL_Driver/Inc/stm32l4xx_ll_rcc.h ****   * @retval PLL clock frequency (in Hz)
1339:Drivers/STM32L4xx_HAL_Driver/Inc/stm32l4xx_ll_rcc.h ****   */
1340:Drivers/STM32L4xx_HAL_Driver/Inc/stm32l4xx_ll_rcc.h **** #define __LL_RCC_CALC_PLLCLK_SAI_FREQ(__INPUTFREQ__, __PLLM__, __PLLN__, __PLLP__) ((__INPUTFREQ__)
1341:Drivers/STM32L4xx_HAL_Driver/Inc/stm32l4xx_ll_rcc.h ****                    ((__PLLP__) >> RCC_PLLCFGR_PLLPDIV_Pos))
1342:Drivers/STM32L4xx_HAL_Driver/Inc/stm32l4xx_ll_rcc.h **** 
1343:Drivers/STM32L4xx_HAL_Driver/Inc/stm32l4xx_ll_rcc.h **** #else
1344:Drivers/STM32L4xx_HAL_Driver/Inc/stm32l4xx_ll_rcc.h **** /**
1345:Drivers/STM32L4xx_HAL_Driver/Inc/stm32l4xx_ll_rcc.h ****   * @brief  Helper macro to calculate the PLLCLK frequency used on SAI domain
1346:Drivers/STM32L4xx_HAL_Driver/Inc/stm32l4xx_ll_rcc.h ****   * @note ex: @ref __LL_RCC_CALC_PLLCLK_SAI_FREQ (HSE_VALUE,@ref LL_RCC_PLL_GetDivider (),
1347:Drivers/STM32L4xx_HAL_Driver/Inc/stm32l4xx_ll_rcc.h ****   *             @ref LL_RCC_PLL_GetN (), @ref LL_RCC_PLL_GetP ());
1348:Drivers/STM32L4xx_HAL_Driver/Inc/stm32l4xx_ll_rcc.h ****   * @param  __INPUTFREQ__ PLL Input frequency (based on MSI/HSE/HSI)
1349:Drivers/STM32L4xx_HAL_Driver/Inc/stm32l4xx_ll_rcc.h ****   * @param  __PLLM__ This parameter can be one of the following values:
1350:Drivers/STM32L4xx_HAL_Driver/Inc/stm32l4xx_ll_rcc.h ****   *         @arg @ref LL_RCC_PLLM_DIV_1
1351:Drivers/STM32L4xx_HAL_Driver/Inc/stm32l4xx_ll_rcc.h ****   *         @arg @ref LL_RCC_PLLM_DIV_2
1352:Drivers/STM32L4xx_HAL_Driver/Inc/stm32l4xx_ll_rcc.h ****   *         @arg @ref LL_RCC_PLLM_DIV_3
1353:Drivers/STM32L4xx_HAL_Driver/Inc/stm32l4xx_ll_rcc.h ****   *         @arg @ref LL_RCC_PLLM_DIV_4
1354:Drivers/STM32L4xx_HAL_Driver/Inc/stm32l4xx_ll_rcc.h ****   *         @arg @ref LL_RCC_PLLM_DIV_5
1355:Drivers/STM32L4xx_HAL_Driver/Inc/stm32l4xx_ll_rcc.h ****   *         @arg @ref LL_RCC_PLLM_DIV_6
1356:Drivers/STM32L4xx_HAL_Driver/Inc/stm32l4xx_ll_rcc.h ****   *         @arg @ref LL_RCC_PLLM_DIV_7
1357:Drivers/STM32L4xx_HAL_Driver/Inc/stm32l4xx_ll_rcc.h ****   *         @arg @ref LL_RCC_PLLM_DIV_8
1358:Drivers/STM32L4xx_HAL_Driver/Inc/stm32l4xx_ll_rcc.h ****   * @param  __PLLN__ Between 8 and 86
1359:Drivers/STM32L4xx_HAL_Driver/Inc/stm32l4xx_ll_rcc.h ****   * @param  __PLLP__ This parameter can be one of the following values:
1360:Drivers/STM32L4xx_HAL_Driver/Inc/stm32l4xx_ll_rcc.h ****   *         @arg @ref LL_RCC_PLLP_DIV_7
1361:Drivers/STM32L4xx_HAL_Driver/Inc/stm32l4xx_ll_rcc.h ****   *         @arg @ref LL_RCC_PLLP_DIV_17
1362:Drivers/STM32L4xx_HAL_Driver/Inc/stm32l4xx_ll_rcc.h ****   * @retval PLL clock frequency (in Hz)
1363:Drivers/STM32L4xx_HAL_Driver/Inc/stm32l4xx_ll_rcc.h ****   */
1364:Drivers/STM32L4xx_HAL_Driver/Inc/stm32l4xx_ll_rcc.h **** #define __LL_RCC_CALC_PLLCLK_SAI_FREQ(__INPUTFREQ__, __PLLM__, __PLLN__, __PLLP__) ((__INPUTFREQ__)
1365:Drivers/STM32L4xx_HAL_Driver/Inc/stm32l4xx_ll_rcc.h ****                    (((__PLLP__) == LL_RCC_PLLP_DIV_7) ? 7U : 17U))
1366:Drivers/STM32L4xx_HAL_Driver/Inc/stm32l4xx_ll_rcc.h **** 
1367:Drivers/STM32L4xx_HAL_Driver/Inc/stm32l4xx_ll_rcc.h **** #endif /* RCC_PLLP_DIV_2_31_SUPPORT */
1368:Drivers/STM32L4xx_HAL_Driver/Inc/stm32l4xx_ll_rcc.h **** #endif /* RCC_PLLSAI1_SUPPORT */
ARM GAS  C:\Temp\ccmvY2mT.s 			page 42


1369:Drivers/STM32L4xx_HAL_Driver/Inc/stm32l4xx_ll_rcc.h **** 
1370:Drivers/STM32L4xx_HAL_Driver/Inc/stm32l4xx_ll_rcc.h **** /**
1371:Drivers/STM32L4xx_HAL_Driver/Inc/stm32l4xx_ll_rcc.h ****   * @brief  Helper macro to calculate the PLLCLK frequency used on 48M domain
1372:Drivers/STM32L4xx_HAL_Driver/Inc/stm32l4xx_ll_rcc.h ****   * @note ex: @ref __LL_RCC_CALC_PLLCLK_48M_FREQ (HSE_VALUE,@ref LL_RCC_PLL_GetDivider (),
1373:Drivers/STM32L4xx_HAL_Driver/Inc/stm32l4xx_ll_rcc.h ****   *             @ref LL_RCC_PLL_GetN (), @ref LL_RCC_PLL_GetQ ());
1374:Drivers/STM32L4xx_HAL_Driver/Inc/stm32l4xx_ll_rcc.h ****   * @param  __INPUTFREQ__ PLL Input frequency (based on MSI/HSE/HSI)
1375:Drivers/STM32L4xx_HAL_Driver/Inc/stm32l4xx_ll_rcc.h ****   * @param  __PLLM__ This parameter can be one of the following values:
1376:Drivers/STM32L4xx_HAL_Driver/Inc/stm32l4xx_ll_rcc.h ****   *         @arg @ref LL_RCC_PLLM_DIV_1
1377:Drivers/STM32L4xx_HAL_Driver/Inc/stm32l4xx_ll_rcc.h ****   *         @arg @ref LL_RCC_PLLM_DIV_2
1378:Drivers/STM32L4xx_HAL_Driver/Inc/stm32l4xx_ll_rcc.h ****   *         @arg @ref LL_RCC_PLLM_DIV_3
1379:Drivers/STM32L4xx_HAL_Driver/Inc/stm32l4xx_ll_rcc.h ****   *         @arg @ref LL_RCC_PLLM_DIV_4
1380:Drivers/STM32L4xx_HAL_Driver/Inc/stm32l4xx_ll_rcc.h ****   *         @arg @ref LL_RCC_PLLM_DIV_5
1381:Drivers/STM32L4xx_HAL_Driver/Inc/stm32l4xx_ll_rcc.h ****   *         @arg @ref LL_RCC_PLLM_DIV_6
1382:Drivers/STM32L4xx_HAL_Driver/Inc/stm32l4xx_ll_rcc.h ****   *         @arg @ref LL_RCC_PLLM_DIV_7
1383:Drivers/STM32L4xx_HAL_Driver/Inc/stm32l4xx_ll_rcc.h ****   *         @arg @ref LL_RCC_PLLM_DIV_8
1384:Drivers/STM32L4xx_HAL_Driver/Inc/stm32l4xx_ll_rcc.h ****   *         @arg @ref LL_RCC_PLLM_DIV_9 (*)
1385:Drivers/STM32L4xx_HAL_Driver/Inc/stm32l4xx_ll_rcc.h ****   *         @arg @ref LL_RCC_PLLM_DIV_10 (*)
1386:Drivers/STM32L4xx_HAL_Driver/Inc/stm32l4xx_ll_rcc.h ****   *         @arg @ref LL_RCC_PLLM_DIV_11 (*)
1387:Drivers/STM32L4xx_HAL_Driver/Inc/stm32l4xx_ll_rcc.h ****   *         @arg @ref LL_RCC_PLLM_DIV_12 (*)
1388:Drivers/STM32L4xx_HAL_Driver/Inc/stm32l4xx_ll_rcc.h ****   *         @arg @ref LL_RCC_PLLM_DIV_13 (*)
1389:Drivers/STM32L4xx_HAL_Driver/Inc/stm32l4xx_ll_rcc.h ****   *         @arg @ref LL_RCC_PLLM_DIV_14 (*)
1390:Drivers/STM32L4xx_HAL_Driver/Inc/stm32l4xx_ll_rcc.h ****   *         @arg @ref LL_RCC_PLLM_DIV_15 (*)
1391:Drivers/STM32L4xx_HAL_Driver/Inc/stm32l4xx_ll_rcc.h ****   *         @arg @ref LL_RCC_PLLM_DIV_16 (*)
1392:Drivers/STM32L4xx_HAL_Driver/Inc/stm32l4xx_ll_rcc.h ****   *
1393:Drivers/STM32L4xx_HAL_Driver/Inc/stm32l4xx_ll_rcc.h ****   *         (*) value not defined in all devices.
1394:Drivers/STM32L4xx_HAL_Driver/Inc/stm32l4xx_ll_rcc.h ****   * @param  __PLLN__ Between 8 and 86 or 127 depending on devices
1395:Drivers/STM32L4xx_HAL_Driver/Inc/stm32l4xx_ll_rcc.h ****   * @param  __PLLQ__ This parameter can be one of the following values:
1396:Drivers/STM32L4xx_HAL_Driver/Inc/stm32l4xx_ll_rcc.h ****   *         @arg @ref LL_RCC_PLLQ_DIV_2
1397:Drivers/STM32L4xx_HAL_Driver/Inc/stm32l4xx_ll_rcc.h ****   *         @arg @ref LL_RCC_PLLQ_DIV_4
1398:Drivers/STM32L4xx_HAL_Driver/Inc/stm32l4xx_ll_rcc.h ****   *         @arg @ref LL_RCC_PLLQ_DIV_6
1399:Drivers/STM32L4xx_HAL_Driver/Inc/stm32l4xx_ll_rcc.h ****   *         @arg @ref LL_RCC_PLLQ_DIV_8
1400:Drivers/STM32L4xx_HAL_Driver/Inc/stm32l4xx_ll_rcc.h ****   * @retval PLL clock frequency (in Hz)
1401:Drivers/STM32L4xx_HAL_Driver/Inc/stm32l4xx_ll_rcc.h ****   */
1402:Drivers/STM32L4xx_HAL_Driver/Inc/stm32l4xx_ll_rcc.h **** #define __LL_RCC_CALC_PLLCLK_48M_FREQ(__INPUTFREQ__, __PLLM__, __PLLN__, __PLLQ__) ((__INPUTFREQ__)
1403:Drivers/STM32L4xx_HAL_Driver/Inc/stm32l4xx_ll_rcc.h ****                    ((((__PLLQ__) >> RCC_PLLCFGR_PLLQ_Pos) + 1U) << 1U))
1404:Drivers/STM32L4xx_HAL_Driver/Inc/stm32l4xx_ll_rcc.h **** 
1405:Drivers/STM32L4xx_HAL_Driver/Inc/stm32l4xx_ll_rcc.h **** #if defined(RCC_PLLSAI1_SUPPORT)
1406:Drivers/STM32L4xx_HAL_Driver/Inc/stm32l4xx_ll_rcc.h **** #if defined(RCC_PLLSAI1M_DIV_1_16_SUPPORT) && defined(RCC_PLLSAI1P_DIV_2_31_SUPPORT)
1407:Drivers/STM32L4xx_HAL_Driver/Inc/stm32l4xx_ll_rcc.h **** /**
1408:Drivers/STM32L4xx_HAL_Driver/Inc/stm32l4xx_ll_rcc.h ****   * @brief  Helper macro to calculate the PLLSAI1 frequency used for SAI domain
1409:Drivers/STM32L4xx_HAL_Driver/Inc/stm32l4xx_ll_rcc.h ****   * @note ex: @ref __LL_RCC_CALC_PLLSAI1_SAI_FREQ (HSE_VALUE,@ref LL_RCC_PLLSAI1_GetDivider (),
1410:Drivers/STM32L4xx_HAL_Driver/Inc/stm32l4xx_ll_rcc.h ****   *             @ref LL_RCC_PLLSAI1_GetN (), @ref LL_RCC_PLLSAI1_GetP ());
1411:Drivers/STM32L4xx_HAL_Driver/Inc/stm32l4xx_ll_rcc.h ****   * @param  __INPUTFREQ__ PLL Input frequency (based on MSI/HSE/HSI)
1412:Drivers/STM32L4xx_HAL_Driver/Inc/stm32l4xx_ll_rcc.h ****   * @param  __PLLSAI1M__ This parameter can be one of the following values:
1413:Drivers/STM32L4xx_HAL_Driver/Inc/stm32l4xx_ll_rcc.h ****   *         @arg @ref LL_RCC_PLLSAI1M_DIV_1
1414:Drivers/STM32L4xx_HAL_Driver/Inc/stm32l4xx_ll_rcc.h ****   *         @arg @ref LL_RCC_PLLSAI1M_DIV_2
1415:Drivers/STM32L4xx_HAL_Driver/Inc/stm32l4xx_ll_rcc.h ****   *         @arg @ref LL_RCC_PLLSAI1M_DIV_3
1416:Drivers/STM32L4xx_HAL_Driver/Inc/stm32l4xx_ll_rcc.h ****   *         @arg @ref LL_RCC_PLLSAI1M_DIV_4
1417:Drivers/STM32L4xx_HAL_Driver/Inc/stm32l4xx_ll_rcc.h ****   *         @arg @ref LL_RCC_PLLSAI1M_DIV_5
1418:Drivers/STM32L4xx_HAL_Driver/Inc/stm32l4xx_ll_rcc.h ****   *         @arg @ref LL_RCC_PLLSAI1M_DIV_6
1419:Drivers/STM32L4xx_HAL_Driver/Inc/stm32l4xx_ll_rcc.h ****   *         @arg @ref LL_RCC_PLLSAI1M_DIV_7
1420:Drivers/STM32L4xx_HAL_Driver/Inc/stm32l4xx_ll_rcc.h ****   *         @arg @ref LL_RCC_PLLSAI1M_DIV_8
1421:Drivers/STM32L4xx_HAL_Driver/Inc/stm32l4xx_ll_rcc.h ****   *         @arg @ref LL_RCC_PLLSAI1M_DIV_9
1422:Drivers/STM32L4xx_HAL_Driver/Inc/stm32l4xx_ll_rcc.h ****   *         @arg @ref LL_RCC_PLLSAI1M_DIV_10
1423:Drivers/STM32L4xx_HAL_Driver/Inc/stm32l4xx_ll_rcc.h ****   *         @arg @ref LL_RCC_PLLSAI1M_DIV_11
1424:Drivers/STM32L4xx_HAL_Driver/Inc/stm32l4xx_ll_rcc.h ****   *         @arg @ref LL_RCC_PLLSAI1M_DIV_12
1425:Drivers/STM32L4xx_HAL_Driver/Inc/stm32l4xx_ll_rcc.h ****   *         @arg @ref LL_RCC_PLLSAI1M_DIV_13
ARM GAS  C:\Temp\ccmvY2mT.s 			page 43


1426:Drivers/STM32L4xx_HAL_Driver/Inc/stm32l4xx_ll_rcc.h ****   *         @arg @ref LL_RCC_PLLSAI1M_DIV_14
1427:Drivers/STM32L4xx_HAL_Driver/Inc/stm32l4xx_ll_rcc.h ****   *         @arg @ref LL_RCC_PLLSAI1M_DIV_15
1428:Drivers/STM32L4xx_HAL_Driver/Inc/stm32l4xx_ll_rcc.h ****   *         @arg @ref LL_RCC_PLLSAI1M_DIV_16
1429:Drivers/STM32L4xx_HAL_Driver/Inc/stm32l4xx_ll_rcc.h ****   * @param  __PLLSAI1N__ Between 8 and 86 or 127 depending on devices
1430:Drivers/STM32L4xx_HAL_Driver/Inc/stm32l4xx_ll_rcc.h ****   * @param  __PLLSAI1P__ This parameter can be one of the following values:
1431:Drivers/STM32L4xx_HAL_Driver/Inc/stm32l4xx_ll_rcc.h ****   *         @arg @ref LL_RCC_PLLSAI1P_DIV_2
1432:Drivers/STM32L4xx_HAL_Driver/Inc/stm32l4xx_ll_rcc.h ****   *         @arg @ref LL_RCC_PLLSAI1P_DIV_3
1433:Drivers/STM32L4xx_HAL_Driver/Inc/stm32l4xx_ll_rcc.h ****   *         @arg @ref LL_RCC_PLLSAI1P_DIV_4
1434:Drivers/STM32L4xx_HAL_Driver/Inc/stm32l4xx_ll_rcc.h ****   *         @arg @ref LL_RCC_PLLSAI1P_DIV_5
1435:Drivers/STM32L4xx_HAL_Driver/Inc/stm32l4xx_ll_rcc.h ****   *         @arg @ref LL_RCC_PLLSAI1P_DIV_6
1436:Drivers/STM32L4xx_HAL_Driver/Inc/stm32l4xx_ll_rcc.h ****   *         @arg @ref LL_RCC_PLLSAI1P_DIV_7
1437:Drivers/STM32L4xx_HAL_Driver/Inc/stm32l4xx_ll_rcc.h ****   *         @arg @ref LL_RCC_PLLSAI1P_DIV_8
1438:Drivers/STM32L4xx_HAL_Driver/Inc/stm32l4xx_ll_rcc.h ****   *         @arg @ref LL_RCC_PLLSAI1P_DIV_9
1439:Drivers/STM32L4xx_HAL_Driver/Inc/stm32l4xx_ll_rcc.h ****   *         @arg @ref LL_RCC_PLLSAI1P_DIV_10
1440:Drivers/STM32L4xx_HAL_Driver/Inc/stm32l4xx_ll_rcc.h ****   *         @arg @ref LL_RCC_PLLSAI1P_DIV_11
1441:Drivers/STM32L4xx_HAL_Driver/Inc/stm32l4xx_ll_rcc.h ****   *         @arg @ref LL_RCC_PLLSAI1P_DIV_12
1442:Drivers/STM32L4xx_HAL_Driver/Inc/stm32l4xx_ll_rcc.h ****   *         @arg @ref LL_RCC_PLLSAI1P_DIV_13
1443:Drivers/STM32L4xx_HAL_Driver/Inc/stm32l4xx_ll_rcc.h ****   *         @arg @ref LL_RCC_PLLSAI1P_DIV_14
1444:Drivers/STM32L4xx_HAL_Driver/Inc/stm32l4xx_ll_rcc.h ****   *         @arg @ref LL_RCC_PLLSAI1P_DIV_15
1445:Drivers/STM32L4xx_HAL_Driver/Inc/stm32l4xx_ll_rcc.h ****   *         @arg @ref LL_RCC_PLLSAI1P_DIV_16
1446:Drivers/STM32L4xx_HAL_Driver/Inc/stm32l4xx_ll_rcc.h ****   *         @arg @ref LL_RCC_PLLSAI1P_DIV_17
1447:Drivers/STM32L4xx_HAL_Driver/Inc/stm32l4xx_ll_rcc.h ****   *         @arg @ref LL_RCC_PLLSAI1P_DIV_18
1448:Drivers/STM32L4xx_HAL_Driver/Inc/stm32l4xx_ll_rcc.h ****   *         @arg @ref LL_RCC_PLLSAI1P_DIV_19
1449:Drivers/STM32L4xx_HAL_Driver/Inc/stm32l4xx_ll_rcc.h ****   *         @arg @ref LL_RCC_PLLSAI1P_DIV_20
1450:Drivers/STM32L4xx_HAL_Driver/Inc/stm32l4xx_ll_rcc.h ****   *         @arg @ref LL_RCC_PLLSAI1P_DIV_21
1451:Drivers/STM32L4xx_HAL_Driver/Inc/stm32l4xx_ll_rcc.h ****   *         @arg @ref LL_RCC_PLLSAI1P_DIV_22
1452:Drivers/STM32L4xx_HAL_Driver/Inc/stm32l4xx_ll_rcc.h ****   *         @arg @ref LL_RCC_PLLSAI1P_DIV_23
1453:Drivers/STM32L4xx_HAL_Driver/Inc/stm32l4xx_ll_rcc.h ****   *         @arg @ref LL_RCC_PLLSAI1P_DIV_24
1454:Drivers/STM32L4xx_HAL_Driver/Inc/stm32l4xx_ll_rcc.h ****   *         @arg @ref LL_RCC_PLLSAI1P_DIV_25
1455:Drivers/STM32L4xx_HAL_Driver/Inc/stm32l4xx_ll_rcc.h ****   *         @arg @ref LL_RCC_PLLSAI1P_DIV_26
1456:Drivers/STM32L4xx_HAL_Driver/Inc/stm32l4xx_ll_rcc.h ****   *         @arg @ref LL_RCC_PLLSAI1P_DIV_27
1457:Drivers/STM32L4xx_HAL_Driver/Inc/stm32l4xx_ll_rcc.h ****   *         @arg @ref LL_RCC_PLLSAI1P_DIV_28
1458:Drivers/STM32L4xx_HAL_Driver/Inc/stm32l4xx_ll_rcc.h ****   *         @arg @ref LL_RCC_PLLSAI1P_DIV_29
1459:Drivers/STM32L4xx_HAL_Driver/Inc/stm32l4xx_ll_rcc.h ****   *         @arg @ref LL_RCC_PLLSAI1P_DIV_30
1460:Drivers/STM32L4xx_HAL_Driver/Inc/stm32l4xx_ll_rcc.h ****   *         @arg @ref LL_RCC_PLLSAI1P_DIV_31
1461:Drivers/STM32L4xx_HAL_Driver/Inc/stm32l4xx_ll_rcc.h ****   * @retval PLLSAI1 clock frequency (in Hz)
1462:Drivers/STM32L4xx_HAL_Driver/Inc/stm32l4xx_ll_rcc.h ****   */
1463:Drivers/STM32L4xx_HAL_Driver/Inc/stm32l4xx_ll_rcc.h **** #define __LL_RCC_CALC_PLLSAI1_SAI_FREQ(__INPUTFREQ__, __PLLSAI1M__, __PLLSAI1N__, __PLLSAI1P__) \
1464:Drivers/STM32L4xx_HAL_Driver/Inc/stm32l4xx_ll_rcc.h ****                    ((__INPUTFREQ__) / ((((__PLLSAI1M__) >> RCC_PLLSAI1CFGR_PLLSAI1M_Pos) + 1U)) * (
1465:Drivers/STM32L4xx_HAL_Driver/Inc/stm32l4xx_ll_rcc.h ****                     ((__PLLSAI1P__) >> RCC_PLLSAI1CFGR_PLLSAI1PDIV_Pos))
1466:Drivers/STM32L4xx_HAL_Driver/Inc/stm32l4xx_ll_rcc.h **** 
1467:Drivers/STM32L4xx_HAL_Driver/Inc/stm32l4xx_ll_rcc.h **** #elif defined(RCC_PLLSAI1P_DIV_2_31_SUPPORT)
1468:Drivers/STM32L4xx_HAL_Driver/Inc/stm32l4xx_ll_rcc.h **** /**
1469:Drivers/STM32L4xx_HAL_Driver/Inc/stm32l4xx_ll_rcc.h ****   * @brief  Helper macro to calculate the PLLSAI1 frequency used for SAI domain
1470:Drivers/STM32L4xx_HAL_Driver/Inc/stm32l4xx_ll_rcc.h ****   * @note ex: @ref __LL_RCC_CALC_PLLSAI1_SAI_FREQ (HSE_VALUE,@ref LL_RCC_PLL_GetDivider (),
1471:Drivers/STM32L4xx_HAL_Driver/Inc/stm32l4xx_ll_rcc.h ****   *             @ref LL_RCC_PLLSAI1_GetN (), @ref LL_RCC_PLLSAI1_GetP ());
1472:Drivers/STM32L4xx_HAL_Driver/Inc/stm32l4xx_ll_rcc.h ****   * @param  __INPUTFREQ__ PLL Input frequency (based on MSI/HSE/HSI)
1473:Drivers/STM32L4xx_HAL_Driver/Inc/stm32l4xx_ll_rcc.h ****   * @param  __PLLM__ This parameter can be one of the following values:
1474:Drivers/STM32L4xx_HAL_Driver/Inc/stm32l4xx_ll_rcc.h ****   *         @arg @ref LL_RCC_PLLM_DIV_1
1475:Drivers/STM32L4xx_HAL_Driver/Inc/stm32l4xx_ll_rcc.h ****   *         @arg @ref LL_RCC_PLLM_DIV_2
1476:Drivers/STM32L4xx_HAL_Driver/Inc/stm32l4xx_ll_rcc.h ****   *         @arg @ref LL_RCC_PLLM_DIV_3
1477:Drivers/STM32L4xx_HAL_Driver/Inc/stm32l4xx_ll_rcc.h ****   *         @arg @ref LL_RCC_PLLM_DIV_4
1478:Drivers/STM32L4xx_HAL_Driver/Inc/stm32l4xx_ll_rcc.h ****   *         @arg @ref LL_RCC_PLLM_DIV_5
1479:Drivers/STM32L4xx_HAL_Driver/Inc/stm32l4xx_ll_rcc.h ****   *         @arg @ref LL_RCC_PLLM_DIV_6
1480:Drivers/STM32L4xx_HAL_Driver/Inc/stm32l4xx_ll_rcc.h ****   *         @arg @ref LL_RCC_PLLM_DIV_7
1481:Drivers/STM32L4xx_HAL_Driver/Inc/stm32l4xx_ll_rcc.h ****   *         @arg @ref LL_RCC_PLLM_DIV_8
1482:Drivers/STM32L4xx_HAL_Driver/Inc/stm32l4xx_ll_rcc.h ****   * @param  __PLLSAI1N__ Between 8 and 86 or 127 depending on devices
ARM GAS  C:\Temp\ccmvY2mT.s 			page 44


1483:Drivers/STM32L4xx_HAL_Driver/Inc/stm32l4xx_ll_rcc.h ****   * @param  __PLLSAI1P__ This parameter can be one of the following values:
1484:Drivers/STM32L4xx_HAL_Driver/Inc/stm32l4xx_ll_rcc.h ****   *         @arg @ref LL_RCC_PLLSAI1P_DIV_2
1485:Drivers/STM32L4xx_HAL_Driver/Inc/stm32l4xx_ll_rcc.h ****   *         @arg @ref LL_RCC_PLLSAI1P_DIV_3
1486:Drivers/STM32L4xx_HAL_Driver/Inc/stm32l4xx_ll_rcc.h ****   *         @arg @ref LL_RCC_PLLSAI1P_DIV_4
1487:Drivers/STM32L4xx_HAL_Driver/Inc/stm32l4xx_ll_rcc.h ****   *         @arg @ref LL_RCC_PLLSAI1P_DIV_5
1488:Drivers/STM32L4xx_HAL_Driver/Inc/stm32l4xx_ll_rcc.h ****   *         @arg @ref LL_RCC_PLLSAI1P_DIV_6
1489:Drivers/STM32L4xx_HAL_Driver/Inc/stm32l4xx_ll_rcc.h ****   *         @arg @ref LL_RCC_PLLSAI1P_DIV_7
1490:Drivers/STM32L4xx_HAL_Driver/Inc/stm32l4xx_ll_rcc.h ****   *         @arg @ref LL_RCC_PLLSAI1P_DIV_8
1491:Drivers/STM32L4xx_HAL_Driver/Inc/stm32l4xx_ll_rcc.h ****   *         @arg @ref LL_RCC_PLLSAI1P_DIV_9
1492:Drivers/STM32L4xx_HAL_Driver/Inc/stm32l4xx_ll_rcc.h ****   *         @arg @ref LL_RCC_PLLSAI1P_DIV_10
1493:Drivers/STM32L4xx_HAL_Driver/Inc/stm32l4xx_ll_rcc.h ****   *         @arg @ref LL_RCC_PLLSAI1P_DIV_11
1494:Drivers/STM32L4xx_HAL_Driver/Inc/stm32l4xx_ll_rcc.h ****   *         @arg @ref LL_RCC_PLLSAI1P_DIV_12
1495:Drivers/STM32L4xx_HAL_Driver/Inc/stm32l4xx_ll_rcc.h ****   *         @arg @ref LL_RCC_PLLSAI1P_DIV_13
1496:Drivers/STM32L4xx_HAL_Driver/Inc/stm32l4xx_ll_rcc.h ****   *         @arg @ref LL_RCC_PLLSAI1P_DIV_14
1497:Drivers/STM32L4xx_HAL_Driver/Inc/stm32l4xx_ll_rcc.h ****   *         @arg @ref LL_RCC_PLLSAI1P_DIV_15
1498:Drivers/STM32L4xx_HAL_Driver/Inc/stm32l4xx_ll_rcc.h ****   *         @arg @ref LL_RCC_PLLSAI1P_DIV_16
1499:Drivers/STM32L4xx_HAL_Driver/Inc/stm32l4xx_ll_rcc.h ****   *         @arg @ref LL_RCC_PLLSAI1P_DIV_17
1500:Drivers/STM32L4xx_HAL_Driver/Inc/stm32l4xx_ll_rcc.h ****   *         @arg @ref LL_RCC_PLLSAI1P_DIV_18
1501:Drivers/STM32L4xx_HAL_Driver/Inc/stm32l4xx_ll_rcc.h ****   *         @arg @ref LL_RCC_PLLSAI1P_DIV_19
1502:Drivers/STM32L4xx_HAL_Driver/Inc/stm32l4xx_ll_rcc.h ****   *         @arg @ref LL_RCC_PLLSAI1P_DIV_20
1503:Drivers/STM32L4xx_HAL_Driver/Inc/stm32l4xx_ll_rcc.h ****   *         @arg @ref LL_RCC_PLLSAI1P_DIV_21
1504:Drivers/STM32L4xx_HAL_Driver/Inc/stm32l4xx_ll_rcc.h ****   *         @arg @ref LL_RCC_PLLSAI1P_DIV_22
1505:Drivers/STM32L4xx_HAL_Driver/Inc/stm32l4xx_ll_rcc.h ****   *         @arg @ref LL_RCC_PLLSAI1P_DIV_23
1506:Drivers/STM32L4xx_HAL_Driver/Inc/stm32l4xx_ll_rcc.h ****   *         @arg @ref LL_RCC_PLLSAI1P_DIV_24
1507:Drivers/STM32L4xx_HAL_Driver/Inc/stm32l4xx_ll_rcc.h ****   *         @arg @ref LL_RCC_PLLSAI1P_DIV_25
1508:Drivers/STM32L4xx_HAL_Driver/Inc/stm32l4xx_ll_rcc.h ****   *         @arg @ref LL_RCC_PLLSAI1P_DIV_26
1509:Drivers/STM32L4xx_HAL_Driver/Inc/stm32l4xx_ll_rcc.h ****   *         @arg @ref LL_RCC_PLLSAI1P_DIV_27
1510:Drivers/STM32L4xx_HAL_Driver/Inc/stm32l4xx_ll_rcc.h ****   *         @arg @ref LL_RCC_PLLSAI1P_DIV_28
1511:Drivers/STM32L4xx_HAL_Driver/Inc/stm32l4xx_ll_rcc.h ****   *         @arg @ref LL_RCC_PLLSAI1P_DIV_29
1512:Drivers/STM32L4xx_HAL_Driver/Inc/stm32l4xx_ll_rcc.h ****   *         @arg @ref LL_RCC_PLLSAI1P_DIV_30
1513:Drivers/STM32L4xx_HAL_Driver/Inc/stm32l4xx_ll_rcc.h ****   *         @arg @ref LL_RCC_PLLSAI1P_DIV_31
1514:Drivers/STM32L4xx_HAL_Driver/Inc/stm32l4xx_ll_rcc.h ****   * @retval PLLSAI1 clock frequency (in Hz)
1515:Drivers/STM32L4xx_HAL_Driver/Inc/stm32l4xx_ll_rcc.h ****   */
1516:Drivers/STM32L4xx_HAL_Driver/Inc/stm32l4xx_ll_rcc.h **** #define __LL_RCC_CALC_PLLSAI1_SAI_FREQ(__INPUTFREQ__, __PLLM__, __PLLSAI1N__, __PLLSAI1P__) \
1517:Drivers/STM32L4xx_HAL_Driver/Inc/stm32l4xx_ll_rcc.h ****                    ((__INPUTFREQ__) / ((((__PLLM__)>> RCC_PLLCFGR_PLLM_Pos) + 1U)) * (__PLLSAI1N__)
1518:Drivers/STM32L4xx_HAL_Driver/Inc/stm32l4xx_ll_rcc.h ****                     ((__PLLSAI1P__) >> RCC_PLLSAI1CFGR_PLLSAI1PDIV_Pos))
1519:Drivers/STM32L4xx_HAL_Driver/Inc/stm32l4xx_ll_rcc.h **** 
1520:Drivers/STM32L4xx_HAL_Driver/Inc/stm32l4xx_ll_rcc.h **** #else
1521:Drivers/STM32L4xx_HAL_Driver/Inc/stm32l4xx_ll_rcc.h **** /**
1522:Drivers/STM32L4xx_HAL_Driver/Inc/stm32l4xx_ll_rcc.h ****   * @brief  Helper macro to calculate the PLLSAI1 frequency used for SAI domain
1523:Drivers/STM32L4xx_HAL_Driver/Inc/stm32l4xx_ll_rcc.h ****   * @note ex: @ref __LL_RCC_CALC_PLLSAI1_SAI_FREQ (HSE_VALUE,@ref LL_RCC_PLL_GetDivider (),
1524:Drivers/STM32L4xx_HAL_Driver/Inc/stm32l4xx_ll_rcc.h ****   *             @ref LL_RCC_PLLSAI1_GetN (), @ref LL_RCC_PLLSAI1_GetP ());
1525:Drivers/STM32L4xx_HAL_Driver/Inc/stm32l4xx_ll_rcc.h ****   * @param  __INPUTFREQ__ PLL Input frequency (based on MSI/HSE/HSI)
1526:Drivers/STM32L4xx_HAL_Driver/Inc/stm32l4xx_ll_rcc.h ****   * @param  __PLLM__ This parameter can be one of the following values:
1527:Drivers/STM32L4xx_HAL_Driver/Inc/stm32l4xx_ll_rcc.h ****   *         @arg @ref LL_RCC_PLLM_DIV_1
1528:Drivers/STM32L4xx_HAL_Driver/Inc/stm32l4xx_ll_rcc.h ****   *         @arg @ref LL_RCC_PLLM_DIV_2
1529:Drivers/STM32L4xx_HAL_Driver/Inc/stm32l4xx_ll_rcc.h ****   *         @arg @ref LL_RCC_PLLM_DIV_3
1530:Drivers/STM32L4xx_HAL_Driver/Inc/stm32l4xx_ll_rcc.h ****   *         @arg @ref LL_RCC_PLLM_DIV_4
1531:Drivers/STM32L4xx_HAL_Driver/Inc/stm32l4xx_ll_rcc.h ****   *         @arg @ref LL_RCC_PLLM_DIV_5
1532:Drivers/STM32L4xx_HAL_Driver/Inc/stm32l4xx_ll_rcc.h ****   *         @arg @ref LL_RCC_PLLM_DIV_6
1533:Drivers/STM32L4xx_HAL_Driver/Inc/stm32l4xx_ll_rcc.h ****   *         @arg @ref LL_RCC_PLLM_DIV_7
1534:Drivers/STM32L4xx_HAL_Driver/Inc/stm32l4xx_ll_rcc.h ****   *         @arg @ref LL_RCC_PLLM_DIV_8
1535:Drivers/STM32L4xx_HAL_Driver/Inc/stm32l4xx_ll_rcc.h ****   * @param  __PLLSAI1N__ Between 8 and 86
1536:Drivers/STM32L4xx_HAL_Driver/Inc/stm32l4xx_ll_rcc.h ****   * @param  __PLLSAI1P__ This parameter can be one of the following values:
1537:Drivers/STM32L4xx_HAL_Driver/Inc/stm32l4xx_ll_rcc.h ****   *         @arg @ref LL_RCC_PLLSAI1P_DIV_7
1538:Drivers/STM32L4xx_HAL_Driver/Inc/stm32l4xx_ll_rcc.h ****   *         @arg @ref LL_RCC_PLLSAI1P_DIV_17
1539:Drivers/STM32L4xx_HAL_Driver/Inc/stm32l4xx_ll_rcc.h ****   * @retval PLLSAI1 clock frequency (in Hz)
ARM GAS  C:\Temp\ccmvY2mT.s 			page 45


1540:Drivers/STM32L4xx_HAL_Driver/Inc/stm32l4xx_ll_rcc.h ****   */
1541:Drivers/STM32L4xx_HAL_Driver/Inc/stm32l4xx_ll_rcc.h **** #define __LL_RCC_CALC_PLLSAI1_SAI_FREQ(__INPUTFREQ__, __PLLM__, __PLLSAI1N__, __PLLSAI1P__) \
1542:Drivers/STM32L4xx_HAL_Driver/Inc/stm32l4xx_ll_rcc.h ****                    ((__INPUTFREQ__) / ((((__PLLM__)>> RCC_PLLCFGR_PLLM_Pos) + 1U)) * (__PLLSAI1N__)
1543:Drivers/STM32L4xx_HAL_Driver/Inc/stm32l4xx_ll_rcc.h ****                     (((__PLLSAI1P__) == LL_RCC_PLLSAI1P_DIV_7) ? 7U : 17U))
1544:Drivers/STM32L4xx_HAL_Driver/Inc/stm32l4xx_ll_rcc.h **** 
1545:Drivers/STM32L4xx_HAL_Driver/Inc/stm32l4xx_ll_rcc.h **** #endif /* RCC_PLLSAI1P_DIV_2_31_SUPPORT */
1546:Drivers/STM32L4xx_HAL_Driver/Inc/stm32l4xx_ll_rcc.h **** 
1547:Drivers/STM32L4xx_HAL_Driver/Inc/stm32l4xx_ll_rcc.h **** #if defined(RCC_PLLSAI1M_DIV_1_16_SUPPORT)
1548:Drivers/STM32L4xx_HAL_Driver/Inc/stm32l4xx_ll_rcc.h **** /**
1549:Drivers/STM32L4xx_HAL_Driver/Inc/stm32l4xx_ll_rcc.h ****   * @brief  Helper macro to calculate the PLLSAI1 frequency used on 48M domain
1550:Drivers/STM32L4xx_HAL_Driver/Inc/stm32l4xx_ll_rcc.h ****   * @note ex: @ref __LL_RCC_CALC_PLLSAI1_48M_FREQ (HSE_VALUE,@ref LL_RCC_PLLSAI1_GetDivider (),
1551:Drivers/STM32L4xx_HAL_Driver/Inc/stm32l4xx_ll_rcc.h ****   *             @ref LL_RCC_PLLSAI1_GetN (), @ref LL_RCC_PLLSAI1_GetQ ());
1552:Drivers/STM32L4xx_HAL_Driver/Inc/stm32l4xx_ll_rcc.h ****   * @param  __INPUTFREQ__ PLL Input frequency (based on MSI/HSE/HSI)
1553:Drivers/STM32L4xx_HAL_Driver/Inc/stm32l4xx_ll_rcc.h ****   * @param  __PLLSAI1M__ This parameter can be one of the following values:
1554:Drivers/STM32L4xx_HAL_Driver/Inc/stm32l4xx_ll_rcc.h ****   *         @arg @ref LL_RCC_PLLSAI1M_DIV_1
1555:Drivers/STM32L4xx_HAL_Driver/Inc/stm32l4xx_ll_rcc.h ****   *         @arg @ref LL_RCC_PLLSAI1M_DIV_2
1556:Drivers/STM32L4xx_HAL_Driver/Inc/stm32l4xx_ll_rcc.h ****   *         @arg @ref LL_RCC_PLLSAI1M_DIV_3
1557:Drivers/STM32L4xx_HAL_Driver/Inc/stm32l4xx_ll_rcc.h ****   *         @arg @ref LL_RCC_PLLSAI1M_DIV_4
1558:Drivers/STM32L4xx_HAL_Driver/Inc/stm32l4xx_ll_rcc.h ****   *         @arg @ref LL_RCC_PLLSAI1M_DIV_5
1559:Drivers/STM32L4xx_HAL_Driver/Inc/stm32l4xx_ll_rcc.h ****   *         @arg @ref LL_RCC_PLLSAI1M_DIV_6
1560:Drivers/STM32L4xx_HAL_Driver/Inc/stm32l4xx_ll_rcc.h ****   *         @arg @ref LL_RCC_PLLSAI1M_DIV_7
1561:Drivers/STM32L4xx_HAL_Driver/Inc/stm32l4xx_ll_rcc.h ****   *         @arg @ref LL_RCC_PLLSAI1M_DIV_8
1562:Drivers/STM32L4xx_HAL_Driver/Inc/stm32l4xx_ll_rcc.h ****   *         @arg @ref LL_RCC_PLLSAI1M_DIV_9
1563:Drivers/STM32L4xx_HAL_Driver/Inc/stm32l4xx_ll_rcc.h ****   *         @arg @ref LL_RCC_PLLSAI1M_DIV_10
1564:Drivers/STM32L4xx_HAL_Driver/Inc/stm32l4xx_ll_rcc.h ****   *         @arg @ref LL_RCC_PLLSAI1M_DIV_11
1565:Drivers/STM32L4xx_HAL_Driver/Inc/stm32l4xx_ll_rcc.h ****   *         @arg @ref LL_RCC_PLLSAI1M_DIV_12
1566:Drivers/STM32L4xx_HAL_Driver/Inc/stm32l4xx_ll_rcc.h ****   *         @arg @ref LL_RCC_PLLSAI1M_DIV_13
1567:Drivers/STM32L4xx_HAL_Driver/Inc/stm32l4xx_ll_rcc.h ****   *         @arg @ref LL_RCC_PLLSAI1M_DIV_14
1568:Drivers/STM32L4xx_HAL_Driver/Inc/stm32l4xx_ll_rcc.h ****   *         @arg @ref LL_RCC_PLLSAI1M_DIV_15
1569:Drivers/STM32L4xx_HAL_Driver/Inc/stm32l4xx_ll_rcc.h ****   *         @arg @ref LL_RCC_PLLSAI1M_DIV_16
1570:Drivers/STM32L4xx_HAL_Driver/Inc/stm32l4xx_ll_rcc.h ****   * @param  __PLLSAI1N__ Between 8 and 86 or 127 depending on devices
1571:Drivers/STM32L4xx_HAL_Driver/Inc/stm32l4xx_ll_rcc.h ****   * @param  __PLLSAI1Q__ This parameter can be one of the following values:
1572:Drivers/STM32L4xx_HAL_Driver/Inc/stm32l4xx_ll_rcc.h ****   *         @arg @ref LL_RCC_PLLSAI1Q_DIV_2
1573:Drivers/STM32L4xx_HAL_Driver/Inc/stm32l4xx_ll_rcc.h ****   *         @arg @ref LL_RCC_PLLSAI1Q_DIV_4
1574:Drivers/STM32L4xx_HAL_Driver/Inc/stm32l4xx_ll_rcc.h ****   *         @arg @ref LL_RCC_PLLSAI1Q_DIV_6
1575:Drivers/STM32L4xx_HAL_Driver/Inc/stm32l4xx_ll_rcc.h ****   *         @arg @ref LL_RCC_PLLSAI1Q_DIV_8
1576:Drivers/STM32L4xx_HAL_Driver/Inc/stm32l4xx_ll_rcc.h ****   * @retval PLLSAI1 clock frequency (in Hz)
1577:Drivers/STM32L4xx_HAL_Driver/Inc/stm32l4xx_ll_rcc.h ****   */
1578:Drivers/STM32L4xx_HAL_Driver/Inc/stm32l4xx_ll_rcc.h **** #define __LL_RCC_CALC_PLLSAI1_48M_FREQ(__INPUTFREQ__, __PLLSAI1M__, __PLLSAI1N__, __PLLSAI1Q__) \
1579:Drivers/STM32L4xx_HAL_Driver/Inc/stm32l4xx_ll_rcc.h ****                    ((__INPUTFREQ__) / ((((__PLLSAI1M__) >> RCC_PLLSAI1CFGR_PLLSAI1M_Pos) + 1U)) * (
1580:Drivers/STM32L4xx_HAL_Driver/Inc/stm32l4xx_ll_rcc.h ****                     ((((__PLLSAI1Q__) >> RCC_PLLSAI1CFGR_PLLSAI1Q_Pos) + 1U) << 1U))
1581:Drivers/STM32L4xx_HAL_Driver/Inc/stm32l4xx_ll_rcc.h **** 
1582:Drivers/STM32L4xx_HAL_Driver/Inc/stm32l4xx_ll_rcc.h **** #else
1583:Drivers/STM32L4xx_HAL_Driver/Inc/stm32l4xx_ll_rcc.h **** /**
1584:Drivers/STM32L4xx_HAL_Driver/Inc/stm32l4xx_ll_rcc.h ****   * @brief  Helper macro to calculate the PLLSAI1 frequency used on 48M domain
1585:Drivers/STM32L4xx_HAL_Driver/Inc/stm32l4xx_ll_rcc.h ****   * @note ex: @ref __LL_RCC_CALC_PLLSAI1_48M_FREQ (HSE_VALUE,@ref LL_RCC_PLL_GetDivider (),
1586:Drivers/STM32L4xx_HAL_Driver/Inc/stm32l4xx_ll_rcc.h ****   *             @ref LL_RCC_PLLSAI1_GetN (), @ref LL_RCC_PLLSAI1_GetQ ());
1587:Drivers/STM32L4xx_HAL_Driver/Inc/stm32l4xx_ll_rcc.h ****   * @param  __INPUTFREQ__ PLL Input frequency (based on MSI/HSE/HSI)
1588:Drivers/STM32L4xx_HAL_Driver/Inc/stm32l4xx_ll_rcc.h ****   * @param  __PLLM__ This parameter can be one of the following values:
1589:Drivers/STM32L4xx_HAL_Driver/Inc/stm32l4xx_ll_rcc.h ****   *         @arg @ref LL_RCC_PLLM_DIV_1
1590:Drivers/STM32L4xx_HAL_Driver/Inc/stm32l4xx_ll_rcc.h ****   *         @arg @ref LL_RCC_PLLM_DIV_2
1591:Drivers/STM32L4xx_HAL_Driver/Inc/stm32l4xx_ll_rcc.h ****   *         @arg @ref LL_RCC_PLLM_DIV_3
1592:Drivers/STM32L4xx_HAL_Driver/Inc/stm32l4xx_ll_rcc.h ****   *         @arg @ref LL_RCC_PLLM_DIV_4
1593:Drivers/STM32L4xx_HAL_Driver/Inc/stm32l4xx_ll_rcc.h ****   *         @arg @ref LL_RCC_PLLM_DIV_5
1594:Drivers/STM32L4xx_HAL_Driver/Inc/stm32l4xx_ll_rcc.h ****   *         @arg @ref LL_RCC_PLLM_DIV_6
1595:Drivers/STM32L4xx_HAL_Driver/Inc/stm32l4xx_ll_rcc.h ****   *         @arg @ref LL_RCC_PLLM_DIV_7
1596:Drivers/STM32L4xx_HAL_Driver/Inc/stm32l4xx_ll_rcc.h ****   *         @arg @ref LL_RCC_PLLM_DIV_8
ARM GAS  C:\Temp\ccmvY2mT.s 			page 46


1597:Drivers/STM32L4xx_HAL_Driver/Inc/stm32l4xx_ll_rcc.h ****   * @param  __PLLSAI1N__ Between 8 and 86
1598:Drivers/STM32L4xx_HAL_Driver/Inc/stm32l4xx_ll_rcc.h ****   * @param  __PLLSAI1Q__ This parameter can be one of the following values:
1599:Drivers/STM32L4xx_HAL_Driver/Inc/stm32l4xx_ll_rcc.h ****   *         @arg @ref LL_RCC_PLLSAI1Q_DIV_2
1600:Drivers/STM32L4xx_HAL_Driver/Inc/stm32l4xx_ll_rcc.h ****   *         @arg @ref LL_RCC_PLLSAI1Q_DIV_4
1601:Drivers/STM32L4xx_HAL_Driver/Inc/stm32l4xx_ll_rcc.h ****   *         @arg @ref LL_RCC_PLLSAI1Q_DIV_6
1602:Drivers/STM32L4xx_HAL_Driver/Inc/stm32l4xx_ll_rcc.h ****   *         @arg @ref LL_RCC_PLLSAI1Q_DIV_8
1603:Drivers/STM32L4xx_HAL_Driver/Inc/stm32l4xx_ll_rcc.h ****   * @retval PLLSAI1 clock frequency (in Hz)
1604:Drivers/STM32L4xx_HAL_Driver/Inc/stm32l4xx_ll_rcc.h ****   */
1605:Drivers/STM32L4xx_HAL_Driver/Inc/stm32l4xx_ll_rcc.h **** #define __LL_RCC_CALC_PLLSAI1_48M_FREQ(__INPUTFREQ__, __PLLM__, __PLLSAI1N__, __PLLSAI1Q__) \
1606:Drivers/STM32L4xx_HAL_Driver/Inc/stm32l4xx_ll_rcc.h ****                    ((__INPUTFREQ__) / ((((__PLLM__)>> RCC_PLLCFGR_PLLM_Pos) + 1U)) * (__PLLSAI1N__)
1607:Drivers/STM32L4xx_HAL_Driver/Inc/stm32l4xx_ll_rcc.h ****                     ((((__PLLSAI1Q__) >> RCC_PLLSAI1CFGR_PLLSAI1Q_Pos) + 1U) << 1U))
1608:Drivers/STM32L4xx_HAL_Driver/Inc/stm32l4xx_ll_rcc.h **** 
1609:Drivers/STM32L4xx_HAL_Driver/Inc/stm32l4xx_ll_rcc.h **** #endif /* RCC_PLLSAI1M_DIV_1_16_SUPPORT */
1610:Drivers/STM32L4xx_HAL_Driver/Inc/stm32l4xx_ll_rcc.h **** 
1611:Drivers/STM32L4xx_HAL_Driver/Inc/stm32l4xx_ll_rcc.h **** #if defined(RCC_PLLSAI1M_DIV_1_16_SUPPORT)
1612:Drivers/STM32L4xx_HAL_Driver/Inc/stm32l4xx_ll_rcc.h **** /**
1613:Drivers/STM32L4xx_HAL_Driver/Inc/stm32l4xx_ll_rcc.h ****   * @brief  Helper macro to calculate the PLLSAI1 frequency used on ADC domain
1614:Drivers/STM32L4xx_HAL_Driver/Inc/stm32l4xx_ll_rcc.h ****   * @note ex: @ref __LL_RCC_CALC_PLLSAI1_ADC_FREQ (HSE_VALUE,@ref LL_RCC_PLLSAI1_GetDivider (),
1615:Drivers/STM32L4xx_HAL_Driver/Inc/stm32l4xx_ll_rcc.h ****   *             @ref LL_RCC_PLLSAI1_GetN (), @ref LL_RCC_PLLSAI1_GetR ());
1616:Drivers/STM32L4xx_HAL_Driver/Inc/stm32l4xx_ll_rcc.h ****   * @param  __INPUTFREQ__ PLL Input frequency (based on MSI/HSE/HSI)
1617:Drivers/STM32L4xx_HAL_Driver/Inc/stm32l4xx_ll_rcc.h ****   * @param  __PLLSAI1M__ This parameter can be one of the following values:
1618:Drivers/STM32L4xx_HAL_Driver/Inc/stm32l4xx_ll_rcc.h ****   *         @arg @ref LL_RCC_PLLSAI1M_DIV_1
1619:Drivers/STM32L4xx_HAL_Driver/Inc/stm32l4xx_ll_rcc.h ****   *         @arg @ref LL_RCC_PLLSAI1M_DIV_2
1620:Drivers/STM32L4xx_HAL_Driver/Inc/stm32l4xx_ll_rcc.h ****   *         @arg @ref LL_RCC_PLLSAI1M_DIV_3
1621:Drivers/STM32L4xx_HAL_Driver/Inc/stm32l4xx_ll_rcc.h ****   *         @arg @ref LL_RCC_PLLSAI1M_DIV_4
1622:Drivers/STM32L4xx_HAL_Driver/Inc/stm32l4xx_ll_rcc.h ****   *         @arg @ref LL_RCC_PLLSAI1M_DIV_5
1623:Drivers/STM32L4xx_HAL_Driver/Inc/stm32l4xx_ll_rcc.h ****   *         @arg @ref LL_RCC_PLLSAI1M_DIV_6
1624:Drivers/STM32L4xx_HAL_Driver/Inc/stm32l4xx_ll_rcc.h ****   *         @arg @ref LL_RCC_PLLSAI1M_DIV_7
1625:Drivers/STM32L4xx_HAL_Driver/Inc/stm32l4xx_ll_rcc.h ****   *         @arg @ref LL_RCC_PLLSAI1M_DIV_8
1626:Drivers/STM32L4xx_HAL_Driver/Inc/stm32l4xx_ll_rcc.h ****   *         @arg @ref LL_RCC_PLLSAI1M_DIV_9
1627:Drivers/STM32L4xx_HAL_Driver/Inc/stm32l4xx_ll_rcc.h ****   *         @arg @ref LL_RCC_PLLSAI1M_DIV_10
1628:Drivers/STM32L4xx_HAL_Driver/Inc/stm32l4xx_ll_rcc.h ****   *         @arg @ref LL_RCC_PLLSAI1M_DIV_11
1629:Drivers/STM32L4xx_HAL_Driver/Inc/stm32l4xx_ll_rcc.h ****   *         @arg @ref LL_RCC_PLLSAI1M_DIV_12
1630:Drivers/STM32L4xx_HAL_Driver/Inc/stm32l4xx_ll_rcc.h ****   *         @arg @ref LL_RCC_PLLSAI1M_DIV_13
1631:Drivers/STM32L4xx_HAL_Driver/Inc/stm32l4xx_ll_rcc.h ****   *         @arg @ref LL_RCC_PLLSAI1M_DIV_14
1632:Drivers/STM32L4xx_HAL_Driver/Inc/stm32l4xx_ll_rcc.h ****   *         @arg @ref LL_RCC_PLLSAI1M_DIV_15
1633:Drivers/STM32L4xx_HAL_Driver/Inc/stm32l4xx_ll_rcc.h ****   *         @arg @ref LL_RCC_PLLSAI1M_DIV_16
1634:Drivers/STM32L4xx_HAL_Driver/Inc/stm32l4xx_ll_rcc.h ****   * @param  __PLLSAI1N__ Between 8 and 86 or 127 depending on devices
1635:Drivers/STM32L4xx_HAL_Driver/Inc/stm32l4xx_ll_rcc.h ****   * @param  __PLLSAI1R__ This parameter can be one of the following values:
1636:Drivers/STM32L4xx_HAL_Driver/Inc/stm32l4xx_ll_rcc.h ****   *         @arg @ref LL_RCC_PLLSAI1R_DIV_2
1637:Drivers/STM32L4xx_HAL_Driver/Inc/stm32l4xx_ll_rcc.h ****   *         @arg @ref LL_RCC_PLLSAI1R_DIV_4
1638:Drivers/STM32L4xx_HAL_Driver/Inc/stm32l4xx_ll_rcc.h ****   *         @arg @ref LL_RCC_PLLSAI1R_DIV_6
1639:Drivers/STM32L4xx_HAL_Driver/Inc/stm32l4xx_ll_rcc.h ****   *         @arg @ref LL_RCC_PLLSAI1R_DIV_8
1640:Drivers/STM32L4xx_HAL_Driver/Inc/stm32l4xx_ll_rcc.h ****   * @retval PLLSAI1 clock frequency (in Hz)
1641:Drivers/STM32L4xx_HAL_Driver/Inc/stm32l4xx_ll_rcc.h ****   */
1642:Drivers/STM32L4xx_HAL_Driver/Inc/stm32l4xx_ll_rcc.h **** #define __LL_RCC_CALC_PLLSAI1_ADC_FREQ(__INPUTFREQ__, __PLLSAI1M__, __PLLSAI1N__, __PLLSAI1R__) \
1643:Drivers/STM32L4xx_HAL_Driver/Inc/stm32l4xx_ll_rcc.h ****                    ((__INPUTFREQ__) / ((((__PLLSAI1M__) >> RCC_PLLSAI1CFGR_PLLSAI1M_Pos) + 1U)) * (
1644:Drivers/STM32L4xx_HAL_Driver/Inc/stm32l4xx_ll_rcc.h ****                     ((((__PLLSAI1R__) >> RCC_PLLSAI1CFGR_PLLSAI1R_Pos) + 1U) << 1U))
1645:Drivers/STM32L4xx_HAL_Driver/Inc/stm32l4xx_ll_rcc.h **** 
1646:Drivers/STM32L4xx_HAL_Driver/Inc/stm32l4xx_ll_rcc.h **** #else
1647:Drivers/STM32L4xx_HAL_Driver/Inc/stm32l4xx_ll_rcc.h **** /**
1648:Drivers/STM32L4xx_HAL_Driver/Inc/stm32l4xx_ll_rcc.h ****   * @brief  Helper macro to calculate the PLLSAI1 frequency used on ADC domain
1649:Drivers/STM32L4xx_HAL_Driver/Inc/stm32l4xx_ll_rcc.h ****   * @note ex: @ref __LL_RCC_CALC_PLLSAI1_ADC_FREQ (HSE_VALUE,@ref LL_RCC_PLL_GetDivider (),
1650:Drivers/STM32L4xx_HAL_Driver/Inc/stm32l4xx_ll_rcc.h ****   *             @ref LL_RCC_PLLSAI1_GetN (), @ref LL_RCC_PLLSAI1_GetR ());
1651:Drivers/STM32L4xx_HAL_Driver/Inc/stm32l4xx_ll_rcc.h ****   * @param  __INPUTFREQ__ PLL Input frequency (based on MSI/HSE/HSI)
1652:Drivers/STM32L4xx_HAL_Driver/Inc/stm32l4xx_ll_rcc.h ****   * @param  __PLLM__ This parameter can be one of the following values:
1653:Drivers/STM32L4xx_HAL_Driver/Inc/stm32l4xx_ll_rcc.h ****   *         @arg @ref LL_RCC_PLLM_DIV_1
ARM GAS  C:\Temp\ccmvY2mT.s 			page 47


1654:Drivers/STM32L4xx_HAL_Driver/Inc/stm32l4xx_ll_rcc.h ****   *         @arg @ref LL_RCC_PLLM_DIV_2
1655:Drivers/STM32L4xx_HAL_Driver/Inc/stm32l4xx_ll_rcc.h ****   *         @arg @ref LL_RCC_PLLM_DIV_3
1656:Drivers/STM32L4xx_HAL_Driver/Inc/stm32l4xx_ll_rcc.h ****   *         @arg @ref LL_RCC_PLLM_DIV_4
1657:Drivers/STM32L4xx_HAL_Driver/Inc/stm32l4xx_ll_rcc.h ****   *         @arg @ref LL_RCC_PLLM_DIV_5
1658:Drivers/STM32L4xx_HAL_Driver/Inc/stm32l4xx_ll_rcc.h ****   *         @arg @ref LL_RCC_PLLM_DIV_6
1659:Drivers/STM32L4xx_HAL_Driver/Inc/stm32l4xx_ll_rcc.h ****   *         @arg @ref LL_RCC_PLLM_DIV_7
1660:Drivers/STM32L4xx_HAL_Driver/Inc/stm32l4xx_ll_rcc.h ****   *         @arg @ref LL_RCC_PLLM_DIV_8
1661:Drivers/STM32L4xx_HAL_Driver/Inc/stm32l4xx_ll_rcc.h ****   * @param  __PLLSAI1N__ Between 8 and 86
1662:Drivers/STM32L4xx_HAL_Driver/Inc/stm32l4xx_ll_rcc.h ****   * @param  __PLLSAI1R__ This parameter can be one of the following values:
1663:Drivers/STM32L4xx_HAL_Driver/Inc/stm32l4xx_ll_rcc.h ****   *         @arg @ref LL_RCC_PLLSAI1R_DIV_2
1664:Drivers/STM32L4xx_HAL_Driver/Inc/stm32l4xx_ll_rcc.h ****   *         @arg @ref LL_RCC_PLLSAI1R_DIV_4
1665:Drivers/STM32L4xx_HAL_Driver/Inc/stm32l4xx_ll_rcc.h ****   *         @arg @ref LL_RCC_PLLSAI1R_DIV_6
1666:Drivers/STM32L4xx_HAL_Driver/Inc/stm32l4xx_ll_rcc.h ****   *         @arg @ref LL_RCC_PLLSAI1R_DIV_8
1667:Drivers/STM32L4xx_HAL_Driver/Inc/stm32l4xx_ll_rcc.h ****   * @retval PLLSAI1 clock frequency (in Hz)
1668:Drivers/STM32L4xx_HAL_Driver/Inc/stm32l4xx_ll_rcc.h ****   */
1669:Drivers/STM32L4xx_HAL_Driver/Inc/stm32l4xx_ll_rcc.h **** #define __LL_RCC_CALC_PLLSAI1_ADC_FREQ(__INPUTFREQ__, __PLLM__, __PLLSAI1N__, __PLLSAI1R__) \
1670:Drivers/STM32L4xx_HAL_Driver/Inc/stm32l4xx_ll_rcc.h ****                    ((__INPUTFREQ__) / ((((__PLLM__)>> RCC_PLLCFGR_PLLM_Pos) + 1U)) * (__PLLSAI1N__)
1671:Drivers/STM32L4xx_HAL_Driver/Inc/stm32l4xx_ll_rcc.h ****                     ((((__PLLSAI1R__) >> RCC_PLLSAI1CFGR_PLLSAI1R_Pos) + 1U) << 1U))
1672:Drivers/STM32L4xx_HAL_Driver/Inc/stm32l4xx_ll_rcc.h **** 
1673:Drivers/STM32L4xx_HAL_Driver/Inc/stm32l4xx_ll_rcc.h **** #endif /* RCC_PLLSAI1M_DIV_1_16_SUPPORT */
1674:Drivers/STM32L4xx_HAL_Driver/Inc/stm32l4xx_ll_rcc.h **** #endif /* RCC_PLLSAI1_SUPPORT */
1675:Drivers/STM32L4xx_HAL_Driver/Inc/stm32l4xx_ll_rcc.h **** 
1676:Drivers/STM32L4xx_HAL_Driver/Inc/stm32l4xx_ll_rcc.h **** #if defined(RCC_PLLSAI2M_DIV_1_16_SUPPORT) && defined(RCC_PLLSAI2P_DIV_2_31_SUPPORT)
1677:Drivers/STM32L4xx_HAL_Driver/Inc/stm32l4xx_ll_rcc.h **** /**
1678:Drivers/STM32L4xx_HAL_Driver/Inc/stm32l4xx_ll_rcc.h ****   * @brief  Helper macro to calculate the PLLSAI2 frequency used for SAI domain
1679:Drivers/STM32L4xx_HAL_Driver/Inc/stm32l4xx_ll_rcc.h ****   * @note ex: @ref __LL_RCC_CALC_PLLSAI2_SAI_FREQ (HSE_VALUE,@ref LL_RCC_PLLSAI2_GetDivider (),
1680:Drivers/STM32L4xx_HAL_Driver/Inc/stm32l4xx_ll_rcc.h ****   *             @ref LL_RCC_PLLSAI2_GetN (), @ref LL_RCC_PLLSAI2_GetP ());
1681:Drivers/STM32L4xx_HAL_Driver/Inc/stm32l4xx_ll_rcc.h ****   * @param  __INPUTFREQ__ PLL Input frequency (based on MSI/HSE/HSI)
1682:Drivers/STM32L4xx_HAL_Driver/Inc/stm32l4xx_ll_rcc.h ****   * @param  __PLLSAI2M__ This parameter can be one of the following values:
1683:Drivers/STM32L4xx_HAL_Driver/Inc/stm32l4xx_ll_rcc.h ****   *         @arg @ref LL_RCC_PLLSAI2M_DIV_1
1684:Drivers/STM32L4xx_HAL_Driver/Inc/stm32l4xx_ll_rcc.h ****   *         @arg @ref LL_RCC_PLLSAI2M_DIV_2
1685:Drivers/STM32L4xx_HAL_Driver/Inc/stm32l4xx_ll_rcc.h ****   *         @arg @ref LL_RCC_PLLSAI2M_DIV_3
1686:Drivers/STM32L4xx_HAL_Driver/Inc/stm32l4xx_ll_rcc.h ****   *         @arg @ref LL_RCC_PLLSAI2M_DIV_4
1687:Drivers/STM32L4xx_HAL_Driver/Inc/stm32l4xx_ll_rcc.h ****   *         @arg @ref LL_RCC_PLLSAI2M_DIV_5
1688:Drivers/STM32L4xx_HAL_Driver/Inc/stm32l4xx_ll_rcc.h ****   *         @arg @ref LL_RCC_PLLSAI2M_DIV_6
1689:Drivers/STM32L4xx_HAL_Driver/Inc/stm32l4xx_ll_rcc.h ****   *         @arg @ref LL_RCC_PLLSAI2M_DIV_7
1690:Drivers/STM32L4xx_HAL_Driver/Inc/stm32l4xx_ll_rcc.h ****   *         @arg @ref LL_RCC_PLLSAI2M_DIV_8
1691:Drivers/STM32L4xx_HAL_Driver/Inc/stm32l4xx_ll_rcc.h ****   *         @arg @ref LL_RCC_PLLSAI2M_DIV_9
1692:Drivers/STM32L4xx_HAL_Driver/Inc/stm32l4xx_ll_rcc.h ****   *         @arg @ref LL_RCC_PLLSAI2M_DIV_10
1693:Drivers/STM32L4xx_HAL_Driver/Inc/stm32l4xx_ll_rcc.h ****   *         @arg @ref LL_RCC_PLLSAI2M_DIV_11
1694:Drivers/STM32L4xx_HAL_Driver/Inc/stm32l4xx_ll_rcc.h ****   *         @arg @ref LL_RCC_PLLSAI2M_DIV_12
1695:Drivers/STM32L4xx_HAL_Driver/Inc/stm32l4xx_ll_rcc.h ****   *         @arg @ref LL_RCC_PLLSAI2M_DIV_13
1696:Drivers/STM32L4xx_HAL_Driver/Inc/stm32l4xx_ll_rcc.h ****   *         @arg @ref LL_RCC_PLLSAI2M_DIV_14
1697:Drivers/STM32L4xx_HAL_Driver/Inc/stm32l4xx_ll_rcc.h ****   *         @arg @ref LL_RCC_PLLSAI2M_DIV_15
1698:Drivers/STM32L4xx_HAL_Driver/Inc/stm32l4xx_ll_rcc.h ****   *         @arg @ref LL_RCC_PLLSAI2M_DIV_16
1699:Drivers/STM32L4xx_HAL_Driver/Inc/stm32l4xx_ll_rcc.h ****   * @param  __PLLSAI2N__ Between 8 and 86 or 127 depending on devices
1700:Drivers/STM32L4xx_HAL_Driver/Inc/stm32l4xx_ll_rcc.h ****   * @param  __PLLSAI2P__ This parameter can be one of the following values:
1701:Drivers/STM32L4xx_HAL_Driver/Inc/stm32l4xx_ll_rcc.h ****   *         @arg @ref LL_RCC_PLLSAI2P_DIV_2
1702:Drivers/STM32L4xx_HAL_Driver/Inc/stm32l4xx_ll_rcc.h ****   *         @arg @ref LL_RCC_PLLSAI2P_DIV_3
1703:Drivers/STM32L4xx_HAL_Driver/Inc/stm32l4xx_ll_rcc.h ****   *         @arg @ref LL_RCC_PLLSAI2P_DIV_4
1704:Drivers/STM32L4xx_HAL_Driver/Inc/stm32l4xx_ll_rcc.h ****   *         @arg @ref LL_RCC_PLLSAI2P_DIV_5
